=== lib/libmdc/flength.o ===

Header:
  Magic:       0x99
  Config:      0x14 little-endian
  Symlen:      9 chars
  Symtab:      132 bytes (11 symbols)
  Text:        194 bytes
  Data:        4 bytes
  BSS:         0 bytes
  Heap:        0 bytes
  Text offset: 0x0000
  Data offset: 0x00c2

Disassembly: 194 bytes
__flengt:
  0000  cd 00 00     call __flengt
  0003  21 04 00     ld hl,0004h
  0006  19           add hl,de
  0007  4e           ld c,(hl)
  0008  23           inc hl
  0009  46           ld b,(hl)
  000a  c5           push bc
  000b  21 23 00     ld hl,0023h
  000e  e5           push hl
  000f  cd 00 00     call __flengt
  0012  f1           pop af
  0013  f1           pop af
  0014  79           ld a,c
  0015  fe ff        cp ffh
  0017  c2 1d 00     jp nz,001dh
  001a  78           ld a,b
  001b  fe ff        cp ffh
  001d  c2 2c 00     jp nz,002ch
  0020  21 c2 00     ld hl,00c2h
  0023  01 00 00     ld bc,__flengt
  0026  cd 00 00     call __flengt
  0029  c3 00 00     jp __flengt
  002c  21 04 00     ld hl,0004h
  002f  19           add hl,de
  0030  7e           ld a,(hl)
  0031  23           inc hl
  0032  66           ld h,(hl)
  0033  6f           ld l,a
  0034  01 21 00     ld bc,0021h
  0037  09           add hl,bc
  0038  4d           ld c,l
  0039  44           ld b,h
  003a  0a           ld a,(bc)
  003b  32 02 00     ld (0002h),a
  003e  87           add a,a
  003f  9f           sbc a,a
  0040  32 03 00     ld (0003h),a
  0043  32 01 00     ld (0001h),a
  0046  32 00 00     ld (__flengt),a
  0049  21 00 00     ld hl,__flengt
  004c  e5           push hl
  004d  21 04 00     ld hl,0004h
  0050  19           add hl,de
  0051  7e           ld a,(hl)
  0052  23           inc hl
  0053  66           ld h,(hl)
  0054  6f           ld l,a
  0055  01 22 00     ld bc,0022h
  0058  09           add hl,bc
  0059  4d           ld c,l
  005a  44           ld b,h
  005b  0a           ld a,(bc)
  005c  32 02 00     ld (0002h),a
  005f  87           add a,a
  0060  9f           sbc a,a
  0061  32 03 00     ld (0003h),a
  0064  32 01 00     ld (0001h),a
  0067  32 00 00     ld (__flengt),a
  006a  21 00 00     ld hl,__flengt
  006d  e5           push hl
  006e  21 08 00     ld hl,0008h
  0071  e5           push hl
  0072  cd 00 00     call __flengt
  0075  cd 00 00     call __flengt
  0078  21 04 00     ld hl,0004h
  007b  19           add hl,de
  007c  7e           ld a,(hl)
  007d  23           inc hl
  007e  66           ld h,(hl)
  007f  6f           ld l,a
  0080  01 23 00     ld bc,0023h
  0083  09           add hl,bc
  0084  4d           ld c,l
  0085  44           ld b,h
  0086  0a           ld a,(bc)
  0087  32 02 00     ld (0002h),a
  008a  87           add a,a
  008b  9f           sbc a,a
  008c  32 03 00     ld (0003h),a
  008f  32 01 00     ld (0001h),a
  0092  32 00 00     ld (__flengt),a
  0095  21 00 00     ld hl,__flengt
  0098  e5           push hl
  0099  21 10 00     ld hl,0010h
  009c  e5           push hl
  009d  cd 00 00     call __flengt
  00a0  cd 00 00     call __flengt
  00a3  3e 00        ld a,00h
  00a5  87           add a,a
  00a6  9f           sbc a,a
  00a7  32 00 00     ld (__flengt),a
  00aa  32 01 00     ld (0001h),a
  00ad  3e 00        ld a,00h
  00af  32 03 00     ld (0003h),a
  00b2  3e 80        ld a,80h
  00b4  32 02 00     ld (0002h),a
  00b7  21 00 00     ld hl,__flengt
  00ba  e5           push hl
  00bb  cd 00 00     call __flengt
  00be  f1           pop af
  00bf  c3 00 00     jp __flengt

Data segment: 4 bytes
  0000: 00 00 00 00                                       |....|

Symbol table: 11 symbols (9-char names)
  Index  Value  Type Seg    Global  Name
  -----  -----  ---- -----  ------  ----
  [  0]  0000   08   ext    yes      c.r1
  [  1]  0000   08   ext    yes      c.r0
  [  2]  0000   08   ext    yes      _cpm
  [  3]  0000   08   ext    yes      c.lor
  [  4]  0000   08   ext    yes      c.ret
  [  5]  0000   08   ext    yes      c.ent
  [  6]  0000   08   ext    yes      __files
  [  7]  0000   08   ext    yes      c.lmul
  [  8]  0000   08   ext    yes      c.lcpy
  [  9]  0000   08   ext    yes      c.llsh
  [ 10]  0000   0d   text   yes      __flengt

Text relocations:
  Offset  Type        Target
  ------  ----        ------
  0001    word        symbol[5]
  0010    word        symbol[2]
  0018    word        text segment
  001e    word        text segment
  0021    word        data segment
  0024    word        symbol[1]
  0027    word        symbol[8]
  002a    word        symbol[4]
  003c    word        symbol[1]
  0041    word        symbol[1]
  0044    word        symbol[1]
  0047    word        symbol[1]
  004a    word        symbol[1]
  005d    word        symbol[0]
  0062    word        symbol[0]
  0065    word        symbol[0]
  0068    word        symbol[0]
  006b    word        symbol[0]
  0073    word        symbol[9]
  0076    word        symbol[3]
  0088    word        symbol[0]
  008d    word        symbol[0]
  0090    word        symbol[0]
  0093    word        symbol[0]
  0096    word        symbol[0]
  009e    word        symbol[9]
  00a1    word        symbol[3]
  00a8    word        symbol[0]
  00ab    word        symbol[0]
  00b0    word        symbol[0]
  00b5    word        symbol[0]
  00b8    word        symbol[0]
  00bc    word        symbol[7]
  00c0    word        symbol[4]

Data relocations:
  Offset  Type        Target
  ------  ----        ------
  (none)

