=== lib/libmd/alloc.o ===

Header:
  Magic:       0x99
  Config:      0x14 little-endian
  Symlen:      9 chars
  Symtab:      108 bytes (9 symbols)
  Text:        856 bytes
  Data:        16 bytes
  BSS:         0 bytes
  Heap:        0 bytes
  Text offset: 0x0000
  Data offset: 0x0358

Disassembly: 856 bytes
_alloc:
  0000  cd 00 00     call _alloc
  0003  21 04 00     ld hl,0004h
  0006  19           add hl,de
  0007  7e           ld a,(hl)
  0008  23           inc hl
  0009  66           ld h,(hl)
  000a  6f           ld l,a
  000b  22 00 00     ld (_alloc),hl
  000e  2a 00 00     ld hl,(_alloc)
  0011  7d           ld a,l
  0012  e6 01        and 01h
  0014  ca 1e 00     jp z,001eh
  0017  2a 00 00     ld hl,(_alloc)
  001a  23           inc hl
  001b  22 00 00     ld (_alloc),hl
  001e  3a 00 00     ld a,(_alloc)
  0021  d6 02        sub 02h
  0023  3a 01 00     ld a,(0001h)
  0026  de 00        sbc a,00h
  0028  d2 31 00     jp nc,0031h
  002b  01 02 00     ld bc,0002h
  002e  c3 36 00     jp 0036h
  0031  2a 00 00     ld hl,(_alloc)
  0034  4d           ld c,l
  0035  44           ld b,h
  0036  69           ld l,c
  0037  60           ld h,b
  0038  22 00 00     ld (_alloc),hl
  003b  21 60 03     ld hl,__pool
  003e  7e           ld a,(hl)
  003f  23           inc hl
  0040  b6           or (hl)
  0041  c2 74 00     jp nz,0074h
  0044  21 80 00     ld hl,0080h
  0047  e5           push hl
  0048  cd 00 00     call _alloc
  004b  f1           pop af
  004c  69           ld l,c
  004d  60           ld h,b
  004e  22 5c 03     ld (035ch),hl
  0051  21 5c 03     ld hl,035ch
  0054  7e           ld a,(hl)
  0055  23           inc hl
  0056  b6           or (hl)
  0057  c2 60 00     jp nz,0060h
  005a  01 00 00     ld bc,_alloc
  005d  c3 00 00     jp _alloc
  0060  2a 5c 03     ld hl,(035ch)
  0063  3e 7c        ld a,7ch
  0065  77           ld (hl),a
  0066  3e 00        ld a,00h
  0068  23           inc hl
  0069  77           ld (hl),a
  006a  2a 5c 03     ld hl,(035ch)
  006d  23           inc hl
  006e  23           inc hl
  006f  e5           push hl
  0070  cd 97 01     call _free
  0073  f1           pop af
  0074  97           sub a
  0075  32 5a 03     ld (035ah),a
  0078  32 5b 03     ld (035bh),a
  007b  2a 60 03     ld hl,(__pool)
  007e  22 5e 03     ld (035eh),hl
  0081  21 5e 03     ld hl,035eh
  0084  7e           ld a,(hl)
  0085  23           inc hl
  0086  b6           or (hl)
  0087  ca a0 00     jp z,00a0h
  008a  2a 5e 03     ld hl,(035eh)
  008d  7e           ld a,(hl)
  008e  23           inc hl
  008f  66           ld h,(hl)
  0090  6f           ld l,a
  0091  23           inc hl
  0092  23           inc hl
  0093  e5           push hl
  0094  21 00 00     ld hl,_alloc
  0097  c1           pop bc
  0098  79           ld a,c
  0099  96           sub (hl)
  009a  78           ld a,b
  009b  23           inc hl
  009c  9e           sbc a,(hl)
  009d  da c7 00     jp c,00c7h
  00a0  21 5e 03     ld hl,035eh
  00a3  7e           ld a,(hl)
  00a4  23           inc hl
  00a5  b6           or (hl)
  00a6  ca dc 00     jp z,00dch
  00a9  21 5a 03     ld hl,035ah
  00ac  7e           ld a,(hl)
  00ad  23           inc hl
  00ae  b6           or (hl)
  00af  ca 0f 01     jp z,010fh
  00b2  2a 5a 03     ld hl,(035ah)
  00b5  23           inc hl
  00b6  23           inc hl
  00b7  e5           push hl
  00b8  2a 5e 03     ld hl,(035eh)
  00bb  23           inc hl
  00bc  23           inc hl
  00bd  c1           pop bc
  00be  7e           ld a,(hl)
  00bf  02           ld (bc),a
  00c0  23           inc hl
  00c1  7e           ld a,(hl)
  00c2  03           inc bc
  00c3  02           ld (bc),a
  00c4  c3 1b 01     jp 011bh
  00c7  2a 5e 03     ld hl,(035eh)
  00ca  22 5a 03     ld (035ah),hl
  00cd  2a 5e 03     ld hl,(035eh)
  00d0  23           inc hl
  00d1  23           inc hl
  00d2  7e           ld a,(hl)
  00d3  23           inc hl
  00d4  66           ld h,(hl)
  00d5  6f           ld l,a
  00d6  22 5e 03     ld (035eh),hl
  00d9  c3 81 00     jp 0081h
  00dc  21 00 02     ld hl,0200h
  00df  e5           push hl
  00e0  cd 00 00     call _alloc
  00e3  f1           pop af
  00e4  69           ld l,c
  00e5  60           ld h,b
  00e6  22 5c 03     ld (035ch),hl
  00e9  21 5c 03     ld hl,035ch
  00ec  7e           ld a,(hl)
  00ed  23           inc hl
  00ee  b6           or (hl)
  00ef  c2 f8 00     jp nz,00f8h
  00f2  01 00 00     ld bc,_alloc
  00f5  c3 00 00     jp _alloc
  00f8  2a 5c 03     ld hl,(035ch)
  00fb  3e fc        ld a,fch
  00fd  77           ld (hl),a
  00fe  3e 01        ld a,01h
  0100  23           inc hl
  0101  77           ld (hl),a
  0102  2a 5c 03     ld hl,(035ch)
  0105  23           inc hl
  0106  23           inc hl
  0107  e5           push hl
  0108  cd 97 01     call _free
  010b  f1           pop af
  010c  c3 74 00     jp 0074h
  010f  2a 60 03     ld hl,(__pool)
  0112  23           inc hl
  0113  23           inc hl
  0114  7e           ld a,(hl)
  0115  23           inc hl
  0116  66           ld h,(hl)
  0117  6f           ld l,a
  0118  22 60 03     ld (__pool),hl
  011b  2a 5e 03     ld hl,(035eh)
  011e  7e           ld a,(hl)
  011f  23           inc hl
  0120  66           ld h,(hl)
  0121  6f           ld l,a
  0122  e5           push hl
  0123  21 00 00     ld hl,_alloc
  0126  c1           pop bc
  0127  79           ld a,c
  0128  96           sub (hl)
  0129  4f           ld c,a
  012a  78           ld a,b
  012b  23           inc hl
  012c  9e           sbc a,(hl)
  012d  47           ld b,a
  012e  69           ld l,c
  012f  60           ld h,b
  0130  23           inc hl
  0131  23           inc hl
  0132  22 58 03     ld (0358h),hl
  0135  3a 58 03     ld a,(0358h)
  0138  d6 04        sub 04h
  013a  3a 59 03     ld a,(0359h)
  013d  de 00        sbc a,00h
  013f  fa 7e 01     jp m,017eh
  0142  2a 5e 03     ld hl,(035eh)
  0145  e5           push hl
  0146  2a 00 00     ld hl,(_alloc)
  0149  01 02 00     ld bc,0002h
  014c  09           add hl,bc
  014d  e3           ex (sp),hl
  014e  c1           pop bc
  014f  09           add hl,bc
  0150  22 5c 03     ld (035ch),hl
  0153  2a 5e 03     ld hl,(035eh)
  0156  e5           push hl
  0157  21 58 03     ld hl,0358h
  015a  c1           pop bc
  015b  0a           ld a,(bc)
  015c  96           sub (hl)
  015d  02           ld (bc),a
  015e  03           inc bc
  015f  0a           ld a,(bc)
  0160  23           inc hl
  0161  9e           sbc a,(hl)
  0162  02           ld (bc),a
  0163  2a 5c 03     ld hl,(035ch)
  0166  e5           push hl
  0167  2a 58 03     ld hl,(0358h)
  016a  01 fc ff     ld bc,fffch
  016d  09           add hl,bc
  016e  c1           pop bc
  016f  7d           ld a,l
  0170  02           ld (bc),a
  0171  7c           ld a,h
  0172  03           inc bc
  0173  02           ld (bc),a
  0174  2a 5c 03     ld hl,(035ch)
  0177  23           inc hl
  0178  23           inc hl
  0179  e5           push hl
  017a  cd 97 01     call _free
  017d  f1           pop af
  017e  2a 5e 03     ld hl,(035eh)
  0181  23           inc hl
  0182  23           inc hl
  0183  4d           ld c,l
  0184  44           ld b,h
  0185  c3 00 00     jp _alloc
  0188  62           ld h,d
  0189  61           ld h,c
  018a  64           ld h,h
  018b  20 66        jr nz,01f3h
  018d  72           ld (hl),d
  018e  65           ld h,l
  018f  65           ld h,l
  0190  20 63        jr nz,01f5h
  0192  61           ld h,c
  0193  6c           ld l,h
  0194  6c           ld l,h
  0195  0a           ld a,(bc)
  0196  00           nop
_free:
  0197  cd 00 00     call _alloc
  019a  21 04 00     ld hl,0004h
  019d  19           add hl,de
  019e  7e           ld a,(hl)
  019f  23           inc hl
  01a0  66           ld h,(hl)
  01a1  6f           ld l,a
  01a2  22 00 00     ld (_alloc),hl
  01a5  21 00 00     ld hl,_alloc
  01a8  7e           ld a,(hl)
  01a9  23           inc hl
  01aa  b6           or (hl)
  01ab  c2 b1 01     jp nz,01b1h
  01ae  c3 00 00     jp _alloc
  01b1  2a 00 00     ld hl,(_alloc)
  01b4  01 fe ff     ld bc,fffeh
  01b7  09           add hl,bc
  01b8  22 64 03     ld (0364h),hl
  01bb  2a 64 03     ld hl,(0364h)
  01be  23           inc hl
  01bf  23           inc hl
  01c0  97           sub a
  01c1  77           ld (hl),a
  01c2  23           inc hl
  01c3  77           ld (hl),a
  01c4  21 60 03     ld hl,__pool
  01c7  7e           ld a,(hl)
  01c8  23           inc hl
  01c9  b6           or (hl)
  01ca  c2 d6 01     jp nz,01d6h
  01cd  2a 64 03     ld hl,(0364h)
  01d0  22 60 03     ld (__pool),hl
  01d3  c3 00 00     jp _alloc
  01d6  97           sub a
  01d7  32 62 03     ld (0362h),a
  01da  32 63 03     ld (0363h),a
  01dd  2a 60 03     ld hl,(__pool)
  01e0  22 66 03     ld (0366h),hl
  01e3  21 66 03     ld hl,0366h
  01e6  7e           ld a,(hl)
  01e7  23           inc hl
  01e8  b6           or (hl)
  01e9  ca 0a 02     jp z,020ah
  01ec  21 64 03     ld hl,0364h
  01ef  3a 62 03     ld a,(0362h)
  01f2  96           sub (hl)
  01f3  3a 63 03     ld a,(0363h)
  01f6  23           inc hl
  01f7  9e           sbc a,(hl)
  01f8  d2 39 02     jp nc,0239h
  01fb  21 64 03     ld hl,0364h
  01fe  3a 66 03     ld a,(0366h)
  0201  96           sub (hl)
  0202  3a 67 03     ld a,(0367h)
  0205  23           inc hl
  0206  9e           sbc a,(hl)
  0207  da 39 02     jp c,0239h
  020a  21 66 03     ld hl,0366h
  020d  3a 64 03     ld a,(0364h)
  0210  be           cp (hl)
  0211  c2 19 02     jp nz,0219h
  0214  3a 65 03     ld a,(0365h)
  0217  23           inc hl
  0218  be           cp (hl)
  0219  c2 4e 02     jp nz,024eh
  021c  21 00 00     ld hl,_alloc
  021f  e5           push hl
  0220  21 88 01     ld hl,0188h
  0223  e5           push hl
  0224  21 02 00     ld hl,0002h
  0227  e5           push hl
  0228  cd 00 00     call _alloc
  022b  f1           pop af
  022c  f1           pop af
  022d  f1           pop af
  022e  21 00 00     ld hl,_alloc
  0231  e5           push hl
  0232  cd 00 00     call _alloc
  0235  f1           pop af
  0236  c3 4e 02     jp 024eh
  0239  2a 66 03     ld hl,(0366h)
  023c  22 62 03     ld (0362h),hl
  023f  2a 66 03     ld hl,(0366h)
  0242  23           inc hl
  0243  23           inc hl
  0244  7e           ld a,(hl)
  0245  23           inc hl
  0246  66           ld h,(hl)
  0247  6f           ld l,a
  0248  22 66 03     ld (0366h),hl
  024b  c3 e3 01     jp 01e3h
  024e  21 62 03     ld hl,0362h
  0251  7e           ld a,(hl)
  0252  23           inc hl
  0253  b6           or (hl)
  0254  c2 6e 02     jp nz,026eh
  0257  2a 64 03     ld hl,(0364h)
  025a  23           inc hl
  025b  23           inc hl
  025c  3a 66 03     ld a,(0366h)
  025f  77           ld (hl),a
  0260  3a 67 03     ld a,(0367h)
  0263  23           inc hl
  0264  77           ld (hl),a
  0265  2a 64 03     ld hl,(0364h)
  0268  22 60 03     ld (__pool),hl
  026b  c3 ad 02     jp 02adh
  026e  21 66 03     ld hl,0366h
  0271  7e           ld a,(hl)
  0272  23           inc hl
  0273  b6           or (hl)
  0274  c2 91 02     jp nz,0291h
  0277  2a 64 03     ld hl,(0364h)
  027a  23           inc hl
  027b  23           inc hl
  027c  97           sub a
  027d  77           ld (hl),a
  027e  23           inc hl
  027f  77           ld (hl),a
  0280  2a 62 03     ld hl,(0362h)
  0283  23           inc hl
  0284  23           inc hl
  0285  3a 64 03     ld a,(0364h)
  0288  77           ld (hl),a
  0289  3a 65 03     ld a,(0365h)
  028c  23           inc hl
  028d  77           ld (hl),a
  028e  c3 ad 02     jp 02adh
  0291  2a 64 03     ld hl,(0364h)
  0294  23           inc hl
  0295  23           inc hl
  0296  3a 66 03     ld a,(0366h)
  0299  77           ld (hl),a
  029a  3a 67 03     ld a,(0367h)
  029d  23           inc hl
  029e  77           ld (hl),a
  029f  2a 62 03     ld hl,(0362h)
  02a2  23           inc hl
  02a3  23           inc hl
  02a4  3a 64 03     ld a,(0364h)
  02a7  77           ld (hl),a
  02a8  3a 65 03     ld a,(0365h)
  02ab  23           inc hl
  02ac  77           ld (hl),a
  02ad  21 66 03     ld hl,0366h
  02b0  7e           ld a,(hl)
  02b1  23           inc hl
  02b2  b6           or (hl)
  02b3  ca 01 03     jp z,0301h
  02b6  2a 64 03     ld hl,(0364h)
  02b9  23           inc hl
  02ba  23           inc hl
  02bb  23           inc hl
  02bc  23           inc hl
  02bd  e5           push hl
  02be  2a 64 03     ld hl,(0364h)
  02c1  7e           ld a,(hl)
  02c2  23           inc hl
  02c3  66           ld h,(hl)
  02c4  6f           ld l,a
  02c5  e3           ex (sp),hl
  02c6  c1           pop bc
  02c7  09           add hl,bc
  02c8  e5           push hl
  02c9  21 66 03     ld hl,0366h
  02cc  c1           pop bc
  02cd  79           ld a,c
  02ce  be           cp (hl)
  02cf  c2 d5 02     jp nz,02d5h
  02d2  78           ld a,b
  02d3  23           inc hl
  02d4  be           cp (hl)
  02d5  c2 01 03     jp nz,0301h
  02d8  2a 64 03     ld hl,(0364h)
  02db  e5           push hl
  02dc  2a 66 03     ld hl,(0366h)
  02df  7e           ld a,(hl)
  02e0  23           inc hl
  02e1  66           ld h,(hl)
  02e2  6f           ld l,a
  02e3  23           inc hl
  02e4  23           inc hl
  02e5  23           inc hl
  02e6  23           inc hl
  02e7  c1           pop bc
  02e8  0a           ld a,(bc)
  02e9  85           add a,l
  02ea  02           ld (bc),a
  02eb  03           inc bc
  02ec  0a           ld a,(bc)
  02ed  8c           adc a,h
  02ee  02           ld (bc),a
  02ef  2a 64 03     ld hl,(0364h)
  02f2  23           inc hl
  02f3  23           inc hl
  02f4  e5           push hl
  02f5  2a 66 03     ld hl,(0366h)
  02f8  23           inc hl
  02f9  23           inc hl
  02fa  c1           pop bc
  02fb  7e           ld a,(hl)
  02fc  02           ld (bc),a
  02fd  23           inc hl
  02fe  7e           ld a,(hl)
  02ff  03           inc bc
  0300  02           ld (bc),a
  0301  21 62 03     ld hl,0362h
  0304  7e           ld a,(hl)
  0305  23           inc hl
  0306  b6           or (hl)
  0307  ca 55 03     jp z,0355h
  030a  2a 62 03     ld hl,(0362h)
  030d  23           inc hl
  030e  23           inc hl
  030f  23           inc hl
  0310  23           inc hl
  0311  e5           push hl
  0312  2a 62 03     ld hl,(0362h)
  0315  7e           ld a,(hl)
  0316  23           inc hl
  0317  66           ld h,(hl)
  0318  6f           ld l,a
  0319  e3           ex (sp),hl
  031a  c1           pop bc
  031b  09           add hl,bc
  031c  e5           push hl
  031d  21 64 03     ld hl,0364h
  0320  c1           pop bc
  0321  79           ld a,c
  0322  be           cp (hl)
  0323  c2 29 03     jp nz,0329h
  0326  78           ld a,b
  0327  23           inc hl
  0328  be           cp (hl)
  0329  c2 55 03     jp nz,0355h
  032c  2a 62 03     ld hl,(0362h)
  032f  e5           push hl
  0330  2a 64 03     ld hl,(0364h)
  0333  7e           ld a,(hl)
  0334  23           inc hl
  0335  66           ld h,(hl)
  0336  6f           ld l,a
  0337  23           inc hl
  0338  23           inc hl
  0339  23           inc hl
  033a  23           inc hl
  033b  c1           pop bc
  033c  0a           ld a,(bc)
  033d  85           add a,l
  033e  02           ld (bc),a
  033f  03           inc bc
  0340  0a           ld a,(bc)
  0341  8c           adc a,h
  0342  02           ld (bc),a
  0343  2a 62 03     ld hl,(0362h)
  0346  23           inc hl
  0347  23           inc hl
  0348  e5           push hl
  0349  2a 64 03     ld hl,(0364h)
  034c  23           inc hl
  034d  23           inc hl
  034e  c1           pop bc
  034f  7e           ld a,(hl)
  0350  02           ld (bc),a
  0351  23           inc hl
  0352  7e           ld a,(hl)
  0353  03           inc bc
  0354  02           ld (bc),a
  0355  c3 00 00     jp _alloc

Data segment: 16 bytes
  0000: 00 00 00 00 00 00 00 00  00 00 00 00 00 00 00 00  |................|

Symbol table: 9 symbols (9-char names)
  Index  Value  Type Seg    Global  Name
  -----  -----  ---- -----  ------  ----
  [  0]  0000   08   ext    yes      c.r4
  [  1]  0000   08   ext    yes      _exit
  [  2]  0000   08   ext    yes      _sbreak
  [  3]  0000   08   ext    yes      _putstr
  [  4]  0000   08   ext    yes      c.rets
  [  5]  0000   08   ext    yes      c.ents
  [  6]  0360   0e   data   yes      __pool
  [  7]  0000   0d   text   yes      _alloc
  [  8]  0197   0d   text   yes      _free

Text relocations:
  Offset  Type        Target
  ------  ----        ------
  0001    word        symbol[5]
  000c    word        symbol[0]
  000f    word        symbol[0]
  0015    word        text segment
  0018    word        symbol[0]
  001c    word        symbol[0]
  001f    word        symbol[0]
  0024    word        symbol[0]
  0029    word        text segment
  002f    word        text segment
  0032    word        symbol[0]
  0039    word        symbol[0]
  003c    word        data segment
  0042    word        text segment
  0049    word        symbol[2]
  004f    word        data segment
  0052    word        data segment
  0058    word        text segment
  005e    word        symbol[4]
  0061    word        data segment
  006b    word        data segment
  0071    word        text segment
  0076    word        data segment
  0079    word        data segment
  007c    word        data segment
  007f    word        data segment
  0082    word        data segment
  0088    word        text segment
  008b    word        data segment
  0095    word        symbol[0]
  009e    word        text segment
  00a1    word        data segment
  00a7    word        text segment
  00aa    word        data segment
  00b0    word        text segment
  00b3    word        data segment
  00b9    word        data segment
  00c5    word        text segment
  00c8    word        data segment
  00cb    word        data segment
  00ce    word        data segment
  00d7    word        data segment
  00da    word        text segment
  00e1    word        symbol[2]
  00e7    word        data segment
  00ea    word        data segment
  00f0    word        text segment
  00f6    word        symbol[4]
  00f9    word        data segment
  0103    word        data segment
  0109    word        text segment
  010d    word        text segment
  0110    word        data segment
  0119    word        data segment
  011c    word        data segment
  0124    word        symbol[0]
  0133    word        data segment
  0136    word        data segment
  013b    word        data segment
  0140    word        text segment
  0143    word        data segment
  0147    word        symbol[0]
  0151    word        data segment
  0154    word        data segment
  0158    word        data segment
  0164    word        data segment
  0168    word        data segment
  0175    word        data segment
  017b    word        text segment
  017f    word        data segment
  0186    word        symbol[4]
  0198    word        symbol[5]
  01a3    word        symbol[0]
  01a6    word        symbol[0]
  01ac    word        text segment
  01af    word        symbol[4]
  01b2    word        symbol[0]
  01b9    word        data segment
  01bc    word        data segment
  01c5    word        data segment
  01cb    word        text segment
  01ce    word        data segment
  01d1    word        data segment
  01d4    word        symbol[4]
  01d8    word        data segment
  01db    word        data segment
  01de    word        data segment
  01e1    word        data segment
  01e4    word        data segment
  01ea    word        text segment
  01ed    word        data segment
  01f0    word        data segment
  01f4    word        data segment
  01f9    word        text segment
  01fc    word        data segment
  01ff    word        data segment
  0203    word        data segment
  0208    word        text segment
  020b    word        data segment
  020e    word        data segment
  0212    word        text segment
  0215    word        data segment
  021a    word        text segment
  0221    word        text segment
  0229    word        symbol[3]
  0233    word        symbol[1]
  0237    word        text segment
  023a    word        data segment
  023d    word        data segment
  0240    word        data segment
  0249    word        data segment
  024c    word        text segment
  024f    word        data segment
  0255    word        text segment
  0258    word        data segment
  025d    word        data segment
  0261    word        data segment
  0266    word        data segment
  0269    word        data segment
  026c    word        text segment
  026f    word        data segment
  0275    word        text segment
  0278    word        data segment
  0281    word        data segment
  0286    word        data segment
  028a    word        data segment
  028f    word        text segment
  0292    word        data segment
  0297    word        data segment
  029b    word        data segment
  02a0    word        data segment
  02a5    word        data segment
  02a9    word        data segment
  02ae    word        data segment
  02b4    word        text segment
  02b7    word        data segment
  02bf    word        data segment
  02ca    word        data segment
  02d0    word        text segment
  02d6    word        text segment
  02d9    word        data segment
  02dd    word        data segment
  02f0    word        data segment
  02f6    word        data segment
  0302    word        data segment
  0308    word        text segment
  030b    word        data segment
  0313    word        data segment
  031e    word        data segment
  0324    word        text segment
  032a    word        text segment
  032d    word        data segment
  0331    word        data segment
  0344    word        data segment
  034a    word        data segment
  0356    word        symbol[4]

Data relocations:
  Offset  Type        Target
  ------  ----        ------
  (none)

