=== lib/libmd/localtime.o ===

Header:
  Magic:       0x99
  Config:      0x14 little-endian
  Symlen:      9 chars
  Symtab:      216 bytes (18 symbols)
  Text:        590 bytes
  Data:        46 bytes
  BSS:         0 bytes
  Heap:        0 bytes
  Text offset: 0x0000
  Data offset: 0x024e

Disassembly: 590 bytes
_localti:
  0000  cd 00 00     call _localti
  0003  21 f6 ff     ld hl,fff6h
  0006  39           add hl,sp
  0007  f9           ld sp,hl
  0008  21 f6 ff     ld hl,fff6h
  000b  19           add hl,de
  000c  e5           push hl
  000d  21 04 00     ld hl,0004h
  0010  19           add hl,de
  0011  7e           ld a,(hl)
  0012  23           inc hl
  0013  66           ld h,(hl)
  0014  6f           ld l,a
  0015  c1           pop bc
  0016  7e           ld a,(hl)
  0017  02           ld (bc),a
  0018  23           inc hl
  0019  7e           ld a,(hl)
  001a  03           inc bc
  001b  02           ld (bc),a
  001c  23           inc hl
  001d  7e           ld a,(hl)
  001e  03           inc bc
  001f  02           ld (bc),a
  0020  23           inc hl
  0021  7e           ld a,(hl)
  0022  03           inc bc
  0023  02           ld (bc),a
  0024  21 f6 ff     ld hl,fff6h
  0027  19           add hl,de
  0028  e5           push hl
  0029  3a 5b 02     ld a,(025bh)
  002c  87           add a,a
  002d  9f           sbc a,a
  002e  32 00 00     ld (_localti),a
  0031  32 01 00     ld (0001h),a
  0034  3a 5b 02     ld a,(025bh)
  0037  32 03 00     ld (0003h),a
  003a  3a 5a 02     ld a,(_timezon)
  003d  32 02 00     ld (0002h),a
  0040  21 00 00     ld hl,_localti
  0043  e5           push hl
  0044  cd 00 00     call _localti
  0047  f1           pop af
  0048  21 f6 ff     ld hl,fff6h
  004b  19           add hl,de
  004c  23           inc hl
  004d  7e           ld a,(hl)
  004e  b7           or a
  004f  f2 5e 00     jp p,005eh
  0052  21 f6 ff     ld hl,fff6h
  0055  19           add hl,de
  0056  97           sub a
  0057  77           ld (hl),a
  0058  23           inc hl
  0059  77           ld (hl),a
  005a  23           inc hl
  005b  77           ld (hl),a
  005c  23           inc hl
  005d  77           ld (hl),a
  005e  21 f6 ff     ld hl,fff6h
  0061  19           add hl,de
  0062  e5           push hl
  0063  cd 6a 00     call _gmtime
  0066  f1           pop af
  0067  c3 00 00     jp _localti
_gmtime:
  006a  cd 00 00     call _localti
  006d  21 04 00     ld hl,0004h
  0070  19           add hl,de
  0071  7e           ld a,(hl)
  0072  23           inc hl
  0073  66           ld h,(hl)
  0074  6f           ld l,a
  0075  e5           push hl
  0076  e1           pop hl
  0077  01 00 00     ld bc,_localti
  007a  cd 00 00     call _localti
  007d  21 00 00     ld hl,_localti
  0080  e5           push hl
  0081  3e 3c        ld a,3ch
  0083  32 02 00     ld (0002h),a
  0086  87           add a,a
  0087  9f           sbc a,a
  0088  32 03 00     ld (0003h),a
  008b  32 01 00     ld (0001h),a
  008e  32 00 00     ld (_localti),a
  0091  21 00 00     ld hl,_localti
  0094  e5           push hl
  0095  cd 00 00     call _localti
  0098  3e 05        ld a,05h
  009a  87           add a,a
  009b  9f           sbc a,a
  009c  32 00 00     ld (_localti),a
  009f  32 01 00     ld (0001h),a
  00a2  3e 05        ld a,05h
  00a4  32 03 00     ld (0003h),a
  00a7  3e a0        ld a,a0h
  00a9  32 02 00     ld (0002h),a
  00ac  21 00 00     ld hl,_localti
  00af  e5           push hl
  00b0  cd 00 00     call _localti
  00b3  e1           pop hl
  00b4  23           inc hl
  00b5  23           inc hl
  00b6  7e           ld a,(hl)
  00b7  32 60 02     ld (0260h),a
  00ba  23           inc hl
  00bb  7e           ld a,(hl)
  00bc  32 61 02     ld (0261h),a
  00bf  21 04 00     ld hl,0004h
  00c2  19           add hl,de
  00c3  7e           ld a,(hl)
  00c4  23           inc hl
  00c5  66           ld h,(hl)
  00c6  6f           ld l,a
  00c7  e5           push hl
  00c8  e1           pop hl
  00c9  01 00 00     ld bc,_localti
  00cc  cd 00 00     call _localti
  00cf  21 00 00     ld hl,_localti
  00d2  e5           push hl
  00d3  3e 3c        ld a,3ch
  00d5  32 02 00     ld (0002h),a
  00d8  87           add a,a
  00d9  9f           sbc a,a
  00da  32 03 00     ld (0003h),a
  00dd  32 01 00     ld (0001h),a
  00e0  32 00 00     ld (_localti),a
  00e3  21 00 00     ld hl,_localti
  00e6  e5           push hl
  00e7  cd 00 00     call _localti
  00ea  e1           pop hl
  00eb  23           inc hl
  00ec  23           inc hl
  00ed  7e           ld a,(hl)
  00ee  32 66 02     ld (0266h),a
  00f1  23           inc hl
  00f2  7e           ld a,(hl)
  00f3  32 67 02     ld (0267h),a
  00f6  2a 60 02     ld hl,(0260h)
  00f9  e5           push hl
  00fa  21 3c 00     ld hl,003ch
  00fd  e5           push hl
  00fe  cd 00 00     call _localti
  0101  e1           pop hl
  0102  22 68 02     ld (0268h),hl
  0105  2a 60 02     ld hl,(0260h)
  0108  e5           push hl
  0109  21 3c 00     ld hl,003ch
  010c  e5           push hl
  010d  cd 00 00     call _localti
  0110  e1           pop hl
  0111  22 6a 02     ld (026ah),hl
  0114  21 04 00     ld hl,0004h
  0117  19           add hl,de
  0118  7e           ld a,(hl)
  0119  23           inc hl
  011a  66           ld h,(hl)
  011b  6f           ld l,a
  011c  e5           push hl
  011d  e1           pop hl
  011e  01 00 00     ld bc,_localti
  0121  cd 00 00     call _localti
  0124  21 00 00     ld hl,_localti
  0127  e5           push hl
  0128  21 78 02     ld hl,0278h
  012b  e5           push hl
  012c  cd 00 00     call _localti
  012f  e1           pop hl
  0130  23           inc hl
  0131  23           inc hl
  0132  7e           ld a,(hl)
  0133  32 5e 02     ld (025eh),a
  0136  23           inc hl
  0137  7e           ld a,(hl)
  0138  32 5f 02     ld (025fh),a
  013b  2a 5e 02     ld hl,(025eh)
  013e  23           inc hl
  013f  23           inc hl
  0140  23           inc hl
  0141  23           inc hl
  0142  e5           push hl
  0143  21 07 00     ld hl,0007h
  0146  e5           push hl
  0147  cd 00 00     call _localti
  014a  e1           pop hl
  014b  22 72 02     ld (0272h),hl
  014e  2a 5e 02     ld hl,(025eh)
  0151  01 9f 02     ld bc,029fh
  0154  09           add hl,bc
  0155  e5           push hl
  0156  21 b4 05     ld hl,05b4h
  0159  e5           push hl
  015a  cd 00 00     call _localti
  015d  e1           pop hl
  015e  22 64 02     ld (0264h),hl
  0161  2a 5e 02     ld hl,(025eh)
  0164  e5           push hl
  0165  21 64 02     ld hl,0264h
  0168  c1           pop bc
  0169  79           ld a,c
  016a  96           sub (hl)
  016b  4f           ld c,a
  016c  78           ld a,b
  016d  23           inc hl
  016e  9e           sbc a,(hl)
  016f  47           ld b,a
  0170  c5           push bc
  0171  21 6d 01     ld hl,016dh
  0174  e5           push hl
  0175  cd 00 00     call _localti
  0178  e1           pop hl
  0179  22 70 02     ld (0270h),hl
  017c  2a 70 02     ld hl,(0270h)
  017f  e5           push hl
  0180  21 6d 01     ld hl,016dh
  0183  e5           push hl
  0184  cd 00 00     call _localti
  0187  e1           pop hl
  0188  3a 5e 02     ld a,(025eh)
  018b  95           sub l
  018c  32 5e 02     ld (025eh),a
  018f  3a 5f 02     ld a,(025fh)
  0192  9c           sbc a,h
  0193  32 5f 02     ld (025fh),a
  0196  2a 70 02     ld hl,(0270h)
  0199  23           inc hl
  019a  e5           push hl
  019b  21 04 00     ld hl,0004h
  019e  e5           push hl
  019f  cd 00 00     call _localti
  01a2  e1           pop hl
  01a3  3a 5e 02     ld a,(025eh)
  01a6  95           sub l
  01a7  32 5e 02     ld (025eh),a
  01aa  3a 5f 02     ld a,(025fh)
  01ad  9c           sbc a,h
  01ae  32 5f 02     ld (025fh),a
  01b1  2a 5e 02     ld hl,(025eh)
  01b4  22 74 02     ld (0274h),hl
  01b7  2a 74 02     ld hl,(0274h)
  01ba  22 6c 02     ld (026ch),hl
  01bd  2a 70 02     ld hl,(0270h)
  01c0  23           inc hl
  01c1  23           inc hl
  01c2  e5           push hl
  01c3  21 04 00     ld hl,0004h
  01c6  e5           push hl
  01c7  cd 00 00     call _localti
  01ca  e1           pop hl
  01cb  7d           ld a,l
  01cc  b4           or h
  01cd  ca d6 01     jp z,01d6h
  01d0  01 1c 00     ld bc,001ch
  01d3  c3 d9 01     jp 01d9h
  01d6  01 1d 00     ld bc,001dh
  01d9  79           ld a,c
  01da  32 4f 02     ld (024fh),a
  01dd  97           sub a
  01de  32 6e 02     ld (026eh),a
  01e1  32 6f 02     ld (026fh),a
  01e4  21 4e 02     ld hl,_mtab
  01e7  e5           push hl
  01e8  2a 6e 02     ld hl,(026eh)
  01eb  e3           ex (sp),hl
  01ec  c1           pop bc
  01ed  09           add hl,bc
  01ee  7e           ld a,(hl)
  01ef  4f           ld c,a
  01f0  87           add a,a
  01f1  9f           sbc a,a
  01f2  47           ld b,a
  01f3  2a 6c 02     ld hl,(026ch)
  01f6  23           inc hl
  01f7  79           ld a,c
  01f8  95           sub l
  01f9  78           ld a,b
  01fa  9c           sbc a,h
  01fb  f2 31 02     jp p,0231h
  01fe  3a 6e 02     ld a,(026eh)
  0201  d6 0c        sub 0ch
  0203  3a 6f 02     ld a,(026fh)
  0206  de 00        sbc a,00h
  0208  f2 31 02     jp p,0231h
  020b  2a 6e 02     ld hl,(026eh)
  020e  e5           push hl
  020f  2a 6e 02     ld hl,(026eh)
  0212  23           inc hl
  0213  22 6e 02     ld (026eh),hl
  0216  e1           pop hl
  0217  01 4e 02     ld bc,_mtab
  021a  09           add hl,bc
  021b  7e           ld a,(hl)
  021c  4f           ld c,a
  021d  87           add a,a
  021e  9f           sbc a,a
  021f  47           ld b,a
  0220  3a 6c 02     ld a,(026ch)
  0223  91           sub c
  0224  32 6c 02     ld (026ch),a
  0227  3a 6d 02     ld a,(026dh)
  022a  98           sbc a,b
  022b  32 6d 02     ld (026dh),a
  022e  c3 e4 01     jp 01e4h
  0231  2a 6c 02     ld hl,(026ch)
  0234  23           inc hl
  0235  22 6c 02     ld (026ch),hl
  0238  2a 70 02     ld hl,(0270h)
  023b  7d           ld a,l
  023c  c6 46        add a,46h
  023e  6f           ld l,a
  023f  7c           ld a,h
  0240  ce 00        adc a,00h
  0242  67           ld h,a
  0243  22 70 02     ld (0270h),hl
  0246  21 66 02     ld hl,0266h
  0249  4d           ld c,l
  024a  44           ld b,h
  024b  c3 00 00     jp _localti

Data segment: 46 bytes
  0000: 1f 1c 1f 1e 1f 1e 1f 1f  1e 1f 1e 1f 80 70 01 00  |.............p..|
  0010: 00 00 00 00 00 00 00 00  00 00 00 00 00 00 00 00  |................|
  0020: 00 00 00 00 00 00 00 00  00 00 01 00 80 51        |.............Q|

Symbol table: 18 symbols (9-char names)
  Index  Value  Type Seg    Global  Name
  -----  -----  ---- -----  ------  ----
  [  0]  0000   08   ext    yes      c.idiv
  [  1]  0000   08   ext    yes      c.lmod
  [  2]  0000   08   ext    yes      c.imod
  [  3]  0000   08   ext    yes      c.r1
  [  4]  0000   08   ext    yes      c.r0
  [  5]  0000   08   ext    yes      c.ret
  [  6]  0000   08   ext    yes      c.ent
  [  7]  0000   08   ext    yes      c.udiv
  [  8]  0000   08   ext    yes      c.lcpy
  [  9]  0000   08   ext    yes      c.imul
  [ 10]  0000   08   ext    yes      c.lsub
  [ 11]  0000   08   ext    yes      c.umod
  [ 12]  0000   08   ext    yes      c.ldiv
  [ 13]  025a   0e   data   yes      _timezon
  [ 14]  006a   0d   text   yes      _gmtime
  [ 15]  0000   0d   text   yes      _localti
  [ 16]  024e   0e   data   yes      _mtab
  [ 17]  025c   0e   data   yes      _dayligh

Text relocations:
  Offset  Type        Target
  ------  ----        ------
  0001    word        symbol[6]
  002a    word        data segment
  002f    word        symbol[4]
  0032    word        symbol[4]
  0035    word        data segment
  0038    word        symbol[4]
  003b    word        data segment
  003e    word        symbol[4]
  0041    word        symbol[4]
  0045    word        symbol[10]
  0050    word        text segment
  0064    word        text segment
  0068    word        symbol[5]
  006b    word        symbol[6]
  0078    word        symbol[4]
  007b    word        symbol[8]
  007e    word        symbol[4]
  0084    word        symbol[3]
  0089    word        symbol[3]
  008c    word        symbol[3]
  008f    word        symbol[3]
  0092    word        symbol[3]
  0096    word        symbol[12]
  009d    word        symbol[3]
  00a0    word        symbol[3]
  00a5    word        symbol[3]
  00aa    word        symbol[3]
  00ad    word        symbol[3]
  00b1    word        symbol[1]
  00b8    word        data segment
  00bd    word        data segment
  00ca    word        symbol[4]
  00cd    word        symbol[8]
  00d0    word        symbol[4]
  00d6    word        symbol[3]
  00db    word        symbol[3]
  00de    word        symbol[3]
  00e1    word        symbol[3]
  00e4    word        symbol[3]
  00e8    word        symbol[1]
  00ef    word        data segment
  00f4    word        data segment
  00f7    word        data segment
  00ff    word        symbol[11]
  0103    word        data segment
  0106    word        data segment
  010e    word        symbol[7]
  0112    word        data segment
  011f    word        symbol[4]
  0122    word        symbol[8]
  0125    word        symbol[4]
  0129    word        data segment
  012d    word        symbol[12]
  0134    word        data segment
  0139    word        data segment
  013c    word        data segment
  0148    word        symbol[11]
  014c    word        data segment
  014f    word        data segment
  015b    word        symbol[7]
  015f    word        data segment
  0162    word        data segment
  0166    word        data segment
  0176    word        symbol[7]
  017a    word        data segment
  017d    word        data segment
  0185    word        symbol[9]
  0189    word        data segment
  018d    word        data segment
  0190    word        data segment
  0194    word        data segment
  0197    word        data segment
  01a0    word        symbol[0]
  01a4    word        data segment
  01a8    word        data segment
  01ab    word        data segment
  01af    word        data segment
  01b2    word        data segment
  01b5    word        data segment
  01b8    word        data segment
  01bb    word        data segment
  01be    word        data segment
  01c8    word        symbol[2]
  01ce    word        text segment
  01d4    word        text segment
  01db    word        data segment
  01df    word        data segment
  01e2    word        data segment
  01e5    word        data segment
  01e9    word        data segment
  01f4    word        data segment
  01fc    word        text segment
  01ff    word        data segment
  0204    word        data segment
  0209    word        text segment
  020c    word        data segment
  0210    word        data segment
  0214    word        data segment
  0218    word        data segment
  0221    word        data segment
  0225    word        data segment
  0228    word        data segment
  022c    word        data segment
  022f    word        text segment
  0232    word        data segment
  0236    word        data segment
  0239    word        data segment
  0244    word        data segment
  0247    word        data segment
  024c    word        symbol[5]

Data relocations:
  Offset  Type        Target
  ------  ----        ------
  (none)

