=== lib/libmd/ttyname.o ===

Header:
  Magic:       0x99
  Config:      0x14 little-endian
  Symlen:      9 chars
  Symtab:      132 bytes (11 symbols)
  Text:        361 bytes
  Data:        23 bytes
  BSS:         0 bytes
  Heap:        0 bytes
  Text offset: 0x0000
  Data offset: 0x0169

Disassembly: 361 bytes
_ttyname:
  0000  cd 00 00     call _ttyname
  0003  21 04 00     ld hl,0004h
  0006  19           add hl,de
  0007  4e           ld c,(hl)
  0008  23           inc hl
  0009  46           ld b,(hl)
  000a  c5           push bc
  000b  cd 22 00     call 0022h
  000e  f1           pop af
  000f  2a 7d 01     ld hl,(017dh)
  0012  4d           ld c,l
  0013  44           ld b,h
  0014  c3 00 00     jp _ttyname
  0017  2f           cpl
  0018  64           ld h,h
  0019  65           ld h,l
  001a  76           halt
  001b  2f           cpl
  001c  00           nop
  001d  2f           cpl
  001e  64           ld h,h
  001f  65           ld h,l
  0020  76           halt
  0021  00           nop
  0022  cd 00 00     call _ttyname
  0025  21 92 ff     ld hl,ff92h
  0028  39           add hl,sp
  0029  f9           ld sp,hl
  002a  97           sub a
  002b  32 7d 01     ld (017dh),a
  002e  32 7e 01     ld (017eh),a
  0031  97           sub a
  0032  32 7b 01     ld (017bh),a
  0035  32 7c 01     ld (017ch),a
  0038  21 d6 ff     ld hl,ffd6h
  003b  19           add hl,de
  003c  e5           push hl
  003d  21 04 00     ld hl,0004h
  0040  19           add hl,de
  0041  4e           ld c,(hl)
  0042  23           inc hl
  0043  46           ld b,(hl)
  0044  c5           push bc
  0045  cd 00 00     call _ttyname
  0048  f1           pop af
  0049  f1           pop af
  004a  78           ld a,b
  004b  b7           or a
  004c  f2 52 00     jp p,0052h
  004f  c3 00 00     jp _ttyname
  0052  21 00 00     ld hl,_ttyname
  0055  e5           push hl
  0056  21 1d 00     ld hl,001dh
  0059  e5           push hl
  005a  cd 00 00     call _ttyname
  005d  f1           pop af
  005e  f1           pop af
  005f  79           ld a,c
  0060  32 7f 01     ld (017fh),a
  0063  3a 7f 01     ld a,(017fh)
  0066  b7           or a
  0067  f2 6d 00     jp p,006dh
  006a  c3 00 00     jp _ttyname
  006d  3e 01        ld a,01h
  006f  32 7b 01     ld (017bh),a
  0072  87           add a,a
  0073  9f           sbc a,a
  0074  32 7c 01     ld (017ch),a
  0077  21 6b 01     ld hl,016bh
  007a  22 7d 01     ld (017dh),hl
  007d  21 10 00     ld hl,0010h
  0080  e5           push hl
  0081  21 69 01     ld hl,0169h
  0084  e5           push hl
  0085  3a 7f 01     ld a,(017fh)
  0088  4f           ld c,a
  0089  87           add a,a
  008a  9f           sbc a,a
  008b  47           ld b,a
  008c  c5           push bc
  008d  cd 00 00     call _ttyname
  0090  f1           pop af
  0091  f1           pop af
  0092  f1           pop af
  0093  79           ld a,c
  0094  fe 10        cp 10h
  0096  c2 9c 00     jp nz,009ch
  0099  78           ld a,b
  009a  fe 00        cp 00h
  009c  ca ba 00     jp z,00bah
  009f  97           sub a
  00a0  32 7b 01     ld (017bh),a
  00a3  32 7c 01     ld (017ch),a
  00a6  97           sub a
  00a7  32 7d 01     ld (017dh),a
  00aa  32 7e 01     ld (017eh),a
  00ad  c3 23 01     jp 0123h
  00b0  2a 7b 01     ld hl,(017bh)
  00b3  23           inc hl
  00b4  22 7b 01     ld (017bh),hl
  00b7  c3 7d 00     jp 007dh
  00ba  21 69 01     ld hl,0169h
  00bd  7e           ld a,(hl)
  00be  23           inc hl
  00bf  b6           or (hl)
  00c0  ca b0 00     jp z,00b0h
  00c3  21 00 00     ld hl,_ttyname
  00c6  e5           push hl
  00c7  21 6b 01     ld hl,016bh
  00ca  e5           push hl
  00cb  21 17 00     ld hl,0017h
  00ce  e5           push hl
  00cf  21 92 ff     ld hl,ff92h
  00d2  19           add hl,de
  00d3  e5           push hl
  00d4  cd 00 00     call _ttyname
  00d7  f1           pop af
  00d8  f1           pop af
  00d9  f1           pop af
  00da  f1           pop af
  00db  21 b2 ff     ld hl,ffb2h
  00de  19           add hl,de
  00df  e5           push hl
  00e0  21 92 ff     ld hl,ff92h
  00e3  19           add hl,de
  00e4  e5           push hl
  00e5  cd 00 00     call _ttyname
  00e8  f1           pop af
  00e9  f1           pop af
  00ea  78           ld a,b
  00eb  b7           or a
  00ec  fa b0 00     jp m,00b0h
  00ef  21 d8 ff     ld hl,ffd8h
  00f2  19           add hl,de
  00f3  e5           push hl
  00f4  21 b4 ff     ld hl,ffb4h
  00f7  19           add hl,de
  00f8  c1           pop bc
  00f9  0a           ld a,(bc)
  00fa  be           cp (hl)
  00fb  c2 02 01     jp nz,0102h
  00fe  03           inc bc
  00ff  0a           ld a,(bc)
  0100  23           inc hl
  0101  be           cp (hl)
  0102  c2 b0 00     jp nz,00b0h
  0105  21 d7 ff     ld hl,ffd7h
  0108  19           add hl,de
  0109  e5           push hl
  010a  21 b3 ff     ld hl,ffb3h
  010d  19           add hl,de
  010e  c1           pop bc
  010f  0a           ld a,(bc)
  0110  be           cp (hl)
  0111  c2 b0 00     jp nz,00b0h
  0114  21 d6 ff     ld hl,ffd6h
  0117  19           add hl,de
  0118  e5           push hl
  0119  21 b2 ff     ld hl,ffb2h
  011c  19           add hl,de
  011d  c1           pop bc
  011e  0a           ld a,(bc)
  011f  be           cp (hl)
  0120  c2 b0 00     jp nz,00b0h
  0123  3a 7f 01     ld a,(017fh)
  0126  4f           ld c,a
  0127  87           add a,a
  0128  9f           sbc a,a
  0129  47           ld b,a
  012a  c5           push bc
  012b  cd 00 00     call _ttyname
  012e  f1           pop af
  012f  c3 00 00     jp _ttyname
_ttyslot:
  0132  cd 00 00     call _ttyname
  0135  21 00 00     ld hl,_ttyname
  0138  e5           push hl
  0139  cd 22 00     call 0022h
  013c  f1           pop af
  013d  2a 7b 01     ld hl,(017bh)
  0140  4d           ld c,l
  0141  44           ld b,h
  0142  c3 00 00     jp _ttyname
_isatty:
  0145  cd 00 00     call _ttyname
  0148  21 04 00     ld hl,0004h
  014b  19           add hl,de
  014c  4e           ld c,(hl)
  014d  23           inc hl
  014e  46           ld b,(hl)
  014f  c5           push bc
  0150  cd 22 00     call 0022h
  0153  f1           pop af
  0154  21 7b 01     ld hl,017bh
  0157  7e           ld a,(hl)
  0158  23           inc hl
  0159  b6           or (hl)
  015a  ca 63 01     jp z,0163h
  015d  01 01 00     ld bc,0001h
  0160  c3 66 01     jp 0166h
  0163  01 00 00     ld bc,_ttyname
  0166  c3 00 00     jp _ttyname

Data segment: 23 bytes
  0000: 00 00 00 00 00 00 00 00  00 00 00 00 00 00 00 00  |................|
  0010: 00 00 00 00 00 00 00                              |.......|

Symbol table: 11 symbols (9-char names)
  Index  Value  Type Seg    Global  Name
  -----  -----  ---- -----  ------  ----
  [  0]  0000   08   ext    yes      _read
  [  1]  0000   08   ext    yes      _close
  [  2]  0000   08   ext    yes      c.ret
  [  3]  0000   08   ext    yes      _stat
  [  4]  0000   08   ext    yes      c.ent
  [  5]  0000   08   ext    yes      _open
  [  6]  0000   08   ext    yes      _cpystr
  [  7]  0000   08   ext    yes      _fstat
  [  8]  0145   0d   text   yes      _isatty
  [  9]  0000   0d   text   yes      _ttyname
  [ 10]  0132   0d   text   yes      _ttyslot

Text relocations:
  Offset  Type        Target
  ------  ----        ------
  0001    word        symbol[4]
  000c    word        text segment
  0010    word        data segment
  0015    word        symbol[2]
  0023    word        symbol[4]
  002c    word        data segment
  002f    word        data segment
  0033    word        data segment
  0036    word        data segment
  0046    word        symbol[7]
  004d    word        text segment
  0050    word        symbol[2]
  0057    word        text segment
  005b    word        symbol[5]
  0061    word        data segment
  0064    word        data segment
  0068    word        text segment
  006b    word        symbol[2]
  0070    word        data segment
  0075    word        data segment
  0078    word        data segment
  007b    word        data segment
  0082    word        data segment
  0086    word        data segment
  008e    word        symbol[0]
  0097    word        text segment
  009d    word        text segment
  00a1    word        data segment
  00a4    word        data segment
  00a8    word        data segment
  00ab    word        data segment
  00ae    word        text segment
  00b1    word        data segment
  00b5    word        data segment
  00b8    word        text segment
  00bb    word        data segment
  00c1    word        text segment
  00c8    word        data segment
  00cc    word        text segment
  00d5    word        symbol[6]
  00e6    word        symbol[3]
  00ed    word        text segment
  00fc    word        text segment
  0103    word        text segment
  0112    word        text segment
  0121    word        text segment
  0124    word        data segment
  012c    word        symbol[1]
  0130    word        symbol[2]
  0133    word        symbol[4]
  013a    word        text segment
  013e    word        data segment
  0143    word        symbol[2]
  0146    word        symbol[4]
  0151    word        text segment
  0155    word        data segment
  015b    word        text segment
  0161    word        text segment
  0167    word        symbol[2]

Data relocations:
  Offset  Type        Target
  ------  ----        ------
  (none)

