=== lib/libwsc/arctan.o ===

Header:
  Magic:       0x99
  Config:      0x14 little-endian
  Symlen:      9 chars
  Symtab:      204 bytes (17 symbols)
  Text:        428 bytes
  Data:        168 bytes
  BSS:         0 bytes
  Heap:        0 bytes
  Text offset: 0x0000
  Data offset: 0x01ac

Disassembly: 428 bytes
_arctan:
  0000  cd 00 00     call _arctan
  0003  21 f0 ff     ld hl,fff0h
  0006  39           add hl,sp
  0007  f9           ld sp,hl
  0008  21 04 00     ld hl,0004h
  000b  19           add hl,de
  000c  23           inc hl
  000d  7e           ld a,(hl)
  000e  b7           or a
  000f  f2 47 00     jp p,0047h
  0012  21 04 00     ld hl,0004h
  0015  19           add hl,de
  0016  e5           push hl
  0017  e1           pop hl
  0018  01 00 00     ld bc,_arctan
  001b  cd 00 00     call _arctan
  001e  21 00 00     ld hl,_arctan
  0021  e5           push hl
  0022  cd 00 00     call _arctan
  0025  e1           pop hl
  0026  01 08 00     ld bc,0008h
  0029  09           add hl,bc
  002a  3e 04        ld a,04h
  002c  2b           dec hl
  002d  46           ld b,(hl)
  002e  2b           dec hl
  002f  4e           ld c,(hl)
  0030  c5           push bc
  0031  3d           dec a
  0032  c2 2c 00     jp nz,002ch
  0035  cd 00 00     call _arctan
  0038  f1           pop af
  0039  f1           pop af
  003a  f1           pop af
  003b  f1           pop af
  003c  21 00 00     ld hl,_arctan
  003f  e5           push hl
  0040  cd 00 00     call _arctan
  0043  f1           pop af
  0044  c3 00 00     jp _arctan
  0047  21 24 02     ld hl,0224h
  004a  e5           push hl
  004b  21 04 00     ld hl,0004h
  004e  19           add hl,de
  004f  e5           push hl
  0050  cd 00 00     call _arctan
  0053  fa 56 01     jp m,0156h
  0056  21 00 00     ld hl,_arctan
  0059  e5           push hl
  005a  21 2c 02     ld hl,022ch
  005d  e5           push hl
  005e  e1           pop hl
  005f  01 00 00     ld bc,_arctan
  0062  cd 00 00     call _arctan
  0065  21 00 00     ld hl,_arctan
  0068  e5           push hl
  0069  21 04 00     ld hl,0004h
  006c  19           add hl,de
  006d  e5           push hl
  006e  cd 00 00     call _arctan
  0071  cd 00 00     call _arctan
  0074  f1           pop af
  0075  2a 00 00     ld hl,(_arctan)
  0078  01 01 00     ld bc,0001h
  007b  09           add hl,bc
  007c  7c           ld a,h
  007d  b7           or a
  007e  1f           rra
  007f  67           ld h,a
  0080  7d           ld a,l
  0081  1f           rra
  0082  6f           ld l,a
  0083  22 00 00     ld (_arctan),hl
  0086  21 f2 ff     ld hl,fff2h
  0089  19           add hl,de
  008a  e5           push hl
  008b  21 00 00     ld hl,_arctan
  008e  e5           push hl
  008f  2a 00 00     ld hl,(_arctan)
  0092  e5           push hl
  0093  cd 00 00     call _arctan
  0096  21 34 02     ld hl,0234h
  0099  e5           push hl
  009a  cd 00 00     call _arctan
  009d  cd 00 00     call _arctan
  00a0  f1           pop af
  00a1  21 04 00     ld hl,0004h
  00a4  19           add hl,de
  00a5  e5           push hl
  00a6  21 04 00     ld hl,0004h
  00a9  19           add hl,de
  00aa  e5           push hl
  00ab  e1           pop hl
  00ac  01 00 00     ld bc,_arctan
  00af  cd 00 00     call _arctan
  00b2  21 00 00     ld hl,_arctan
  00b5  e5           push hl
  00b6  21 f2 ff     ld hl,fff2h
  00b9  19           add hl,de
  00ba  e5           push hl
  00bb  cd 00 00     call _arctan
  00be  21 04 00     ld hl,0004h
  00c1  19           add hl,de
  00c2  e5           push hl
  00c3  e1           pop hl
  00c4  01 00 00     ld bc,_arctan
  00c7  cd 00 00     call _arctan
  00ca  21 00 00     ld hl,_arctan
  00cd  e5           push hl
  00ce  21 f2 ff     ld hl,fff2h
  00d1  19           add hl,de
  00d2  e5           push hl
  00d3  cd 00 00     call _arctan
  00d6  21 3c 02     ld hl,023ch
  00d9  e5           push hl
  00da  cd 00 00     call _arctan
  00dd  cd 00 00     call _arctan
  00e0  cd 00 00     call _arctan
  00e3  f1           pop af
  00e4  2a 00 00     ld hl,(_arctan)
  00e7  29           add hl,hl
  00e8  29           add hl,hl
  00e9  29           add hl,hl
  00ea  01 ac 01     ld bc,01ach
  00ed  09           add hl,bc
  00ee  e5           push hl
  00ef  e1           pop hl
  00f0  01 00 00     ld bc,_arctan
  00f3  cd 00 00     call _arctan
  00f6  21 00 00     ld hl,_arctan
  00f9  e5           push hl
  00fa  21 ea ff     ld hl,ffeah
  00fd  19           add hl,de
  00fe  4d           ld c,l
  00ff  44           ld b,h
  0100  e1           pop hl
  0101  c5           push bc
  0102  cd 00 00     call _arctan
  0105  21 05 00     ld hl,0005h
  0108  e5           push hl
  0109  21 f4 01     ld hl,01f4h
  010c  e5           push hl
  010d  21 04 00     ld hl,0004h
  0110  19           add hl,de
  0111  e5           push hl
  0112  e1           pop hl
  0113  01 00 00     ld bc,_arctan
  0116  cd 00 00     call _arctan
  0119  21 00 00     ld hl,_arctan
  011c  e5           push hl
  011d  21 04 00     ld hl,0004h
  0120  19           add hl,de
  0121  e5           push hl
  0122  cd 00 00     call _arctan
  0125  e1           pop hl
  0126  01 08 00     ld bc,0008h
  0129  09           add hl,bc
  012a  3e 04        ld a,04h
  012c  2b           dec hl
  012d  46           ld b,(hl)
  012e  2b           dec hl
  012f  4e           ld c,(hl)
  0130  c5           push bc
  0131  3d           dec a
  0132  c2 2c 01     jp nz,012ch
  0135  cd 00 00     call _arctan
  0138  21 0c 00     ld hl,000ch
  013b  39           add hl,sp
  013c  f9           ld sp,hl
  013d  21 00 00     ld hl,_arctan
  0140  e5           push hl
  0141  21 04 00     ld hl,0004h
  0144  19           add hl,de
  0145  e5           push hl
  0146  cd 00 00     call _arctan
  0149  cd 00 00     call _arctan
  014c  e1           pop hl
  014d  01 00 00     ld bc,_arctan
  0150  cd 00 00     call _arctan
  0153  c3 00 00     jp _arctan
  0156  21 04 00     ld hl,0004h
  0159  19           add hl,de
  015a  e5           push hl
  015b  21 44 02     ld hl,0244h
  015e  e5           push hl
  015f  e1           pop hl
  0160  01 00 00     ld bc,_arctan
  0163  cd 00 00     call _arctan
  0166  21 00 00     ld hl,_arctan
  0169  e5           push hl
  016a  21 04 00     ld hl,0004h
  016d  19           add hl,de
  016e  e5           push hl
  016f  cd 00 00     call _arctan
  0172  e1           pop hl
  0173  01 08 00     ld bc,0008h
  0176  09           add hl,bc
  0177  3e 04        ld a,04h
  0179  2b           dec hl
  017a  46           ld b,(hl)
  017b  2b           dec hl
  017c  4e           ld c,(hl)
  017d  c5           push bc
  017e  3d           dec a
  017f  c2 79 01     jp nz,0179h
  0182  cd 00 00     call _arctan
  0185  f1           pop af
  0186  f1           pop af
  0187  f1           pop af
  0188  f1           pop af
  0189  21 00 00     ld hl,_arctan
  018c  e5           push hl
  018d  cd 00 00     call _arctan
  0190  f1           pop af
  0191  21 4c 02     ld hl,024ch
  0194  e5           push hl
  0195  e1           pop hl
  0196  01 00 00     ld bc,_arctan
  0199  cd 00 00     call _arctan
  019c  21 00 00     ld hl,_arctan
  019f  e5           push hl
  01a0  21 04 00     ld hl,0004h
  01a3  19           add hl,de
  01a4  e5           push hl
  01a5  cd 00 00     call _arctan
  01a8  f1           pop af
  01a9  c3 00 00     jp _arctan

Data segment: 168 bytes
  0000: 00 00 00 00 00 00 00 00  fe 3e d4 ad 61 d5 6f 7b  |.........>..a.o{|
  0010: 7a 3f af db 64 c9 eb 06  b7 3f ca b0 26 0f 84 f7  |z?..d....?..&...|
  0020: ed 3f 38 63 0d 2b 7c da  0f 40 5d 00 f7 5e a0 f5  |.?8c.+|..@]..^..|
  0030: 24 40 7d bc 34 19 08 f7  38 40 3e 05 c2 2b 9d 31  |$@}.4...8@>..+.1|
  0040: 49 40 da 0f 21 a2 c2 68  b8 be 8b 2e ea a2 68 32  |I@..!..h......h2|
  0050: e3 3e b8 8b 8e e3 ba 3a  12 bf 23 49 49 d2 92 24  |.>.....:..#II..$|
  0060: 4c 3f cc cc 94 cc cd cc  aa bf aa aa aa aa 2b a7  |L?............+.|
  0070: 80 40 00 00 00 00 01 00  80 40 00 00 00 00 00 00  |.@.......@......|
  0080: 80 42 00 00 00 00 00 00  00 3f 00 00 00 00 00 00  |.B.......?......|
  0090: 80 40 00 00 00 00 00 00  80 40 00 00 00 00 00 00  |.@.......@......|
  00a0: c9 40 da 0f 21 a2 c2 68                           |.@..!..h|

Symbol table: 17 symbols (9-char names)
  Index  Value  Type Seg    Global  Name
  -----  -----  ---- -----  ------  ----
  [  0]  0000   08   ext    yes      c.dsub
  [  1]  0000   08   ext    yes      c.ddiv
  [  2]  0000   08   ext    yes      c.r4
  [  3]  0000   08   ext    yes      c.dcmp
  [  4]  0000   08   ext    yes      c.r1
  [  5]  0000   08   ext    yes      c.r0
  [  6]  0000   08   ext    yes      c.dneg
  [  7]  0000   08   ext    yes      c.dadd
  [  8]  0000   08   ext    yes      c.utd
  [  9]  0000   08   ext    yes      c.dti
  [ 10]  0000   08   ext    yes      c.rets
  [ 11]  0000   08   ext    yes      c.dtd
  [ 12]  0000   08   ext    yes      c.ents
  [ 13]  0000   08   ext    yes      c.dmul
  [ 14]  0000   08   ext    yes      __poly
  [ 15]  0000   08   ext    yes      c.dcpy
  [ 16]  0000   0d   text   yes      _arctan

Text relocations:
  Offset  Type        Target
  ------  ----        ------
  0001    word        symbol[12]
  0010    word        text segment
  0019    word        symbol[5]
  001c    word        symbol[15]
  001f    word        symbol[5]
  0023    word        symbol[6]
  0033    word        text segment
  0036    word        text segment
  003d    word        symbol[5]
  0041    word        symbol[6]
  0045    word        symbol[10]
  0048    word        data segment
  0051    word        symbol[3]
  0054    word        text segment
  0057    word        symbol[2]
  005b    word        data segment
  0060    word        symbol[5]
  0063    word        symbol[15]
  0066    word        symbol[5]
  006f    word        symbol[13]
  0072    word        symbol[9]
  0076    word        symbol[2]
  0084    word        symbol[2]
  008c    word        symbol[5]
  0090    word        symbol[2]
  0094    word        symbol[8]
  0097    word        data segment
  009b    word        symbol[13]
  009e    word        symbol[11]
  00ad    word        symbol[5]
  00b0    word        symbol[15]
  00b3    word        symbol[5]
  00bc    word        symbol[0]
  00c5    word        symbol[4]
  00c8    word        symbol[15]
  00cb    word        symbol[4]
  00d4    word        symbol[13]
  00d7    word        data segment
  00db    word        symbol[7]
  00de    word        symbol[1]
  00e1    word        symbol[11]
  00e5    word        symbol[2]
  00eb    word        data segment
  00f1    word        symbol[5]
  00f4    word        symbol[15]
  00f7    word        symbol[5]
  0103    word        symbol[15]
  010a    word        data segment
  0114    word        symbol[5]
  0117    word        symbol[15]
  011a    word        symbol[5]
  0123    word        symbol[13]
  0133    word        text segment
  0136    word        symbol[14]
  013e    word        symbol[5]
  0147    word        symbol[13]
  014a    word        symbol[7]
  014e    word        symbol[5]
  0151    word        symbol[15]
  0154    word        symbol[10]
  015c    word        data segment
  0161    word        symbol[5]
  0164    word        symbol[15]
  0167    word        symbol[5]
  0170    word        symbol[1]
  0180    word        text segment
  0183    word        text segment
  018a    word        symbol[5]
  018e    word        symbol[11]
  0192    word        data segment
  0197    word        symbol[5]
  019a    word        symbol[15]
  019d    word        symbol[5]
  01a6    word        symbol[0]
  01aa    word        symbol[10]

Data relocations:
  Offset  Type        Target
  ------  ----        ------
  (none)

