=== lib/libwsc/cgetf.o ===

Header:
  Magic:       0x99
  Config:      0x14 little-endian
  Symlen:      9 chars
  Symtab:      216 bytes (18 symbols)
  Text:        2622 bytes
  Data:        0 bytes
  BSS:         0 bytes
  Heap:        0 bytes
  Text offset: 0x0000
  Data offset: 0x0a3e

Disassembly: 2622 bytes
  0000  cd 00 00     call 0000h
  0003  21 04 00     ld hl,0004h
  0006  19           add hl,de
  0007  7e           ld a,(hl)
  0008  23           inc hl
  0009  66           ld h,(hl)
  000a  6f           ld l,a
  000b  22 00 00     ld (0000h),hl
  000e  21 06 00     ld hl,0006h
  0011  19           add hl,de
  0012  7e           ld a,(hl)
  0013  23           inc hl
  0014  66           ld h,(hl)
  0015  6f           ld l,a
  0016  22 00 00     ld (0000h),hl
  0019  21 08 00     ld hl,0008h
  001c  19           add hl,de
  001d  7e           ld a,(hl)
  001e  23           inc hl
  001f  66           ld h,(hl)
  0020  6f           ld l,a
  0021  22 00 00     ld (0000h),hl
  0024  2a 00 00     ld hl,(0000h)
  0027  7e           ld a,(hl)
  0028  fe 6e        cp 6eh
  002a  ca 36 00     jp z,0036h
  002d  2a 00 00     ld hl,(0000h)
  0030  7e           ld a,(hl)
  0031  fe 4e        cp 4eh
  0033  c2 67 00     jp nz,0067h
  0036  2a 00 00     ld hl,(0000h)
  0039  23           inc hl
  003a  22 00 00     ld (0000h),hl
  003d  2a 00 00     ld hl,(0000h)
  0040  e5           push hl
  0041  2a 00 00     ld hl,(0000h)
  0044  4e           ld c,(hl)
  0045  23           inc hl
  0046  46           ld b,(hl)
  0047  c5           push bc
  0048  2a 00 00     ld hl,(0000h)
  004b  7e           ld a,(hl)
  004c  c6 02        add a,02h
  004e  77           ld (hl),a
  004f  23           inc hl
  0050  7e           ld a,(hl)
  0051  ce 00        adc a,00h
  0053  77           ld (hl),a
  0054  e1           pop hl
  0055  7e           ld a,(hl)
  0056  23           inc hl
  0057  66           ld h,(hl)
  0058  6f           ld l,a
  0059  c1           pop bc
  005a  7d           ld a,l
  005b  02           ld (bc),a
  005c  7c           ld a,h
  005d  03           inc bc
  005e  02           ld (bc),a
  005f  2a 00 00     ld hl,(0000h)
  0062  4d           ld c,l
  0063  44           ld b,h
  0064  c3 00 00     jp 0000h
  0067  2a 00 00     ld hl,(0000h)
  006a  97           sub a
  006b  77           ld (hl),a
  006c  23           inc hl
  006d  77           ld (hl),a
  006e  2a 00 00     ld hl,(0000h)
  0071  7e           ld a,(hl)
  0072  fe 30        cp 30h
  0074  da 5f 00     jp c,005fh
  0077  2a 00 00     ld hl,(0000h)
  007a  3e 39        ld a,39h
  007c  be           cp (hl)
  007d  da 5f 00     jp c,005fh
  0080  2a 00 00     ld hl,(0000h)
  0083  e5           push hl
  0084  2a 00 00     ld hl,(0000h)
  0087  7e           ld a,(hl)
  0088  4f           ld c,a
  0089  97           sub a
  008a  47           ld b,a
  008b  2a 00 00     ld hl,(0000h)
  008e  7e           ld a,(hl)
  008f  23           inc hl
  0090  66           ld h,(hl)
  0091  6f           ld l,a
  0092  c5           push bc
  0093  4d           ld c,l
  0094  44           ld b,h
  0095  29           add hl,hl
  0096  29           add hl,hl
  0097  09           add hl,bc
  0098  29           add hl,hl
  0099  c1           pop bc
  009a  09           add hl,bc
  009b  01 d0 ff     ld bc,ffd0h
  009e  09           add hl,bc
  009f  c1           pop bc
  00a0  7d           ld a,l
  00a1  02           ld (bc),a
  00a2  7c           ld a,h
  00a3  03           inc bc
  00a4  02           ld (bc),a
  00a5  2a 00 00     ld hl,(0000h)
  00a8  23           inc hl
  00a9  22 00 00     ld (0000h),hl
  00ac  c3 6e 00     jp 006eh
__getf:
  00af  cd 00 00     call 0000h
  00b2  21 dc fd     ld hl,fddch
  00b5  39           add hl,sp
  00b6  f9           ld sp,hl
  00b7  21 08 00     ld hl,0008h
  00ba  19           add hl,de
  00bb  7e           ld a,(hl)
  00bc  23           inc hl
  00bd  66           ld h,(hl)
  00be  6f           ld l,a
  00bf  7e           ld a,(hl)
  00c0  b7           or a
  00c1  c2 ca 00     jp nz,00cah
  00c4  01 00 00     ld bc,0000h
  00c7  c3 00 00     jp 0000h
  00ca  21 f0 ff     ld hl,fff0h
  00cd  19           add hl,de
  00ce  e5           push hl
  00cf  21 00 02     ld hl,0200h
  00d2  e5           push hl
  00d3  21 d6 fd     ld hl,fdd6h
  00d6  19           add hl,de
  00d7  22 00 00     ld (0000h),hl
  00da  2a 00 00     ld hl,(0000h)
  00dd  e5           push hl
  00de  21 06 00     ld hl,0006h
  00e1  19           add hl,de
  00e2  4e           ld c,(hl)
  00e3  23           inc hl
  00e4  46           ld b,(hl)
  00e5  c5           push bc
  00e6  21 04 00     ld hl,0004h
  00e9  19           add hl,de
  00ea  7e           ld a,(hl)
  00eb  23           inc hl
  00ec  66           ld h,(hl)
  00ed  6f           ld l,a
  00ee  cd 00 00     call 0000h
  00f1  f1           pop af
  00f2  f1           pop af
  00f3  f1           pop af
  00f4  e1           pop hl
  00f5  79           ld a,c
  00f6  77           ld (hl),a
  00f7  78           ld a,b
  00f8  23           inc hl
  00f9  77           ld (hl),a
  00fa  2b           dec hl
  00fb  97           sub a
  00fc  96           sub (hl)
  00fd  3e 00        ld a,00h
  00ff  23           inc hl
  0100  9e           sbc a,(hl)
  0101  fa 0a 01     jp m,010ah
  0104  01 ff ff     ld bc,ffffh
  0107  c3 00 00     jp 0000h
  010a  21 f4 ff     ld hl,fff4h
  010d  19           add hl,de
  010e  97           sub a
  010f  77           ld (hl),a
  0110  23           inc hl
  0111  77           ld (hl),a
  0112  21 08 00     ld hl,0008h
  0115  19           add hl,de
  0116  7e           ld a,(hl)
  0117  23           inc hl
  0118  66           ld h,(hl)
  0119  6f           ld l,a
  011a  22 00 00     ld (0000h),hl
  011d  2a 00 00     ld hl,(0000h)
  0120  7e           ld a,(hl)
  0121  b7           or a
  0122  ca 54 01     jp z,0154h
  0125  2a 00 00     ld hl,(0000h)
  0128  7e           ld a,(hl)
  0129  fe 25        cp 25h
  012b  ca 54 01     jp z,0154h
  012e  2a 00 00     ld hl,(0000h)
  0131  7e           ld a,(hl)
  0132  fe 0a        cp 0ah
  0134  ca 54 01     jp z,0154h
  0137  2a 00 00     ld hl,(0000h)
  013a  e5           push hl
  013b  2a 00 00     ld hl,(0000h)
  013e  c1           pop bc
  013f  0a           ld a,(bc)
  0140  be           cp (hl)
  0141  c2 69 01     jp nz,0169h
  0144  21 f0 ff     ld hl,fff0h
  0147  19           add hl,de
  0148  97           sub a
  0149  96           sub (hl)
  014a  3e 00        ld a,00h
  014c  23           inc hl
  014d  9e           sbc a,(hl)
  014e  fa 76 01     jp m,0176h
  0151  c3 69 01     jp 0169h
  0154  2a 00 00     ld hl,(0000h)
  0157  7e           ld a,(hl)
  0158  b7           or a
  0159  c2 94 01     jp nz,0194h
  015c  21 f4 ff     ld hl,fff4h
  015f  19           add hl,de
  0160  7e           ld a,(hl)
  0161  23           inc hl
  0162  66           ld h,(hl)
  0163  6f           ld l,a
  0164  4d           ld c,l
  0165  44           ld b,h
  0166  c3 00 00     jp 0000h
  0169  21 f4 ff     ld hl,fff4h
  016c  19           add hl,de
  016d  7e           ld a,(hl)
  016e  23           inc hl
  016f  66           ld h,(hl)
  0170  6f           ld l,a
  0171  4d           ld c,l
  0172  44           ld b,h
  0173  c3 00 00     jp 0000h
  0176  2a 00 00     ld hl,(0000h)
  0179  23           inc hl
  017a  22 00 00     ld (0000h),hl
  017d  21 f0 ff     ld hl,fff0h
  0180  19           add hl,de
  0181  7e           ld a,(hl)
  0182  d6 01        sub 01h
  0184  77           ld (hl),a
  0185  23           inc hl
  0186  7e           ld a,(hl)
  0187  de 00        sbc a,00h
  0189  77           ld (hl),a
  018a  2a 00 00     ld hl,(0000h)
  018d  23           inc hl
  018e  22 00 00     ld (0000h),hl
  0191  c3 1d 01     jp 011dh
  0194  2a 00 00     ld hl,(0000h)
  0197  7e           ld a,(hl)
  0198  fe 0a        cp 0ah
  019a  c2 05 02     jp nz,0205h
  019d  21 f0 ff     ld hl,fff0h
  01a0  19           add hl,de
  01a1  97           sub a
  01a2  77           ld (hl),a
  01a3  23           inc hl
  01a4  77           ld (hl),a
  01a5  2a 00 00     ld hl,(0000h)
  01a8  01 01 00     ld bc,0001h
  01ab  09           add hl,bc
  01ac  7e           ld a,(hl)
  01ad  b7           or a
  01ae  ca 5f 07     jp z,075fh
  01b1  21 f0 ff     ld hl,fff0h
  01b4  19           add hl,de
  01b5  e5           push hl
  01b6  21 00 02     ld hl,0200h
  01b9  e5           push hl
  01ba  21 d6 fd     ld hl,fdd6h
  01bd  19           add hl,de
  01be  22 00 00     ld (0000h),hl
  01c1  2a 00 00     ld hl,(0000h)
  01c4  e5           push hl
  01c5  21 06 00     ld hl,0006h
  01c8  19           add hl,de
  01c9  4e           ld c,(hl)
  01ca  23           inc hl
  01cb  46           ld b,(hl)
  01cc  c5           push bc
  01cd  21 04 00     ld hl,0004h
  01d0  19           add hl,de
  01d1  7e           ld a,(hl)
  01d2  23           inc hl
  01d3  66           ld h,(hl)
  01d4  6f           ld l,a
  01d5  cd 00 00     call 0000h
  01d8  f1           pop af
  01d9  f1           pop af
  01da  f1           pop af
  01db  e1           pop hl
  01dc  79           ld a,c
  01dd  77           ld (hl),a
  01de  78           ld a,b
  01df  23           inc hl
  01e0  77           ld (hl),a
  01e1  2b           dec hl
  01e2  97           sub a
  01e3  96           sub (hl)
  01e4  3e 00        ld a,00h
  01e6  23           inc hl
  01e7  9e           sbc a,(hl)
  01e8  fa 5f 07     jp m,075fh
  01eb  21 f4 ff     ld hl,fff4h
  01ee  19           add hl,de
  01ef  7e           ld a,(hl)
  01f0  23           inc hl
  01f1  b6           or (hl)
  01f2  ca ff 01     jp z,01ffh
  01f5  21 f4 ff     ld hl,fff4h
  01f8  19           add hl,de
  01f9  4e           ld c,(hl)
  01fa  23           inc hl
  01fb  46           ld b,(hl)
  01fc  c3 02 02     jp 0202h
  01ff  01 ff ff     ld bc,ffffh
  0202  c3 00 00     jp 0000h
  0205  2a 00 00     ld hl,(0000h)
  0208  01 01 00     ld bc,0001h
  020b  09           add hl,bc
  020c  7e           ld a,(hl)
  020d  fe 20        cp 20h
  020f  c2 38 02     jp nz,0238h
  0212  2a 00 00     ld hl,(0000h)
  0215  23           inc hl
  0216  22 00 00     ld (0000h),hl
  0219  21 f0 ff     ld hl,fff0h
  021c  19           add hl,de
  021d  7e           ld a,(hl)
  021e  23           inc hl
  021f  b6           or (hl)
  0220  ca 7d 02     jp z,027dh
  0223  2a 00 00     ld hl,(0000h)
  0226  3e 20        ld a,20h
  0228  be           cp (hl)
  0229  d2 7d 02     jp nc,027dh
  022c  2a 00 00     ld hl,(0000h)
  022f  7e           ld a,(hl)
  0230  fe 7f        cp 7fh
  0232  da 5f 07     jp c,075fh
  0235  c3 7d 02     jp 027dh
  0238  2a 00 00     ld hl,(0000h)
  023b  23           inc hl
  023c  22 00 00     ld (0000h),hl
  023f  21 f8 ff     ld hl,fff8h
  0242  19           add hl,de
  0243  3e 01        ld a,01h
  0245  77           ld (hl),a
  0246  87           add a,a
  0247  9f           sbc a,a
  0248  23           inc hl
  0249  77           ld (hl),a
  024a  21 d7 ff     ld hl,ffd7h
  024d  19           add hl,de
  024e  36 20        ld (hl),20h
  0250  2a 00 00     ld hl,(0000h)
  0253  7e           ld a,(hl)
  0254  fe 2d        cp 2dh
  0256  c2 0e 03     jp nz,030eh
  0259  21 f8 ff     ld hl,fff8h
  025c  19           add hl,de
  025d  97           sub a
  025e  77           ld (hl),a
  025f  23           inc hl
  0260  77           ld (hl),a
  0261  21 d7 ff     ld hl,ffd7h
  0264  19           add hl,de
  0265  e5           push hl
  0266  2a 00 00     ld hl,(0000h)
  0269  23           inc hl
  026a  22 00 00     ld (0000h),hl
  026d  2a 00 00     ld hl,(0000h)
  0270  c1           pop bc
  0271  7e           ld a,(hl)
  0272  02           ld (bc),a
  0273  2a 00 00     ld hl,(0000h)
  0276  23           inc hl
  0277  22 00 00     ld (0000h),hl
  027a  c3 30 03     jp 0330h
  027d  21 f0 ff     ld hl,fff0h
  0280  19           add hl,de
  0281  7e           ld a,(hl)
  0282  23           inc hl
  0283  b6           or (hl)
  0284  c2 db 02     jp nz,02dbh
  0287  21 f0 ff     ld hl,fff0h
  028a  19           add hl,de
  028b  e5           push hl
  028c  21 00 02     ld hl,0200h
  028f  e5           push hl
  0290  21 d6 fd     ld hl,fdd6h
  0293  19           add hl,de
  0294  22 00 00     ld (0000h),hl
  0297  2a 00 00     ld hl,(0000h)
  029a  e5           push hl
  029b  21 06 00     ld hl,0006h
  029e  19           add hl,de
  029f  4e           ld c,(hl)
  02a0  23           inc hl
  02a1  46           ld b,(hl)
  02a2  c5           push bc
  02a3  21 04 00     ld hl,0004h
  02a6  19           add hl,de
  02a7  7e           ld a,(hl)
  02a8  23           inc hl
  02a9  66           ld h,(hl)
  02aa  6f           ld l,a
  02ab  cd 00 00     call 0000h
  02ae  f1           pop af
  02af  f1           pop af
  02b0  f1           pop af
  02b1  e1           pop hl
  02b2  79           ld a,c
  02b3  77           ld (hl),a
  02b4  78           ld a,b
  02b5  23           inc hl
  02b6  77           ld (hl),a
  02b7  2b           dec hl
  02b8  97           sub a
  02b9  96           sub (hl)
  02ba  3e 00        ld a,00h
  02bc  23           inc hl
  02bd  9e           sbc a,(hl)
  02be  fa db 02     jp m,02dbh
  02c1  21 f4 ff     ld hl,fff4h
  02c4  19           add hl,de
  02c5  7e           ld a,(hl)
  02c6  23           inc hl
  02c7  b6           or (hl)
  02c8  ca d5 02     jp z,02d5h
  02cb  21 f4 ff     ld hl,fff4h
  02ce  19           add hl,de
  02cf  4e           ld c,(hl)
  02d0  23           inc hl
  02d1  46           ld b,(hl)
  02d2  c3 d8 02     jp 02d8h
  02d5  01 ff ff     ld bc,ffffh
  02d8  c3 00 00     jp 0000h
  02db  21 f0 ff     ld hl,fff0h
  02de  19           add hl,de
  02df  7e           ld a,(hl)
  02e0  23           inc hl
  02e1  b6           or (hl)
  02e2  ca 19 02     jp z,0219h
  02e5  2a 00 00     ld hl,(0000h)
  02e8  3e 20        ld a,20h
  02ea  be           cp (hl)
  02eb  d2 f7 02     jp nc,02f7h
  02ee  2a 00 00     ld hl,(0000h)
  02f1  7e           ld a,(hl)
  02f2  fe 7f        cp 7fh
  02f4  da 19 02     jp c,0219h
  02f7  21 f0 ff     ld hl,fff0h
  02fa  19           add hl,de
  02fb  7e           ld a,(hl)
  02fc  d6 01        sub 01h
  02fe  77           ld (hl),a
  02ff  23           inc hl
  0300  7e           ld a,(hl)
  0301  de 00        sbc a,00h
  0303  77           ld (hl),a
  0304  2a 00 00     ld hl,(0000h)
  0307  23           inc hl
  0308  22 00 00     ld (0000h),hl
  030b  c3 db 02     jp 02dbh
  030e  2a 00 00     ld hl,(0000h)
  0311  7e           ld a,(hl)
  0312  fe 2b        cp 2bh
  0314  c2 30 03     jp nz,0330h
  0317  21 d7 ff     ld hl,ffd7h
  031a  19           add hl,de
  031b  e5           push hl
  031c  2a 00 00     ld hl,(0000h)
  031f  23           inc hl
  0320  22 00 00     ld (0000h),hl
  0323  2a 00 00     ld hl,(0000h)
  0326  c1           pop bc
  0327  7e           ld a,(hl)
  0328  02           ld (bc),a
  0329  2a 00 00     ld hl,(0000h)
  032c  23           inc hl
  032d  22 00 00     ld (0000h),hl
  0330  21 0a 00     ld hl,000ah
  0333  19           add hl,de
  0334  e5           push hl
  0335  21 ee ff     ld hl,ffeeh
  0338  19           add hl,de
  0339  e5           push hl
  033a  2a 00 00     ld hl,(0000h)
  033d  e5           push hl
  033e  cd 00 00     call 0000h
  0341  f1           pop af
  0342  f1           pop af
  0343  f1           pop af
  0344  69           ld l,c
  0345  60           ld h,b
  0346  22 00 00     ld (0000h),hl
  0349  21 f2 ff     ld hl,fff2h
  034c  19           add hl,de
  034d  97           sub a
  034e  77           ld (hl),a
  034f  23           inc hl
  0350  77           ld (hl),a
  0351  2a 00 00     ld hl,(0000h)
  0354  7e           ld a,(hl)
  0355  fe 2e        cp 2eh
  0357  c2 77 03     jp nz,0377h
  035a  21 0a 00     ld hl,000ah
  035d  19           add hl,de
  035e  e5           push hl
  035f  21 f2 ff     ld hl,fff2h
  0362  19           add hl,de
  0363  e5           push hl
  0364  2a 00 00     ld hl,(0000h)
  0367  01 01 00     ld bc,0001h
  036a  09           add hl,bc
  036b  e5           push hl
  036c  cd 00 00     call 0000h
  036f  f1           pop af
  0370  f1           pop af
  0371  f1           pop af
  0372  69           ld l,c
  0373  60           ld h,b
  0374  22 00 00     ld (0000h),hl
  0377  2a 00 00     ld hl,(0000h)
  037a  7e           ld a,(hl)
  037b  fe 61        cp 61h
  037d  ca 9b 03     jp z,039bh
  0380  2a 00 00     ld hl,(0000h)
  0383  7e           ld a,(hl)
  0384  fe 68        cp 68h
  0386  ca 9b 03     jp z,039bh
  0389  2a 00 00     ld hl,(0000h)
  038c  7e           ld a,(hl)
  038d  fe 6f        cp 6fh
  038f  ca 9b 03     jp z,039bh
  0392  2a 00 00     ld hl,(0000h)
  0395  7e           ld a,(hl)
  0396  fe 75        cp 75h
  0398  c2 c7 03     jp nz,03c7h
  039b  21 d6 ff     ld hl,ffd6h
  039e  19           add hl,de
  039f  e5           push hl
  03a0  2a 00 00     ld hl,(0000h)
  03a3  e5           push hl
  03a4  2a 00 00     ld hl,(0000h)
  03a7  23           inc hl
  03a8  22 00 00     ld (0000h),hl
  03ab  e1           pop hl
  03ac  c1           pop bc
  03ad  7e           ld a,(hl)
  03ae  02           ld (bc),a
  03af  21 d6 ff     ld hl,ffd6h
  03b2  19           add hl,de
  03b3  7e           ld a,(hl)
  03b4  fe 68        cp 68h
  03b6  c2 d0 03     jp nz,03d0h
  03b9  21 f6 ff     ld hl,fff6h
  03bc  19           add hl,de
  03bd  3e 10        ld a,10h
  03bf  77           ld (hl),a
  03c0  87           add a,a
  03c1  9f           sbc a,a
  03c2  23           inc hl
  03c3  77           ld (hl),a
  03c4  c3 f3 03     jp 03f3h
  03c7  21 d6 ff     ld hl,ffd6h
  03ca  19           add hl,de
  03cb  36 00        ld (hl),00h
  03cd  c3 af 03     jp 03afh
  03d0  21 d6 ff     ld hl,ffd6h
  03d3  19           add hl,de
  03d4  7e           ld a,(hl)
  03d5  fe 6f        cp 6fh
  03d7  c2 e8 03     jp nz,03e8h
  03da  21 f6 ff     ld hl,fff6h
  03dd  19           add hl,de
  03de  3e 08        ld a,08h
  03e0  77           ld (hl),a
  03e1  87           add a,a
  03e2  9f           sbc a,a
  03e3  23           inc hl
  03e4  77           ld (hl),a
  03e5  c3 f3 03     jp 03f3h
  03e8  21 f6 ff     ld hl,fff6h
  03eb  19           add hl,de
  03ec  3e 0a        ld a,0ah
  03ee  77           ld (hl),a
  03ef  87           add a,a
  03f0  9f           sbc a,a
  03f1  23           inc hl
  03f2  77           ld (hl),a
  03f3  21 da ff     ld hl,ffdah
  03f6  19           add hl,de
  03f7  3a 00 00     ld a,(0000h)
  03fa  77           ld (hl),a
  03fb  3a 01 00     ld a,(0001h)
  03fe  23           inc hl
  03ff  77           ld (hl),a
  0400  21 e8 ff     ld hl,ffe8h
  0403  19           add hl,de
  0404  e5           push hl
  0405  21 f0 ff     ld hl,fff0h
  0408  19           add hl,de
  0409  c1           pop bc
  040a  7e           ld a,(hl)
  040b  02           ld (bc),a
  040c  23           inc hl
  040d  7e           ld a,(hl)
  040e  03           inc bc
  040f  02           ld (bc),a
  0410  21 ee ff     ld hl,ffeeh
  0413  19           add hl,de
  0414  97           sub a
  0415  96           sub (hl)
  0416  3e 00        ld a,00h
  0418  23           inc hl
  0419  9e           sbc a,(hl)
  041a  f2 e5 04     jp p,04e5h
  041d  2a 00 00     ld hl,(0000h)
  0420  22 00 00     ld (0000h),hl
  0423  21 ea ff     ld hl,ffeah
  0426  19           add hl,de
  0427  e5           push hl
  0428  21 ee ff     ld hl,ffeeh
  042b  19           add hl,de
  042c  e5           push hl
  042d  21 f0 ff     ld hl,fff0h
  0430  19           add hl,de
  0431  c1           pop bc
  0432  0a           ld a,(bc)
  0433  96           sub (hl)
  0434  03           inc bc
  0435  0a           ld a,(bc)
  0436  23           inc hl
  0437  9e           sbc a,(hl)
  0438  f2 45 04     jp p,0445h
  043b  21 ee ff     ld hl,ffeeh
  043e  19           add hl,de
  043f  4e           ld c,(hl)
  0440  23           inc hl
  0441  46           ld b,(hl)
  0442  c3 4c 04     jp 044ch
  0445  21 f0 ff     ld hl,fff0h
  0448  19           add hl,de
  0449  4e           ld c,(hl)
  044a  23           inc hl
  044b  46           ld b,(hl)
  044c  e1           pop hl
  044d  79           ld a,c
  044e  77           ld (hl),a
  044f  78           ld a,b
  0450  23           inc hl
  0451  77           ld (hl),a
  0452  21 ea ff     ld hl,ffeah
  0455  19           add hl,de
  0456  97           sub a
  0457  96           sub (hl)
  0458  3e 00        ld a,00h
  045a  23           inc hl
  045b  9e           sbc a,(hl)
  045c  f2 85 04     jp p,0485h
  045f  21 ea ff     ld hl,ffeah
  0462  19           add hl,de
  0463  7e           ld a,(hl)
  0464  23           inc hl
  0465  66           ld h,(hl)
  0466  6f           ld l,a
  0467  e5           push hl
  0468  2a 00 00     ld hl,(0000h)
  046b  01 ff ff     ld bc,ffffh
  046e  09           add hl,bc
  046f  e3           ex (sp),hl
  0470  c1           pop bc
  0471  09           add hl,bc
  0472  7e           ld a,(hl)
  0473  fe 0a        cp 0ah
  0475  c2 85 04     jp nz,0485h
  0478  21 ea ff     ld hl,ffeah
  047b  19           add hl,de
  047c  7e           ld a,(hl)
  047d  d6 01        sub 01h
  047f  77           ld (hl),a
  0480  23           inc hl
  0481  7e           ld a,(hl)
  0482  de 00        sbc a,00h
  0484  77           ld (hl),a
  0485  2a 00 00     ld hl,(0000h)
  0488  e5           push hl
  0489  21 ea ff     ld hl,ffeah
  048c  19           add hl,de
  048d  7e           ld a,(hl)
  048e  23           inc hl
  048f  66           ld h,(hl)
  0490  6f           ld l,a
  0491  e3           ex (sp),hl
  0492  c1           pop bc
  0493  09           add hl,bc
  0494  22 00 00     ld (0000h),hl
  0497  21 f0 ff     ld hl,fff0h
  049a  19           add hl,de
  049b  e5           push hl
  049c  21 ea ff     ld hl,ffeah
  049f  19           add hl,de
  04a0  c1           pop bc
  04a1  0a           ld a,(bc)
  04a2  96           sub (hl)
  04a3  02           ld (bc),a
  04a4  03           inc bc
  04a5  0a           ld a,(bc)
  04a6  23           inc hl
  04a7  9e           sbc a,(hl)
  04a8  02           ld (bc),a
  04a9  21 f8 ff     ld hl,fff8h
  04ac  19           add hl,de
  04ad  7e           ld a,(hl)
  04ae  23           inc hl
  04af  b6           or (hl)
  04b0  ca 85 05     jp z,0585h
  04b3  21 ea ff     ld hl,ffeah
  04b6  19           add hl,de
  04b7  97           sub a
  04b8  96           sub (hl)
  04b9  3e 00        ld a,00h
  04bb  23           inc hl
  04bc  9e           sbc a,(hl)
  04bd  f2 e0 05     jp p,05e0h
  04c0  2a 00 00     ld hl,(0000h)
  04c3  e5           push hl
  04c4  21 d7 ff     ld hl,ffd7h
  04c7  19           add hl,de
  04c8  c1           pop bc
  04c9  0a           ld a,(bc)
  04ca  be           cp (hl)
  04cb  c2 e0 05     jp nz,05e0h
  04ce  21 ea ff     ld hl,ffeah
  04d1  19           add hl,de
  04d2  7e           ld a,(hl)
  04d3  d6 01        sub 01h
  04d5  77           ld (hl),a
  04d6  23           inc hl
  04d7  7e           ld a,(hl)
  04d8  de 00        sbc a,00h
  04da  77           ld (hl),a
  04db  2a 00 00     ld hl,(0000h)
  04de  23           inc hl
  04df  22 00 00     ld (0000h),hl
  04e2  c3 b3 04     jp 04b3h
  04e5  21 f0 ff     ld hl,fff0h
  04e8  19           add hl,de
  04e9  97           sub a
  04ea  96           sub (hl)
  04eb  3e 00        ld a,00h
  04ed  23           inc hl
  04ee  9e           sbc a,(hl)
  04ef  f2 04 05     jp p,0504h
  04f2  2a 00 00     ld hl,(0000h)
  04f5  3e 20        ld a,20h
  04f7  be           cp (hl)
  04f8  d2 40 05     jp nc,0540h
  04fb  2a 00 00     ld hl,(0000h)
  04fe  7e           ld a,(hl)
  04ff  fe 7f        cp 7fh
  0501  d2 40 05     jp nc,0540h
  0504  2a 00 00     ld hl,(0000h)
  0507  22 00 00     ld (0000h),hl
  050a  21 f0 ff     ld hl,fff0h
  050d  19           add hl,de
  050e  97           sub a
  050f  96           sub (hl)
  0510  3e 00        ld a,00h
  0512  23           inc hl
  0513  9e           sbc a,(hl)
  0514  f2 57 05     jp p,0557h
  0517  2a 00 00     ld hl,(0000h)
  051a  3e 20        ld a,20h
  051c  be           cp (hl)
  051d  d2 57 05     jp nc,0557h
  0520  2a 00 00     ld hl,(0000h)
  0523  7e           ld a,(hl)
  0524  fe 7f        cp 7fh
  0526  d2 57 05     jp nc,0557h
  0529  21 f0 ff     ld hl,fff0h
  052c  19           add hl,de
  052d  7e           ld a,(hl)
  052e  d6 01        sub 01h
  0530  77           ld (hl),a
  0531  23           inc hl
  0532  7e           ld a,(hl)
  0533  de 00        sbc a,00h
  0535  77           ld (hl),a
  0536  2a 00 00     ld hl,(0000h)
  0539  23           inc hl
  053a  22 00 00     ld (0000h),hl
  053d  c3 0a 05     jp 050ah
  0540  21 f0 ff     ld hl,fff0h
  0543  19           add hl,de
  0544  7e           ld a,(hl)
  0545  d6 01        sub 01h
  0547  77           ld (hl),a
  0548  23           inc hl
  0549  7e           ld a,(hl)
  054a  de 00        sbc a,00h
  054c  77           ld (hl),a
  054d  2a 00 00     ld hl,(0000h)
  0550  23           inc hl
  0551  22 00 00     ld (0000h),hl
  0554  c3 e5 04     jp 04e5h
  0557  21 ea ff     ld hl,ffeah
  055a  19           add hl,de
  055b  e5           push hl
  055c  2a 00 00     ld hl,(0000h)
  055f  e5           push hl
  0560  21 00 00     ld hl,0000h
  0563  c1           pop bc
  0564  79           ld a,c
  0565  96           sub (hl)
  0566  4f           ld c,a
  0567  78           ld a,b
  0568  23           inc hl
  0569  9e           sbc a,(hl)
  056a  47           ld b,a
  056b  e1           pop hl
  056c  79           ld a,c
  056d  77           ld (hl),a
  056e  78           ld a,b
  056f  23           inc hl
  0570  77           ld (hl),a
  0571  2b           dec hl
  0572  7e           ld a,(hl)
  0573  23           inc hl
  0574  b6           or (hl)
  0575  c2 a9 04     jp nz,04a9h
  0578  21 f4 ff     ld hl,fff4h
  057b  19           add hl,de
  057c  7e           ld a,(hl)
  057d  23           inc hl
  057e  66           ld h,(hl)
  057f  6f           ld l,a
  0580  4d           ld c,l
  0581  44           ld b,h
  0582  c3 00 00     jp 0000h
  0585  21 d8 ff     ld hl,ffd8h
  0588  19           add hl,de
  0589  e5           push hl
  058a  21 ea ff     ld hl,ffeah
  058d  19           add hl,de
  058e  7e           ld a,(hl)
  058f  23           inc hl
  0590  66           ld h,(hl)
  0591  6f           ld l,a
  0592  e5           push hl
  0593  2a 00 00     ld hl,(0000h)
  0596  01 ff ff     ld bc,ffffh
  0599  09           add hl,bc
  059a  e3           ex (sp),hl
  059b  c1           pop bc
  059c  09           add hl,bc
  059d  c1           pop bc
  059e  7d           ld a,l
  059f  02           ld (bc),a
  05a0  7c           ld a,h
  05a1  03           inc bc
  05a2  02           ld (bc),a
  05a3  21 ea ff     ld hl,ffeah
  05a6  19           add hl,de
  05a7  97           sub a
  05a8  96           sub (hl)
  05a9  3e 00        ld a,00h
  05ab  23           inc hl
  05ac  9e           sbc a,(hl)
  05ad  f2 e0 05     jp p,05e0h
  05b0  21 d8 ff     ld hl,ffd8h
  05b3  19           add hl,de
  05b4  7e           ld a,(hl)
  05b5  23           inc hl
  05b6  66           ld h,(hl)
  05b7  6f           ld l,a
  05b8  e5           push hl
  05b9  21 d7 ff     ld hl,ffd7h
  05bc  19           add hl,de
  05bd  c1           pop bc
  05be  0a           ld a,(bc)
  05bf  be           cp (hl)
  05c0  c2 e0 05     jp nz,05e0h
  05c3  21 ea ff     ld hl,ffeah
  05c6  19           add hl,de
  05c7  7e           ld a,(hl)
  05c8  d6 01        sub 01h
  05ca  77           ld (hl),a
  05cb  23           inc hl
  05cc  7e           ld a,(hl)
  05cd  de 00        sbc a,00h
  05cf  77           ld (hl),a
  05d0  21 d8 ff     ld hl,ffd8h
  05d3  19           add hl,de
  05d4  7e           ld a,(hl)
  05d5  d6 01        sub 01h
  05d7  77           ld (hl),a
  05d8  23           inc hl
  05d9  7e           ld a,(hl)
  05da  de 00        sbc a,00h
  05dc  77           ld (hl),a
  05dd  c3 a3 05     jp 05a3h
  05e0  2a 00 00     ld hl,(0000h)
  05e3  7e           ld a,(hl)
  05e4  fe 78        cp 78h
  05e6  ca 5f 07     jp z,075fh
  05e9  2a 00 00     ld hl,(0000h)
  05ec  7e           ld a,(hl)
  05ed  fe 62        cp 62h
  05ef  ca fb 05     jp z,05fbh
  05f2  2a 00 00     ld hl,(0000h)
  05f5  7e           ld a,(hl)
  05f6  fe 70        cp 70h
  05f8  c2 37 06     jp nz,0637h
  05fb  21 f2 ff     ld hl,fff2h
  05fe  19           add hl,de
  05ff  7e           ld a,(hl)
  0600  23           inc hl
  0601  b6           or (hl)
  0602  ca c1 06     jp z,06c1h
  0605  21 ea ff     ld hl,ffeah
  0608  19           add hl,de
  0609  e5           push hl
  060a  21 ea ff     ld hl,ffeah
  060d  19           add hl,de
  060e  e5           push hl
  060f  21 f2 ff     ld hl,fff2h
  0612  19           add hl,de
  0613  c1           pop bc
  0614  0a           ld a,(bc)
  0615  96           sub (hl)
  0616  03           inc bc
  0617  0a           ld a,(bc)
  0618  23           inc hl
  0619  9e           sbc a,(hl)
  061a  f2 27 06     jp p,0627h
  061d  21 ea ff     ld hl,ffeah
  0620  19           add hl,de
  0621  4e           ld c,(hl)
  0622  23           inc hl
  0623  46           ld b,(hl)
  0624  c3 2e 06     jp 062eh
  0627  21 f2 ff     ld hl,fff2h
  062a  19           add hl,de
  062b  4e           ld c,(hl)
  062c  23           inc hl
  062d  46           ld b,(hl)
  062e  e1           pop hl
  062f  79           ld a,c
  0630  77           ld (hl),a
  0631  78           ld a,b
  0632  23           inc hl
  0633  77           ld (hl),a
  0634  c3 c1 06     jp 06c1h
  0637  2a 00 00     ld hl,(0000h)
  063a  7e           ld a,(hl)
  063b  fe 6c        cp 6ch
  063d  c2 74 07     jp nz,0774h
  0640  21 d6 ff     ld hl,ffd6h
  0643  19           add hl,de
  0644  7e           ld a,(hl)
  0645  fe 61        cp 61h
  0647  c2 89 07     jp nz,0789h
  064a  21 dc ff     ld hl,ffdch
  064d  19           add hl,de
  064e  97           sub a
  064f  77           ld (hl),a
  0650  23           inc hl
  0651  77           ld (hl),a
  0652  23           inc hl
  0653  77           ld (hl),a
  0654  23           inc hl
  0655  77           ld (hl),a
  0656  21 ea ff     ld hl,ffeah
  0659  19           add hl,de
  065a  97           sub a
  065b  96           sub (hl)
  065c  3e 00        ld a,00h
  065e  23           inc hl
  065f  9e           sbc a,(hl)
  0660  f2 c5 07     jp p,07c5h
  0663  21 dc ff     ld hl,ffdch
  0666  19           add hl,de
  0667  e5           push hl
  0668  21 dc ff     ld hl,ffdch
  066b  19           add hl,de
  066c  e5           push hl
  066d  e1           pop hl
  066e  01 00 00     ld bc,0000h
  0671  cd 00 00     call 0000h
  0674  21 00 00     ld hl,0000h
  0677  e5           push hl
  0678  21 08 00     ld hl,0008h
  067b  e5           push hl
  067c  cd 00 00     call 0000h
  067f  2a 00 00     ld hl,(0000h)
  0682  e5           push hl
  0683  2a 00 00     ld hl,(0000h)
  0686  23           inc hl
  0687  22 00 00     ld (0000h),hl
  068a  c1           pop bc
  068b  97           sub a
  068c  32 00 00     ld (0000h),a
  068f  32 01 00     ld (0001h),a
  0692  0a           ld a,(bc)
  0693  32 02 00     ld (0002h),a
  0696  97           sub a
  0697  32 03 00     ld (0003h),a
  069a  21 00 00     ld hl,0000h
  069d  e5           push hl
  069e  cd 00 00     call 0000h
  06a1  e1           pop hl
  06a2  c1           pop bc
  06a3  7e           ld a,(hl)
  06a4  02           ld (bc),a
  06a5  23           inc hl
  06a6  7e           ld a,(hl)
  06a7  03           inc bc
  06a8  02           ld (bc),a
  06a9  23           inc hl
  06aa  7e           ld a,(hl)
  06ab  03           inc bc
  06ac  02           ld (bc),a
  06ad  23           inc hl
  06ae  7e           ld a,(hl)
  06af  03           inc bc
  06b0  02           ld (bc),a
  06b1  21 ea ff     ld hl,ffeah
  06b4  19           add hl,de
  06b5  7e           ld a,(hl)
  06b6  d6 01        sub 01h
  06b8  77           ld (hl),a
  06b9  23           inc hl
  06ba  7e           ld a,(hl)
  06bb  de 00        sbc a,00h
  06bd  77           ld (hl),a
  06be  c3 56 06     jp 0656h
  06c1  21 ea ff     ld hl,ffeah
  06c4  19           add hl,de
  06c5  4e           ld c,(hl)
  06c6  23           inc hl
  06c7  46           ld b,(hl)
  06c8  c5           push bc
  06c9  2a 00 00     ld hl,(0000h)
  06cc  e5           push hl
  06cd  21 0a 00     ld hl,000ah
  06d0  19           add hl,de
  06d1  7e           ld a,(hl)
  06d2  23           inc hl
  06d3  66           ld h,(hl)
  06d4  6f           ld l,a
  06d5  4e           ld c,(hl)
  06d6  23           inc hl
  06d7  46           ld b,(hl)
  06d8  c5           push bc
  06d9  cd 00 00     call 0000h
  06dc  f1           pop af
  06dd  f1           pop af
  06de  f1           pop af
  06df  2a 00 00     ld hl,(0000h)
  06e2  7e           ld a,(hl)
  06e3  fe 70        cp 70h
  06e5  c2 1f 07     jp nz,071fh
  06e8  21 0a 00     ld hl,000ah
  06eb  19           add hl,de
  06ec  7e           ld a,(hl)
  06ed  23           inc hl
  06ee  66           ld h,(hl)
  06ef  6f           ld l,a
  06f0  7e           ld a,(hl)
  06f1  23           inc hl
  06f2  66           ld h,(hl)
  06f3  6f           ld l,a
  06f4  e5           push hl
  06f5  21 ea ff     ld hl,ffeah
  06f8  19           add hl,de
  06f9  7e           ld a,(hl)
  06fa  23           inc hl
  06fb  66           ld h,(hl)
  06fc  6f           ld l,a
  06fd  e3           ex (sp),hl
  06fe  c1           pop bc
  06ff  09           add hl,bc
  0700  36 00        ld (hl),00h
  0702  21 0a 00     ld hl,000ah
  0705  19           add hl,de
  0706  7e           ld a,(hl)
  0707  c6 02        add a,02h
  0709  77           ld (hl),a
  070a  23           inc hl
  070b  7e           ld a,(hl)
  070c  ce 00        adc a,00h
  070e  77           ld (hl),a
  070f  21 f4 ff     ld hl,fff4h
  0712  19           add hl,de
  0713  7e           ld a,(hl)
  0714  c6 01        add a,01h
  0716  77           ld (hl),a
  0717  23           inc hl
  0718  7e           ld a,(hl)
  0719  ce 00        adc a,00h
  071b  77           ld (hl),a
  071c  c3 5f 07     jp 075fh
  071f  21 0a 00     ld hl,000ah
  0722  19           add hl,de
  0723  7e           ld a,(hl)
  0724  c6 02        add a,02h
  0726  77           ld (hl),a
  0727  23           inc hl
  0728  7e           ld a,(hl)
  0729  ce 00        adc a,00h
  072b  77           ld (hl),a
  072c  21 0a 00     ld hl,000ah
  072f  19           add hl,de
  0730  4e           ld c,(hl)
  0731  23           inc hl
  0732  46           ld b,(hl)
  0733  c5           push bc
  0734  21 0a 00     ld hl,000ah
  0737  19           add hl,de
  0738  7e           ld a,(hl)
  0739  c6 02        add a,02h
  073b  77           ld (hl),a
  073c  23           inc hl
  073d  7e           ld a,(hl)
  073e  ce 00        adc a,00h
  0740  77           ld (hl),a
  0741  e1           pop hl
  0742  7e           ld a,(hl)
  0743  23           inc hl
  0744  66           ld h,(hl)
  0745  6f           ld l,a
  0746  e5           push hl
  0747  21 ea ff     ld hl,ffeah
  074a  19           add hl,de
  074b  c1           pop bc
  074c  7e           ld a,(hl)
  074d  02           ld (bc),a
  074e  23           inc hl
  074f  7e           ld a,(hl)
  0750  03           inc bc
  0751  02           ld (bc),a
  0752  21 f4 ff     ld hl,fff4h
  0755  19           add hl,de
  0756  7e           ld a,(hl)
  0757  c6 02        add a,02h
  0759  77           ld (hl),a
  075a  23           inc hl
  075b  7e           ld a,(hl)
  075c  ce 00        adc a,00h
  075e  77           ld (hl),a
  075f  21 08 00     ld hl,0008h
  0762  19           add hl,de
  0763  e5           push hl
  0764  2a 00 00     ld hl,(0000h)
  0767  01 01 00     ld bc,0001h
  076a  09           add hl,bc
  076b  c1           pop bc
  076c  7d           ld a,l
  076d  02           ld (bc),a
  076e  7c           ld a,h
  076f  03           inc bc
  0770  02           ld (bc),a
  0771  c3 12 01     jp 0112h
  0774  2a 00 00     ld hl,(0000h)
  0777  7e           ld a,(hl)
  0778  fe 64        cp 64h
  077a  ca 03 08     jp z,0803h
  077d  2a 00 00     ld hl,(0000h)
  0780  7e           ld a,(hl)
  0781  fe 66        cp 66h
  0783  c2 36 08     jp nz,0836h
  0786  c3 03 08     jp 0803h
  0789  21 f6 ff     ld hl,fff6h
  078c  19           add hl,de
  078d  4e           ld c,(hl)
  078e  23           inc hl
  078f  46           ld b,(hl)
  0790  c5           push bc
  0791  21 dc ff     ld hl,ffdch
  0794  19           add hl,de
  0795  e5           push hl
  0796  21 ea ff     ld hl,ffeah
  0799  19           add hl,de
  079a  4e           ld c,(hl)
  079b  23           inc hl
  079c  46           ld b,(hl)
  079d  c5           push bc
  079e  2a 00 00     ld hl,(0000h)
  07a1  e5           push hl
  07a2  cd 00 00     call 0000h
  07a5  f1           pop af
  07a6  f1           pop af
  07a7  f1           pop af
  07a8  f1           pop af
  07a9  21 ea ff     ld hl,ffeah
  07ac  19           add hl,de
  07ad  79           ld a,c
  07ae  be           cp (hl)
  07af  c2 b5 07     jp nz,07b5h
  07b2  78           ld a,b
  07b3  23           inc hl
  07b4  be           cp (hl)
  07b5  ca c5 07     jp z,07c5h
  07b8  21 f4 ff     ld hl,fff4h
  07bb  19           add hl,de
  07bc  7e           ld a,(hl)
  07bd  23           inc hl
  07be  66           ld h,(hl)
  07bf  6f           ld l,a
  07c0  4d           ld c,l
  07c1  44           ld b,h
  07c2  c3 00 00     jp 0000h
  07c5  21 0a 00     ld hl,000ah
  07c8  19           add hl,de
  07c9  4e           ld c,(hl)
  07ca  23           inc hl
  07cb  46           ld b,(hl)
  07cc  c5           push bc
  07cd  21 0a 00     ld hl,000ah
  07d0  19           add hl,de
  07d1  7e           ld a,(hl)
  07d2  c6 02        add a,02h
  07d4  77           ld (hl),a
  07d5  23           inc hl
  07d6  7e           ld a,(hl)
  07d7  ce 00        adc a,00h
  07d9  77           ld (hl),a
  07da  e1           pop hl
  07db  7e           ld a,(hl)
  07dc  23           inc hl
  07dd  66           ld h,(hl)
  07de  6f           ld l,a
  07df  e5           push hl
  07e0  21 dc ff     ld hl,ffdch
  07e3  19           add hl,de
  07e4  c1           pop bc
  07e5  7e           ld a,(hl)
  07e6  02           ld (bc),a
  07e7  23           inc hl
  07e8  7e           ld a,(hl)
  07e9  03           inc bc
  07ea  02           ld (bc),a
  07eb  23           inc hl
  07ec  7e           ld a,(hl)
  07ed  03           inc bc
  07ee  02           ld (bc),a
  07ef  23           inc hl
  07f0  7e           ld a,(hl)
  07f1  03           inc bc
  07f2  02           ld (bc),a
  07f3  21 f4 ff     ld hl,fff4h
  07f6  19           add hl,de
  07f7  7e           ld a,(hl)
  07f8  c6 01        add a,01h
  07fa  77           ld (hl),a
  07fb  23           inc hl
  07fc  7e           ld a,(hl)
  07fd  ce 00        adc a,00h
  07ff  77           ld (hl),a
  0800  c3 5f 07     jp 075fh
  0803  21 e0 ff     ld hl,ffe0h
  0806  19           add hl,de
  0807  e5           push hl
  0808  21 ea ff     ld hl,ffeah
  080b  19           add hl,de
  080c  4e           ld c,(hl)
  080d  23           inc hl
  080e  46           ld b,(hl)
  080f  c5           push bc
  0810  2a 00 00     ld hl,(0000h)
  0813  e5           push hl
  0814  cd 00 00     call 0000h
  0817  f1           pop af
  0818  f1           pop af
  0819  f1           pop af
  081a  21 ea ff     ld hl,ffeah
  081d  19           add hl,de
  081e  79           ld a,c
  081f  be           cp (hl)
  0820  c2 26 08     jp nz,0826h
  0823  78           ld a,b
  0824  23           inc hl
  0825  be           cp (hl)
  0826  ca 5d 08     jp z,085dh
  0829  21 f4 ff     ld hl,fff4h
  082c  19           add hl,de
  082d  7e           ld a,(hl)
  082e  23           inc hl
  082f  66           ld h,(hl)
  0830  6f           ld l,a
  0831  4d           ld c,l
  0832  44           ld b,h
  0833  c3 00 00     jp 0000h
  0836  2a 00 00     ld hl,(0000h)
  0839  7e           ld a,(hl)
  083a  fe 63        cp 63h
  083c  ca c1 08     jp z,08c1h
  083f  2a 00 00     ld hl,(0000h)
  0842  7e           ld a,(hl)
  0843  fe 69        cp 69h
  0845  ca c1 08     jp z,08c1h
  0848  2a 00 00     ld hl,(0000h)
  084b  7e           ld a,(hl)
  084c  fe 73        cp 73h
  084e  ca c1 08     jp z,08c1h
  0851  21 d6 ff     ld hl,ffd6h
  0854  19           add hl,de
  0855  7e           ld a,(hl)
  0856  b7           or a
  0857  ca 21 09     jp z,0921h
  085a  c3 c1 08     jp 08c1h
  085d  2a 00 00     ld hl,(0000h)
  0860  7e           ld a,(hl)
  0861  fe 64        cp 64h
  0863  c2 8d 08     jp nz,088dh
  0866  21 0a 00     ld hl,000ah
  0869  19           add hl,de
  086a  4e           ld c,(hl)
  086b  23           inc hl
  086c  46           ld b,(hl)
  086d  c5           push bc
  086e  21 0a 00     ld hl,000ah
  0871  19           add hl,de
  0872  7e           ld a,(hl)
  0873  c6 02        add a,02h
  0875  77           ld (hl),a
  0876  23           inc hl
  0877  7e           ld a,(hl)
  0878  ce 00        adc a,00h
  087a  77           ld (hl),a
  087b  e1           pop hl
  087c  7e           ld a,(hl)
  087d  23           inc hl
  087e  66           ld h,(hl)
  087f  6f           ld l,a
  0880  e5           push hl
  0881  21 e0 ff     ld hl,ffe0h
  0884  19           add hl,de
  0885  e5           push hl
  0886  cd 00 00     call 0000h
  0889  f1           pop af
  088a  c3 b1 08     jp 08b1h
  088d  21 0a 00     ld hl,000ah
  0890  19           add hl,de
  0891  4e           ld c,(hl)
  0892  23           inc hl
  0893  46           ld b,(hl)
  0894  c5           push bc
  0895  21 0a 00     ld hl,000ah
  0898  19           add hl,de
  0899  7e           ld a,(hl)
  089a  c6 02        add a,02h
  089c  77           ld (hl),a
  089d  23           inc hl
  089e  7e           ld a,(hl)
  089f  ce 00        adc a,00h
  08a1  77           ld (hl),a
  08a2  e1           pop hl
  08a3  7e           ld a,(hl)
  08a4  23           inc hl
  08a5  66           ld h,(hl)
  08a6  6f           ld l,a
  08a7  e5           push hl
  08a8  21 e0 ff     ld hl,ffe0h
  08ab  19           add hl,de
  08ac  e5           push hl
  08ad  cd 00 00     call 0000h
  08b0  f1           pop af
  08b1  21 f4 ff     ld hl,fff4h
  08b4  19           add hl,de
  08b5  7e           ld a,(hl)
  08b6  c6 01        add a,01h
  08b8  77           ld (hl),a
  08b9  23           inc hl
  08ba  7e           ld a,(hl)
  08bb  ce 00        adc a,00h
  08bd  77           ld (hl),a
  08be  c3 5f 07     jp 075fh
  08c1  21 d6 ff     ld hl,ffd6h
  08c4  19           add hl,de
  08c5  7e           ld a,(hl)
  08c6  fe 61        cp 61h
  08c8  c2 66 09     jp nz,0966h
  08cb  21 ec ff     ld hl,ffech
  08ce  19           add hl,de
  08cf  97           sub a
  08d0  77           ld (hl),a
  08d1  23           inc hl
  08d2  77           ld (hl),a
  08d3  21 ea ff     ld hl,ffeah
  08d6  19           add hl,de
  08d7  97           sub a
  08d8  96           sub (hl)
  08d9  3e 00        ld a,00h
  08db  23           inc hl
  08dc  9e           sbc a,(hl)
  08dd  f2 a2 09     jp p,09a2h
  08e0  21 ec ff     ld hl,ffech
  08e3  19           add hl,de
  08e4  e5           push hl
  08e5  2a 00 00     ld hl,(0000h)
  08e8  e5           push hl
  08e9  2a 00 00     ld hl,(0000h)
  08ec  23           inc hl
  08ed  22 00 00     ld (0000h),hl
  08f0  e1           pop hl
  08f1  7e           ld a,(hl)
  08f2  4f           ld c,a
  08f3  97           sub a
  08f4  47           ld b,a
  08f5  21 ec ff     ld hl,ffech
  08f8  19           add hl,de
  08f9  7e           ld a,(hl)
  08fa  23           inc hl
  08fb  66           ld h,(hl)
  08fc  6f           ld l,a
  08fd  29           add hl,hl
  08fe  29           add hl,hl
  08ff  29           add hl,hl
  0900  29           add hl,hl
  0901  29           add hl,hl
  0902  29           add hl,hl
  0903  29           add hl,hl
  0904  29           add hl,hl
  0905  7d           ld a,l
  0906  b1           or c
  0907  6f           ld l,a
  0908  7c           ld a,h
  0909  b0           or b
  090a  67           ld h,a
  090b  c1           pop bc
  090c  7d           ld a,l
  090d  02           ld (bc),a
  090e  7c           ld a,h
  090f  03           inc bc
  0910  02           ld (bc),a
  0911  21 ea ff     ld hl,ffeah
  0914  19           add hl,de
  0915  7e           ld a,(hl)
  0916  d6 01        sub 01h
  0918  77           ld (hl),a
  0919  23           inc hl
  091a  7e           ld a,(hl)
  091b  de 00        sbc a,00h
  091d  77           ld (hl),a
  091e  c3 d3 08     jp 08d3h
  0921  21 e8 ff     ld hl,ffe8h
  0924  19           add hl,de
  0925  97           sub a
  0926  96           sub (hl)
  0927  3e 00        ld a,00h
  0929  23           inc hl
  092a  9e           sbc a,(hl)
  092b  f2 31 0a     jp p,0a31h
  092e  21 da ff     ld hl,ffdah
  0931  19           add hl,de
  0932  7e           ld a,(hl)
  0933  23           inc hl
  0934  66           ld h,(hl)
  0935  6f           ld l,a
  0936  e5           push hl
  0937  2a 00 00     ld hl,(0000h)
  093a  c1           pop bc
  093b  0a           ld a,(bc)
  093c  be           cp (hl)
  093d  c2 31 0a     jp nz,0a31h
  0940  21 da ff     ld hl,ffdah
  0943  19           add hl,de
  0944  7e           ld a,(hl)
  0945  23           inc hl
  0946  66           ld h,(hl)
  0947  6f           ld l,a
  0948  23           inc hl
  0949  22 00 00     ld (0000h),hl
  094c  21 f0 ff     ld hl,fff0h
  094f  19           add hl,de
  0950  e5           push hl
  0951  21 e8 ff     ld hl,ffe8h
  0954  19           add hl,de
  0955  7e           ld a,(hl)
  0956  23           inc hl
  0957  66           ld h,(hl)
  0958  6f           ld l,a
  0959  01 ff ff     ld bc,ffffh
  095c  09           add hl,bc
  095d  c1           pop bc
  095e  7d           ld a,l
  095f  02           ld (bc),a
  0960  7c           ld a,h
  0961  03           inc bc
  0962  02           ld (bc),a
  0963  c3 5f 07     jp 075fh
  0966  21 f6 ff     ld hl,fff6h
  0969  19           add hl,de
  096a  4e           ld c,(hl)
  096b  23           inc hl
  096c  46           ld b,(hl)
  096d  c5           push bc
  096e  21 ec ff     ld hl,ffech
  0971  19           add hl,de
  0972  e5           push hl
  0973  21 ea ff     ld hl,ffeah
  0976  19           add hl,de
  0977  4e           ld c,(hl)
  0978  23           inc hl
  0979  46           ld b,(hl)
  097a  c5           push bc
  097b  2a 00 00     ld hl,(0000h)
  097e  e5           push hl
  097f  cd 00 00     call 0000h
  0982  f1           pop af
  0983  f1           pop af
  0984  f1           pop af
  0985  f1           pop af
  0986  21 ea ff     ld hl,ffeah
  0989  19           add hl,de
  098a  79           ld a,c
  098b  be           cp (hl)
  098c  c2 92 09     jp nz,0992h
  098f  78           ld a,b
  0990  23           inc hl
  0991  be           cp (hl)
  0992  ca a2 09     jp z,09a2h
  0995  21 f4 ff     ld hl,fff4h
  0998  19           add hl,de
  0999  7e           ld a,(hl)
  099a  23           inc hl
  099b  66           ld h,(hl)
  099c  6f           ld l,a
  099d  4d           ld c,l
  099e  44           ld b,h
  099f  c3 00 00     jp 0000h
  09a2  2a 00 00     ld hl,(0000h)
  09a5  7e           ld a,(hl)
  09a6  fe 63        cp 63h
  09a8  c2 d0 09     jp nz,09d0h
  09ab  21 0a 00     ld hl,000ah
  09ae  19           add hl,de
  09af  4e           ld c,(hl)
  09b0  23           inc hl
  09b1  46           ld b,(hl)
  09b2  c5           push bc
  09b3  21 0a 00     ld hl,000ah
  09b6  19           add hl,de
  09b7  7e           ld a,(hl)
  09b8  c6 02        add a,02h
  09ba  77           ld (hl),a
  09bb  23           inc hl
  09bc  7e           ld a,(hl)
  09bd  ce 00        adc a,00h
  09bf  77           ld (hl),a
  09c0  e1           pop hl
  09c1  7e           ld a,(hl)
  09c2  23           inc hl
  09c3  66           ld h,(hl)
  09c4  6f           ld l,a
  09c5  e5           push hl
  09c6  21 ec ff     ld hl,ffech
  09c9  19           add hl,de
  09ca  c1           pop bc
  09cb  7e           ld a,(hl)
  09cc  02           ld (bc),a
  09cd  c3 f6 09     jp 09f6h
  09d0  21 0a 00     ld hl,000ah
  09d3  19           add hl,de
  09d4  4e           ld c,(hl)
  09d5  23           inc hl
  09d6  46           ld b,(hl)
  09d7  c5           push bc
  09d8  21 0a 00     ld hl,000ah
  09db  19           add hl,de
  09dc  7e           ld a,(hl)
  09dd  c6 02        add a,02h
  09df  77           ld (hl),a
  09e0  23           inc hl
  09e1  7e           ld a,(hl)
  09e2  ce 00        adc a,00h
  09e4  77           ld (hl),a
  09e5  e1           pop hl
  09e6  7e           ld a,(hl)
  09e7  23           inc hl
  09e8  66           ld h,(hl)
  09e9  6f           ld l,a
  09ea  e5           push hl
  09eb  21 ec ff     ld hl,ffech
  09ee  19           add hl,de
  09ef  c1           pop bc
  09f0  7e           ld a,(hl)
  09f1  02           ld (bc),a
  09f2  23           inc hl
  09f3  7e           ld a,(hl)
  09f4  03           inc bc
  09f5  02           ld (bc),a
  09f6  21 f4 ff     ld hl,fff4h
  09f9  19           add hl,de
  09fa  7e           ld a,(hl)
  09fb  c6 01        add a,01h
  09fd  77           ld (hl),a
  09fe  23           inc hl
  09ff  7e           ld a,(hl)
  0a00  ce 00        adc a,00h
  0a02  77           ld (hl),a
  0a03  2a 00 00     ld hl,(0000h)
  0a06  7e           ld a,(hl)
  0a07  fe 63        cp 63h
  0a09  ca 5f 07     jp z,075fh
  0a0c  2a 00 00     ld hl,(0000h)
  0a0f  7e           ld a,(hl)
  0a10  fe 69        cp 69h
  0a12  ca 5f 07     jp z,075fh
  0a15  2a 00 00     ld hl,(0000h)
  0a18  7e           ld a,(hl)
  0a19  fe 73        cp 73h
  0a1b  ca 5f 07     jp z,075fh
  0a1e  3a 00 00     ld a,(0000h)
  0a21  d6 01        sub 01h
  0a23  32 00 00     ld (0000h),a
  0a26  3a 01 00     ld a,(0001h)
  0a29  de 00        sbc a,00h
  0a2b  32 01 00     ld (0001h),a
  0a2e  c3 5f 07     jp 075fh
  0a31  21 f4 ff     ld hl,fff4h
  0a34  19           add hl,de
  0a35  7e           ld a,(hl)
  0a36  23           inc hl
  0a37  66           ld h,(hl)
  0a38  6f           ld l,a
  0a39  4d           ld c,l
  0a3a  44           ld b,h
  0a3b  c3 00 00     jp 0000h

Data segment: (empty)

Symbol table: 18 symbols (9-char names)
  Index  Value  Type Seg    Global  Name
  -----  -----  ---- -----  ------  ----
  [  0]  0000   08   ext    yes      c.r4
  [  1]  0000   08   ext    yes      c.r3
  [  2]  0000   08   ext    yes      c.r2
  [  3]  0000   08   ext    yes      c.r1
  [  4]  0000   08   ext    yes      c.r0
  [  5]  0000   08   ext    yes      _cpybuf
  [  6]  0000   08   ext    yes      c.lor
  [  7]  0000   08   ext    yes      _btos
  [  8]  0000   08   ext    yes      _btol
  [  9]  0000   08   ext    yes      c.dtf
  [ 10]  0000   08   ext    yes      c.rets
  [ 11]  0000   08   ext    yes      c.ihl
  [ 12]  0000   08   ext    yes      c.dtd
  [ 13]  0000   08   ext    yes      c.ents
  [ 14]  0000   08   ext    yes      c.lcpy
  [ 15]  0000   08   ext    yes      _btod
  [ 16]  0000   08   ext    yes      c.llsh
  [ 17]  00af   0d   text   yes      __getf

Text relocations:
  Offset  Type        Target
  ------  ----        ------
  0001    word        symbol[13]
  000c    word        symbol[0]
  0017    word        symbol[2]
  0022    word        symbol[1]
  0025    word        symbol[0]
  002b    word        text segment
  002e    word        symbol[0]
  0034    word        text segment
  0037    word        symbol[0]
  003b    word        symbol[0]
  003e    word        symbol[2]
  0042    word        symbol[1]
  0049    word        symbol[1]
  0060    word        symbol[0]
  0065    word        symbol[10]
  0068    word        symbol[2]
  006f    word        symbol[0]
  0075    word        text segment
  0078    word        symbol[0]
  007e    word        text segment
  0081    word        symbol[2]
  0085    word        symbol[0]
  008c    word        symbol[2]
  00a6    word        symbol[0]
  00aa    word        symbol[0]
  00ad    word        text segment
  00b0    word        symbol[13]
  00c2    word        text segment
  00c8    word        symbol[10]
  00d8    word        symbol[2]
  00db    word        symbol[2]
  00ef    word        symbol[11]
  0102    word        text segment
  0108    word        symbol[10]
  011b    word        symbol[0]
  011e    word        symbol[0]
  0123    word        text segment
  0126    word        symbol[0]
  012c    word        text segment
  012f    word        symbol[0]
  0135    word        text segment
  0138    word        symbol[0]
  013c    word        symbol[2]
  0142    word        text segment
  014f    word        text segment
  0152    word        text segment
  0155    word        symbol[0]
  015a    word        text segment
  0167    word        symbol[10]
  0174    word        symbol[10]
  0177    word        symbol[2]
  017b    word        symbol[2]
  018b    word        symbol[0]
  018f    word        symbol[0]
  0192    word        text segment
  0195    word        symbol[0]
  019b    word        text segment
  01a6    word        symbol[0]
  01af    word        text segment
  01bf    word        symbol[2]
  01c2    word        symbol[2]
  01d6    word        symbol[11]
  01e9    word        text segment
  01f3    word        text segment
  01fd    word        text segment
  0203    word        symbol[10]
  0206    word        symbol[0]
  0210    word        text segment
  0213    word        symbol[0]
  0217    word        symbol[0]
  0221    word        text segment
  0224    word        symbol[2]
  022a    word        text segment
  022d    word        symbol[2]
  0233    word        text segment
  0236    word        text segment
  0239    word        symbol[0]
  023d    word        symbol[0]
  0251    word        symbol[0]
  0257    word        text segment
  0267    word        symbol[0]
  026b    word        symbol[0]
  026e    word        symbol[0]
  0274    word        symbol[0]
  0278    word        symbol[0]
  027b    word        text segment
  0285    word        text segment
  0295    word        symbol[2]
  0298    word        symbol[2]
  02ac    word        symbol[11]
  02bf    word        text segment
  02c9    word        text segment
  02d3    word        text segment
  02d9    word        symbol[10]
  02e3    word        text segment
  02e6    word        symbol[2]
  02ec    word        text segment
  02ef    word        symbol[2]
  02f5    word        text segment
  0305    word        symbol[2]
  0309    word        symbol[2]
  030c    word        text segment
  030f    word        symbol[0]
  0315    word        text segment
  031d    word        symbol[0]
  0321    word        symbol[0]
  0324    word        symbol[0]
  032a    word        symbol[0]
  032e    word        symbol[0]
  033b    word        symbol[0]
  033f    word        text segment
  0347    word        symbol[0]
  0352    word        symbol[0]
  0358    word        text segment
  0365    word        symbol[0]
  036d    word        text segment
  0375    word        symbol[0]
  0378    word        symbol[0]
  037e    word        text segment
  0381    word        symbol[0]
  0387    word        text segment
  038a    word        symbol[0]
  0390    word        text segment
  0393    word        symbol[0]
  0399    word        text segment
  03a1    word        symbol[0]
  03a5    word        symbol[0]
  03a9    word        symbol[0]
  03b7    word        text segment
  03c5    word        text segment
  03ce    word        text segment
  03d8    word        text segment
  03e6    word        text segment
  03f8    word        symbol[2]
  03fc    word        symbol[2]
  041b    word        text segment
  041e    word        symbol[2]
  0421    word        symbol[1]
  0439    word        text segment
  0443    word        text segment
  045d    word        text segment
  0469    word        symbol[2]
  0476    word        text segment
  0486    word        symbol[2]
  0495    word        symbol[2]
  04b1    word        text segment
  04be    word        text segment
  04c1    word        symbol[1]
  04cc    word        text segment
  04dc    word        symbol[1]
  04e0    word        symbol[1]
  04e3    word        text segment
  04f0    word        text segment
  04f3    word        symbol[2]
  04f9    word        text segment
  04fc    word        symbol[2]
  0502    word        text segment
  0505    word        symbol[2]
  0508    word        symbol[1]
  0515    word        text segment
  0518    word        symbol[2]
  051e    word        text segment
  0521    word        symbol[2]
  0527    word        text segment
  0537    word        symbol[2]
  053b    word        symbol[2]
  053e    word        text segment
  054e    word        symbol[2]
  0552    word        symbol[2]
  0555    word        text segment
  055d    word        symbol[2]
  0561    word        symbol[1]
  0576    word        text segment
  0583    word        symbol[10]
  0594    word        symbol[1]
  05ae    word        text segment
  05c1    word        text segment
  05de    word        text segment
  05e1    word        symbol[0]
  05e7    word        text segment
  05ea    word        symbol[0]
  05f0    word        text segment
  05f3    word        symbol[0]
  05f9    word        text segment
  0603    word        text segment
  061b    word        text segment
  0625    word        text segment
  0635    word        text segment
  0638    word        symbol[0]
  063e    word        text segment
  0648    word        text segment
  0661    word        text segment
  066f    word        symbol[4]
  0672    word        symbol[14]
  0675    word        symbol[4]
  067d    word        symbol[16]
  0680    word        symbol[1]
  0684    word        symbol[1]
  0688    word        symbol[1]
  068d    word        symbol[3]
  0690    word        symbol[3]
  0694    word        symbol[3]
  0698    word        symbol[3]
  069b    word        symbol[3]
  069f    word        symbol[6]
  06bf    word        text segment
  06ca    word        symbol[1]
  06da    word        symbol[5]
  06e0    word        symbol[0]
  06e6    word        text segment
  071d    word        text segment
  0765    word        symbol[0]
  0772    word        text segment
  0775    word        symbol[0]
  077b    word        text segment
  077e    word        symbol[0]
  0784    word        text segment
  0787    word        text segment
  079f    word        symbol[1]
  07a3    word        symbol[8]
  07b0    word        text segment
  07b6    word        text segment
  07c3    word        symbol[10]
  0801    word        text segment
  0811    word        symbol[1]
  0815    word        symbol[15]
  0821    word        text segment
  0827    word        text segment
  0834    word        symbol[10]
  0837    word        symbol[0]
  083d    word        text segment
  0840    word        symbol[0]
  0846    word        text segment
  0849    word        symbol[0]
  084f    word        text segment
  0858    word        text segment
  085b    word        text segment
  085e    word        symbol[0]
  0864    word        text segment
  0887    word        symbol[12]
  088b    word        text segment
  08ae    word        symbol[9]
  08bf    word        text segment
  08c9    word        text segment
  08de    word        text segment
  08e6    word        symbol[1]
  08ea    word        symbol[1]
  08ee    word        symbol[1]
  091f    word        text segment
  092c    word        text segment
  0938    word        symbol[0]
  093e    word        text segment
  094a    word        symbol[2]
  0964    word        text segment
  097c    word        symbol[1]
  0980    word        symbol[7]
  098d    word        text segment
  0993    word        text segment
  09a0    word        symbol[10]
  09a3    word        symbol[0]
  09a9    word        text segment
  09ce    word        text segment
  0a04    word        symbol[0]
  0a0a    word        text segment
  0a0d    word        symbol[0]
  0a13    word        text segment
  0a16    word        symbol[0]
  0a1c    word        text segment
  0a1f    word        symbol[0]
  0a24    word        symbol[0]
  0a27    word        symbol[0]
  0a2c    word        symbol[0]
  0a2f    word        text segment
  0a3c    word        symbol[10]

Data relocations:
  Offset  Type        Target
  ------  ----        ------
  (none)

