=== lib/libwsc/copen.o ===

Header:
  Magic:       0x99
  Config:      0x14 little-endian
  Symlen:      9 chars
  Symtab:      156 bytes (13 symbols)
  Text:        1493 bytes
  Data:        66 bytes
  BSS:         0 bytes
  Heap:        0 bytes
  Text offset: 0x0000
  Data offset: 0x05d5

Disassembly: 1493 bytes
  0000  50           ld d,b
  0001  00           nop
  0002  4f           ld c,a
  0003  00           nop
  0004  4e           ld c,(hl)
  0005  00           nop
  0006  4d           ld c,l
  0007  00           nop
  0008  4c           ld c,h
  0009  00           nop
  000a  4b           ld c,e
  000b  00           nop
  000c  4a           ld c,d
  000d  00           nop
  000e  49           ld c,c
  000f  00           nop
  0010  48           ld c,b
  0011  00           nop
  0012  47           ld b,a
  0013  00           nop
  0014  46           ld b,(hl)
  0015  00           nop
  0016  45           ld b,l
  0017  00           nop
  0018  44           ld b,h
  0019  00           nop
  001a  43           ld b,e
  001b  00           nop
  001c  42           ld b,d
  001d  00           nop
  001e  41           ld b,c
  001f  00           nop
  0020  43           ld b,e
  0021  4f           ld c,a
  0022  4e           ld c,(hl)
  0023  00           nop
  0024  52           ld d,d
  0025  44           ld b,h
  0026  52           ld d,d
  0027  00           nop
  0028  50           ld d,b
  0029  55           ld d,l
  002a  4e           ld c,(hl)
  002b  00           nop
  002c  4c           ld c,h
  002d  53           ld d,e
  002e  54           ld d,h
  002f  00           nop
  0030  cd 00 00     call 0000h
  0033  97           sub a
  0034  32 00 00     ld (0000h),a
  0037  32 01 00     ld (0001h),a
  003a  21 00 00     ld hl,0000h
  003d  3a 00 00     ld a,(0000h)
  0040  96           sub (hl)
  0041  3a 01 00     ld a,(0001h)
  0044  23           inc hl
  0045  9e           sbc a,(hl)
  0046  d2 5b 00     jp nc,005bh
  0049  2a 00 00     ld hl,(0000h)
  004c  e5           push hl
  004d  cd 00 00     call 0000h
  0050  f1           pop af
  0051  2a 00 00     ld hl,(0000h)
  0054  23           inc hl
  0055  22 00 00     ld (0000h),hl
  0058  c3 3a 00     jp 003ah
  005b  3a d7 05     ld a,(05d7h)
  005e  4f           ld c,a
  005f  87           add a,a
  0060  9f           sbc a,a
  0061  47           ld b,a
  0062  c5           push bc
  0063  21 0e 00     ld hl,000eh
  0066  e5           push hl
  0067  cd 00 00     call 0000h
  006a  f1           pop af
  006b  f1           pop af
  006c  2a d5 05     ld hl,(05d5h)
  006f  4d           ld c,l
  0070  44           ld b,h
  0071  c3 00 00     jp 0000h
  0074  cd 00 00     call 0000h
  0077  f5           push af
  0078  21 04 00     ld hl,0004h
  007b  19           add hl,de
  007c  7e           ld a,(hl)
  007d  23           inc hl
  007e  66           ld h,(hl)
  007f  6f           ld l,a
  0080  22 00 00     ld (0000h),hl
  0083  21 f8 ff     ld hl,fff8h
  0086  19           add hl,de
  0087  01 d8 05     ld bc,05d8h
  008a  79           ld a,c
  008b  77           ld (hl),a
  008c  78           ld a,b
  008d  23           inc hl
  008e  77           ld (hl),a
  008f  21 f8 ff     ld hl,fff8h
  0092  19           add hl,de
  0093  7e           ld a,(hl)
  0094  23           inc hl
  0095  66           ld h,(hl)
  0096  6f           ld l,a
  0097  7e           ld a,(hl)
  0098  23           inc hl
  0099  b6           or (hl)
  009a  ca d8 00     jp z,00d8h
  009d  2a 00 00     ld hl,(0000h)
  00a0  22 00 00     ld (0000h),hl
  00a3  21 f8 ff     ld hl,fff8h
  00a6  19           add hl,de
  00a7  7e           ld a,(hl)
  00a8  23           inc hl
  00a9  66           ld h,(hl)
  00aa  6f           ld l,a
  00ab  7e           ld a,(hl)
  00ac  23           inc hl
  00ad  66           ld h,(hl)
  00ae  6f           ld l,a
  00af  22 00 00     ld (0000h),hl
  00b2  2a 00 00     ld hl,(0000h)
  00b5  e5           push hl
  00b6  2a 00 00     ld hl,(0000h)
  00b9  c1           pop bc
  00ba  0a           ld a,(bc)
  00bb  be           cp (hl)
  00bc  c2 ee 00     jp nz,00eeh
  00bf  2a 00 00     ld hl,(0000h)
  00c2  7e           ld a,(hl)
  00c3  b7           or a
  00c4  ca ee 00     jp z,00eeh
  00c7  2a 00 00     ld hl,(0000h)
  00ca  23           inc hl
  00cb  22 00 00     ld (0000h),hl
  00ce  2a 00 00     ld hl,(0000h)
  00d1  23           inc hl
  00d2  22 00 00     ld (0000h),hl
  00d5  c3 b2 00     jp 00b2h
  00d8  01 7f 00     ld bc,007fh
  00db  c3 00 00     jp 0000h
  00de  21 f8 ff     ld hl,fff8h
  00e1  19           add hl,de
  00e2  7e           ld a,(hl)
  00e3  c6 03        add a,03h
  00e5  77           ld (hl),a
  00e6  23           inc hl
  00e7  7e           ld a,(hl)
  00e8  ce 00        adc a,00h
  00ea  77           ld (hl),a
  00eb  c3 8f 00     jp 008fh
  00ee  2a 00 00     ld hl,(0000h)
  00f1  e5           push hl
  00f2  2a 00 00     ld hl,(0000h)
  00f5  c1           pop bc
  00f6  0a           ld a,(bc)
  00f7  be           cp (hl)
  00f8  c2 de 00     jp nz,00deh
  00fb  21 f8 ff     ld hl,fff8h
  00fe  19           add hl,de
  00ff  7e           ld a,(hl)
  0100  23           inc hl
  0101  66           ld h,(hl)
  0102  6f           ld l,a
  0103  23           inc hl
  0104  23           inc hl
  0105  7e           ld a,(hl)
  0106  4f           ld c,a
  0107  87           add a,a
  0108  9f           sbc a,a
  0109  47           ld b,a
  010a  c3 00 00     jp 0000h
  010d  cd 00 00     call 0000h
  0110  21 04 00     ld hl,0004h
  0113  19           add hl,de
  0114  7e           ld a,(hl)
  0115  23           inc hl
  0116  66           ld h,(hl)
  0117  6f           ld l,a
  0118  22 00 00     ld (0000h),hl
  011b  21 06 00     ld hl,0006h
  011e  19           add hl,de
  011f  7e           ld a,(hl)
  0120  23           inc hl
  0121  66           ld h,(hl)
  0122  6f           ld l,a
  0123  22 00 00     ld (0000h),hl
  0126  97           sub a
  0127  32 00 00     ld (0000h),a
  012a  32 01 00     ld (0001h),a
  012d  2a 00 00     ld hl,(0000h)
  0130  7e           ld a,(hl)
  0131  fe 2e        cp 2eh
  0133  ca 99 01     jp z,0199h
  0136  2a 00 00     ld hl,(0000h)
  0139  7e           ld a,(hl)
  013a  b7           or a
  013b  ca 99 01     jp z,0199h
  013e  3a 00 00     ld a,(0000h)
  0141  d6 08        sub 08h
  0143  3a 01 00     ld a,(0001h)
  0146  de 00        sbc a,00h
  0148  f2 8f 01     jp p,018fh
  014b  2a 00 00     ld hl,(0000h)
  014e  e5           push hl
  014f  2a 00 00     ld hl,(0000h)
  0152  23           inc hl
  0153  22 00 00     ld (0000h),hl
  0156  e1           pop hl
  0157  e5           push hl
  0158  2a 00 00     ld hl,(0000h)
  015b  01 01 00     ld bc,0001h
  015e  09           add hl,bc
  015f  e3           ex (sp),hl
  0160  c1           pop bc
  0161  09           add hl,bc
  0162  e5           push hl
  0163  2a 00 00     ld hl,(0000h)
  0166  7e           ld a,(hl)
  0167  fe 61        cp 61h
  0169  da 85 01     jp c,0185h
  016c  2a 00 00     ld hl,(0000h)
  016f  3e 7a        ld a,7ah
  0171  be           cp (hl)
  0172  da 85 01     jp c,0185h
  0175  2a 00 00     ld hl,(0000h)
  0178  7e           ld a,(hl)
  0179  4f           ld c,a
  017a  97           sub a
  017b  47           ld b,a
  017c  21 e0 ff     ld hl,ffe0h
  017f  09           add hl,bc
  0180  4d           ld c,l
  0181  44           ld b,h
  0182  c3 8c 01     jp 018ch
  0185  2a 00 00     ld hl,(0000h)
  0188  7e           ld a,(hl)
  0189  4f           ld c,a
  018a  97           sub a
  018b  47           ld b,a
  018c  e1           pop hl
  018d  79           ld a,c
  018e  77           ld (hl),a
  018f  2a 00 00     ld hl,(0000h)
  0192  23           inc hl
  0193  22 00 00     ld (0000h),hl
  0196  c3 2d 01     jp 012dh
  0199  3a 00 00     ld a,(0000h)
  019c  d6 08        sub 08h
  019e  3a 01 00     ld a,(0001h)
  01a1  de 00        sbc a,00h
  01a3  f2 c2 01     jp p,01c2h
  01a6  2a 00 00     ld hl,(0000h)
  01a9  e5           push hl
  01aa  2a 00 00     ld hl,(0000h)
  01ad  23           inc hl
  01ae  22 00 00     ld (0000h),hl
  01b1  e1           pop hl
  01b2  e5           push hl
  01b3  2a 00 00     ld hl,(0000h)
  01b6  01 01 00     ld bc,0001h
  01b9  09           add hl,bc
  01ba  e3           ex (sp),hl
  01bb  c1           pop bc
  01bc  09           add hl,bc
  01bd  36 20        ld (hl),20h
  01bf  c3 99 01     jp 0199h
  01c2  2a 00 00     ld hl,(0000h)
  01c5  7e           ld a,(hl)
  01c6  fe 2e        cp 2eh
  01c8  c2 d5 01     jp nz,01d5h
  01cb  2a 00 00     ld hl,(0000h)
  01ce  23           inc hl
  01cf  22 00 00     ld (0000h),hl
  01d2  c3 e3 01     jp 01e3h
  01d5  2a 00 00     ld hl,(0000h)
  01d8  7e           ld a,(hl)
  01d9  b7           or a
  01da  ca e3 01     jp z,01e3h
  01dd  01 01 00     ld bc,0001h
  01e0  c3 00 00     jp 0000h
  01e3  97           sub a
  01e4  32 00 00     ld (0000h),a
  01e7  32 01 00     ld (0001h),a
  01ea  2a 00 00     ld hl,(0000h)
  01ed  7e           ld a,(hl)
  01ee  b7           or a
  01ef  ca 4d 02     jp z,024dh
  01f2  3a 00 00     ld a,(0000h)
  01f5  d6 03        sub 03h
  01f7  3a 01 00     ld a,(0001h)
  01fa  de 00        sbc a,00h
  01fc  f2 4d 02     jp p,024dh
  01ff  2a 00 00     ld hl,(0000h)
  0202  e5           push hl
  0203  2a 00 00     ld hl,(0000h)
  0206  23           inc hl
  0207  22 00 00     ld (0000h),hl
  020a  e1           pop hl
  020b  e5           push hl
  020c  2a 00 00     ld hl,(0000h)
  020f  01 09 00     ld bc,0009h
  0212  09           add hl,bc
  0213  e3           ex (sp),hl
  0214  c1           pop bc
  0215  09           add hl,bc
  0216  e5           push hl
  0217  2a 00 00     ld hl,(0000h)
  021a  7e           ld a,(hl)
  021b  fe 61        cp 61h
  021d  da 39 02     jp c,0239h
  0220  2a 00 00     ld hl,(0000h)
  0223  3e 7a        ld a,7ah
  0225  be           cp (hl)
  0226  da 39 02     jp c,0239h
  0229  2a 00 00     ld hl,(0000h)
  022c  7e           ld a,(hl)
  022d  4f           ld c,a
  022e  97           sub a
  022f  47           ld b,a
  0230  21 e0 ff     ld hl,ffe0h
  0233  09           add hl,bc
  0234  4d           ld c,l
  0235  44           ld b,h
  0236  c3 40 02     jp 0240h
  0239  2a 00 00     ld hl,(0000h)
  023c  7e           ld a,(hl)
  023d  4f           ld c,a
  023e  97           sub a
  023f  47           ld b,a
  0240  e1           pop hl
  0241  79           ld a,c
  0242  77           ld (hl),a
  0243  2a 00 00     ld hl,(0000h)
  0246  23           inc hl
  0247  22 00 00     ld (0000h),hl
  024a  c3 ea 01     jp 01eah
  024d  3a 00 00     ld a,(0000h)
  0250  d6 03        sub 03h
  0252  3a 01 00     ld a,(0001h)
  0255  de 00        sbc a,00h
  0257  f2 76 02     jp p,0276h
  025a  2a 00 00     ld hl,(0000h)
  025d  e5           push hl
  025e  2a 00 00     ld hl,(0000h)
  0261  23           inc hl
  0262  22 00 00     ld (0000h),hl
  0265  e1           pop hl
  0266  e5           push hl
  0267  2a 00 00     ld hl,(0000h)
  026a  01 09 00     ld bc,0009h
  026d  09           add hl,bc
  026e  e3           ex (sp),hl
  026f  c1           pop bc
  0270  09           add hl,bc
  0271  36 20        ld (hl),20h
  0273  c3 4d 02     jp 024dh
  0276  2a 00 00     ld hl,(0000h)
  0279  7e           ld a,(hl)
  027a  4f           ld c,a
  027b  97           sub a
  027c  47           ld b,a
  027d  c3 00 00     jp 0000h
__copen:
  0280  cd 00 00     call 0000h
  0283  21 f5 ff     ld hl,fff5h
  0286  39           add hl,sp
  0287  f9           ld sp,hl
  0288  21 04 00     ld hl,0004h
  028b  19           add hl,de
  028c  7e           ld a,(hl)
  028d  23           inc hl
  028e  66           ld h,(hl)
  028f  6f           ld l,a
  0290  22 00 00     ld (0000h),hl
  0293  3a d7 05     ld a,(05d7h)
  0296  fe 7f        cp 7fh
  0298  c2 ac 02     jp nz,02ach
  029b  21 00 00     ld hl,0000h
  029e  e5           push hl
  029f  21 19 00     ld hl,0019h
  02a2  e5           push hl
  02a3  cd 00 00     call 0000h
  02a6  f1           pop af
  02a7  f1           pop af
  02a8  79           ld a,c
  02a9  32 d7 05     ld (05d7h),a
  02ac  21 f6 ff     ld hl,fff6h
  02af  19           add hl,de
  02b0  97           sub a
  02b1  77           ld (hl),a
  02b2  23           inc hl
  02b3  77           ld (hl),a
  02b4  21 f6 ff     ld hl,fff6h
  02b7  19           add hl,de
  02b8  e5           push hl
  02b9  21 00 00     ld hl,0000h
  02bc  c1           pop bc
  02bd  0a           ld a,(bc)
  02be  96           sub (hl)
  02bf  03           inc bc
  02c0  0a           ld a,(bc)
  02c1  23           inc hl
  02c2  9e           sbc a,(hl)
  02c3  d2 d9 02     jp nc,02d9h
  02c6  21 f6 ff     ld hl,fff6h
  02c9  19           add hl,de
  02ca  7e           ld a,(hl)
  02cb  23           inc hl
  02cc  66           ld h,(hl)
  02cd  6f           ld l,a
  02ce  29           add hl,hl
  02cf  29           add hl,hl
  02d0  01 00 00     ld bc,0000h
  02d3  09           add hl,bc
  02d4  7e           ld a,(hl)
  02d5  b7           or a
  02d6  c2 f1 02     jp nz,02f1h
  02d9  21 f6 ff     ld hl,fff6h
  02dc  19           add hl,de
  02dd  e5           push hl
  02de  21 00 00     ld hl,0000h
  02e1  c1           pop bc
  02e2  0a           ld a,(bc)
  02e3  96           sub (hl)
  02e4  03           inc bc
  02e5  0a           ld a,(bc)
  02e6  23           inc hl
  02e7  9e           sbc a,(hl)
  02e8  da 01 03     jp c,0301h
  02eb  01 ff ff     ld bc,ffffh
  02ee  c3 00 00     jp 0000h
  02f1  21 f6 ff     ld hl,fff6h
  02f4  19           add hl,de
  02f5  7e           ld a,(hl)
  02f6  c6 01        add a,01h
  02f8  77           ld (hl),a
  02f9  23           inc hl
  02fa  7e           ld a,(hl)
  02fb  ce 00        adc a,00h
  02fd  77           ld (hl),a
  02fe  c3 b4 02     jp 02b4h
  0301  21 f8 ff     ld hl,fff8h
  0304  19           add hl,de
  0305  e5           push hl
  0306  21 f6 ff     ld hl,fff6h
  0309  19           add hl,de
  030a  7e           ld a,(hl)
  030b  23           inc hl
  030c  66           ld h,(hl)
  030d  6f           ld l,a
  030e  29           add hl,hl
  030f  29           add hl,hl
  0310  01 00 00     ld bc,0000h
  0313  09           add hl,bc
  0314  c1           pop bc
  0315  7d           ld a,l
  0316  02           ld (bc),a
  0317  7c           ld a,h
  0318  03           inc bc
  0319  02           ld (bc),a
  031a  21 f8 ff     ld hl,fff8h
  031d  19           add hl,de
  031e  7e           ld a,(hl)
  031f  23           inc hl
  0320  66           ld h,(hl)
  0321  6f           ld l,a
  0322  36 21        ld (hl),21h
  0324  21 08 00     ld hl,0008h
  0327  19           add hl,de
  0328  7e           ld a,(hl)
  0329  23           inc hl
  032a  b6           or (hl)
  032b  c2 3a 03     jp nz,033ah
  032e  21 f8 ff     ld hl,fff8h
  0331  19           add hl,de
  0332  7e           ld a,(hl)
  0333  23           inc hl
  0334  66           ld h,(hl)
  0335  6f           ld l,a
  0336  7e           ld a,(hl)
  0337  f6 08        or 08h
  0339  77           ld (hl),a
  033a  21 f8 ff     ld hl,fff8h
  033d  19           add hl,de
  033e  7e           ld a,(hl)
  033f  23           inc hl
  0340  66           ld h,(hl)
  0341  6f           ld l,a
  0342  23           inc hl
  0343  23           inc hl
  0344  97           sub a
  0345  77           ld (hl),a
  0346  23           inc hl
  0347  77           ld (hl),a
  0348  21 ef ff     ld hl,ffefh
  034b  19           add hl,de
  034c  3a 00 00     ld a,(0000h)
  034f  77           ld (hl),a
  0350  3a 01 00     ld a,(0001h)
  0353  23           inc hl
  0354  77           ld (hl),a
  0355  97           sub a
  0356  32 00 00     ld (0000h),a
  0359  32 01 00     ld (0001h),a
  035c  2a 00 00     ld hl,(0000h)
  035f  7e           ld a,(hl)
  0360  fe 3a        cp 3ah
  0362  ca be 03     jp z,03beh
  0365  2a 00 00     ld hl,(0000h)
  0368  7e           ld a,(hl)
  0369  b7           or a
  036a  ca be 03     jp z,03beh
  036d  3a 00 00     ld a,(0000h)
  0370  d6 04        sub 04h
  0372  3a 01 00     ld a,(0001h)
  0375  de 00        sbc a,00h
  0377  f2 ef 03     jp p,03efh
  037a  2a 00 00     ld hl,(0000h)
  037d  e5           push hl
  037e  2a 00 00     ld hl,(0000h)
  0381  23           inc hl
  0382  22 00 00     ld (0000h),hl
  0385  e1           pop hl
  0386  e5           push hl
  0387  21 f1 ff     ld hl,fff1h
  038a  19           add hl,de
  038b  e3           ex (sp),hl
  038c  c1           pop bc
  038d  09           add hl,bc
  038e  e5           push hl
  038f  2a 00 00     ld hl,(0000h)
  0392  7e           ld a,(hl)
  0393  fe 61        cp 61h
  0395  da b1 03     jp c,03b1h
  0398  2a 00 00     ld hl,(0000h)
  039b  3e 7a        ld a,7ah
  039d  be           cp (hl)
  039e  da b1 03     jp c,03b1h
  03a1  2a 00 00     ld hl,(0000h)
  03a4  7e           ld a,(hl)
  03a5  4f           ld c,a
  03a6  97           sub a
  03a7  47           ld b,a
  03a8  21 e0 ff     ld hl,ffe0h
  03ab  09           add hl,bc
  03ac  4d           ld c,l
  03ad  44           ld b,h
  03ae  c3 b8 03     jp 03b8h
  03b1  2a 00 00     ld hl,(0000h)
  03b4  7e           ld a,(hl)
  03b5  4f           ld c,a
  03b6  97           sub a
  03b7  47           ld b,a
  03b8  e1           pop hl
  03b9  79           ld a,c
  03ba  77           ld (hl),a
  03bb  c3 ef 03     jp 03efh
  03be  21 f1 ff     ld hl,fff1h
  03c1  19           add hl,de
  03c2  e5           push hl
  03c3  2a 00 00     ld hl,(0000h)
  03c6  e3           ex (sp),hl
  03c7  c1           pop bc
  03c8  09           add hl,bc
  03c9  36 00        ld (hl),00h
  03cb  2a 00 00     ld hl,(0000h)
  03ce  7e           ld a,(hl)
  03cf  fe 3a        cp 3ah
  03d1  ca f9 03     jp z,03f9h
  03d4  21 ef ff     ld hl,ffefh
  03d7  19           add hl,de
  03d8  7e           ld a,(hl)
  03d9  23           inc hl
  03da  66           ld h,(hl)
  03db  6f           ld l,a
  03dc  22 00 00     ld (0000h),hl
  03df  21 f8 ff     ld hl,fff8h
  03e2  19           add hl,de
  03e3  7e           ld a,(hl)
  03e4  23           inc hl
  03e5  66           ld h,(hl)
  03e6  6f           ld l,a
  03e7  23           inc hl
  03e8  3a d7 05     ld a,(05d7h)
  03eb  77           ld (hl),a
  03ec  c3 2e 04     jp 042eh
  03ef  2a 00 00     ld hl,(0000h)
  03f2  23           inc hl
  03f3  22 00 00     ld (0000h),hl
  03f6  c3 5c 03     jp 035ch
  03f9  21 f8 ff     ld hl,fff8h
  03fc  19           add hl,de
  03fd  7e           ld a,(hl)
  03fe  23           inc hl
  03ff  66           ld h,(hl)
  0400  6f           ld l,a
  0401  23           inc hl
  0402  e5           push hl
  0403  21 f1 ff     ld hl,fff1h
  0406  19           add hl,de
  0407  e5           push hl
  0408  cd 74 00     call 0074h
  040b  f1           pop af
  040c  e1           pop hl
  040d  79           ld a,c
  040e  77           ld (hl),a
  040f  7e           ld a,(hl)
  0410  fe 7f        cp 7fh
  0412  c2 27 04     jp nz,0427h
  0415  21 f6 ff     ld hl,fff6h
  0418  19           add hl,de
  0419  4e           ld c,(hl)
  041a  23           inc hl
  041b  46           ld b,(hl)
  041c  c5           push bc
  041d  cd 00 00     call 0000h
  0420  f1           pop af
  0421  01 ff ff     ld bc,ffffh
  0424  c3 00 00     jp 0000h
  0427  2a 00 00     ld hl,(0000h)
  042a  23           inc hl
  042b  22 00 00     ld (0000h),hl
  042e  21 f8 ff     ld hl,fff8h
  0431  19           add hl,de
  0432  7e           ld a,(hl)
  0433  23           inc hl
  0434  66           ld h,(hl)
  0435  6f           ld l,a
  0436  23           inc hl
  0437  7e           ld a,(hl)
  0438  b7           or a
  0439  f2 67 04     jp p,0467h
  043c  21 f8 ff     ld hl,fff8h
  043f  19           add hl,de
  0440  7e           ld a,(hl)
  0441  23           inc hl
  0442  66           ld h,(hl)
  0443  6f           ld l,a
  0444  23           inc hl
  0445  7e           ld a,(hl)
  0446  4f           ld c,a
  0447  87           add a,a
  0448  9f           sbc a,a
  0449  47           ld b,a
  044a  79           ld a,c
  044b  fe ff        cp ffh
  044d  c2 53 04     jp nz,0453h
  0450  78           ld a,b
  0451  fe ff        cp ffh
  0453  c2 c2 04     jp nz,04c2h
  0456  21 06 00     ld hl,0006h
  0459  19           add hl,de
  045a  7e           ld a,(hl)
  045b  fe 01        cp 01h
  045d  c2 64 04     jp nz,0464h
  0460  23           inc hl
  0461  7e           ld a,(hl)
  0462  fe 00        cp 00h
  0464  c2 c2 04     jp nz,04c2h
  0467  21 00 00     ld hl,0000h
  046a  e5           push hl
  046b  21 aa 00     ld hl,00aah
  046e  e5           push hl
  046f  cd 00 00     call 0000h
  0472  f1           pop af
  0473  f1           pop af
  0474  69           ld l,c
  0475  60           ld h,b
  0476  22 00 00     ld (0000h),hl
  0479  21 f8 ff     ld hl,fff8h
  047c  19           add hl,de
  047d  7e           ld a,(hl)
  047e  23           inc hl
  047f  66           ld h,(hl)
  0480  6f           ld l,a
  0481  23           inc hl
  0482  23           inc hl
  0483  3a 00 00     ld a,(0000h)
  0486  77           ld (hl),a
  0487  3a 01 00     ld a,(0001h)
  048a  23           inc hl
  048b  77           ld (hl),a
  048c  21 aa 00     ld hl,00aah
  048f  e5           push hl
  0490  2a 00 00     ld hl,(0000h)
  0493  e5           push hl
  0494  cd 00 00     call 0000h
  0497  f1           pop af
  0498  f1           pop af
  0499  2a 00 00     ld hl,(0000h)
  049c  01 28 00     ld bc,0028h
  049f  09           add hl,bc
  04a0  3e ff        ld a,ffh
  04a2  77           ld (hl),a
  04a3  3e ff        ld a,ffh
  04a5  23           inc hl
  04a6  77           ld (hl),a
  04a7  21 f8 ff     ld hl,fff8h
  04aa  19           add hl,de
  04ab  7e           ld a,(hl)
  04ac  23           inc hl
  04ad  66           ld h,(hl)
  04ae  6f           ld l,a
  04af  23           inc hl
  04b0  7e           ld a,(hl)
  04b1  b7           or a
  04b2  f2 cf 04     jp p,04cfh
  04b5  21 f6 ff     ld hl,fff6h
  04b8  19           add hl,de
  04b9  7e           ld a,(hl)
  04ba  23           inc hl
  04bb  66           ld h,(hl)
  04bc  6f           ld l,a
  04bd  4d           ld c,l
  04be  44           ld b,h
  04bf  c3 00 00     jp 0000h
  04c2  21 f6 ff     ld hl,fff6h
  04c5  19           add hl,de
  04c6  7e           ld a,(hl)
  04c7  23           inc hl
  04c8  66           ld h,(hl)
  04c9  6f           ld l,a
  04ca  4d           ld c,l
  04cb  44           ld b,h
  04cc  c3 00 00     jp 0000h
  04cf  2a 00 00     ld hl,(0000h)
  04d2  e5           push hl
  04d3  2a 00 00     ld hl,(0000h)
  04d6  e5           push hl
  04d7  cd 0d 01     call 010dh
  04da  f1           pop af
  04db  f1           pop af
  04dc  79           ld a,c
  04dd  b0           or b
  04de  ca f3 04     jp z,04f3h
  04e1  21 f6 ff     ld hl,fff6h
  04e4  19           add hl,de
  04e5  4e           ld c,(hl)
  04e6  23           inc hl
  04e7  46           ld b,(hl)
  04e8  c5           push bc
  04e9  cd 00 00     call 0000h
  04ec  f1           pop af
  04ed  01 ff ff     ld bc,ffffh
  04f0  c3 00 00     jp 0000h
  04f3  21 f8 ff     ld hl,fff8h
  04f6  19           add hl,de
  04f7  7e           ld a,(hl)
  04f8  23           inc hl
  04f9  66           ld h,(hl)
  04fa  6f           ld l,a
  04fb  23           inc hl
  04fc  7e           ld a,(hl)
  04fd  4f           ld c,a
  04fe  87           add a,a
  04ff  9f           sbc a,a
  0500  47           ld b,a
  0501  c5           push bc
  0502  21 0e 00     ld hl,000eh
  0505  e5           push hl
  0506  cd 00 00     call 0000h
  0509  f1           pop af
  050a  f1           pop af
  050b  21 06 00     ld hl,0006h
  050e  19           add hl,de
  050f  7e           ld a,(hl)
  0510  23           inc hl
  0511  66           ld h,(hl)
  0512  6f           ld l,a
  0513  7d           ld a,l
  0514  e6 fb        and fbh
  0516  6f           ld l,a
  0517  7c           ld a,h
  0518  e6 ff        and ffh
  051a  67           ld h,a
  051b  7d           ld a,l
  051c  fe 01        cp 01h
  051e  c2 24 05     jp nz,0524h
  0521  7c           ld a,h
  0522  fe 00        cp 00h
  0524  c2 4b 05     jp nz,054bh
  0527  2a 00 00     ld hl,(0000h)
  052a  e5           push hl
  052b  21 0f 00     ld hl,000fh
  052e  e5           push hl
  052f  cd 00 00     call 0000h
  0532  f1           pop af
  0533  f1           pop af
  0534  78           ld a,b
  0535  b7           or a
  0536  f2 b2 05     jp p,05b2h
  0539  21 f6 ff     ld hl,fff6h
  053c  19           add hl,de
  053d  4e           ld c,(hl)
  053e  23           inc hl
  053f  46           ld b,(hl)
  0540  c5           push bc
  0541  cd 00 00     call 0000h
  0544  f1           pop af
  0545  01 ff ff     ld bc,ffffh
  0548  c3 00 00     jp 0000h
  054b  2a 00 00     ld hl,(0000h)
  054e  e5           push hl
  054f  21 13 00     ld hl,0013h
  0552  e5           push hl
  0553  cd 00 00     call 0000h
  0556  f1           pop af
  0557  f1           pop af
  0558  21 06 00     ld hl,0006h
  055b  19           add hl,de
  055c  7e           ld a,(hl)
  055d  fe 02        cp 02h
  055f  c2 66 05     jp nz,0566h
  0562  23           inc hl
  0563  7e           ld a,(hl)
  0564  fe 00        cp 00h
  0566  c2 82 05     jp nz,0582h
  0569  21 f6 ff     ld hl,fff6h
  056c  19           add hl,de
  056d  4e           ld c,(hl)
  056e  23           inc hl
  056f  46           ld b,(hl)
  0570  c5           push bc
  0571  cd 00 00     call 0000h
  0574  f1           pop af
  0575  21 f6 ff     ld hl,fff6h
  0578  19           add hl,de
  0579  7e           ld a,(hl)
  057a  23           inc hl
  057b  66           ld h,(hl)
  057c  6f           ld l,a
  057d  4d           ld c,l
  057e  44           ld b,h
  057f  c3 00 00     jp 0000h
  0582  2a 00 00     ld hl,(0000h)
  0585  e5           push hl
  0586  21 16 00     ld hl,0016h
  0589  e5           push hl
  058a  cd 00 00     call 0000h
  058d  f1           pop af
  058e  f1           pop af
  058f  78           ld a,b
  0590  b7           or a
  0591  f2 a6 05     jp p,05a6h
  0594  21 f6 ff     ld hl,fff6h
  0597  19           add hl,de
  0598  4e           ld c,(hl)
  0599  23           inc hl
  059a  46           ld b,(hl)
  059b  c5           push bc
  059c  cd 00 00     call 0000h
  059f  f1           pop af
  05a0  01 ff ff     ld bc,ffffh
  05a3  c3 00 00     jp 0000h
  05a6  21 f8 ff     ld hl,fff8h
  05a9  19           add hl,de
  05aa  7e           ld a,(hl)
  05ab  23           inc hl
  05ac  66           ld h,(hl)
  05ad  6f           ld l,a
  05ae  7e           ld a,(hl)
  05af  f6 10        or 10h
  05b1  77           ld (hl),a
  05b2  21 d5 05     ld hl,05d5h
  05b5  7e           ld a,(hl)
  05b6  23           inc hl
  05b7  b6           or (hl)
  05b8  c2 c8 05     jp nz,05c8h
  05bb  21 30 00     ld hl,0030h
  05be  e5           push hl
  05bf  cd 00 00     call 0000h
  05c2  f1           pop af
  05c3  69           ld l,c
  05c4  60           ld h,b
  05c5  22 d5 05     ld (05d5h),hl
  05c8  21 f6 ff     ld hl,fff6h
  05cb  19           add hl,de
  05cc  7e           ld a,(hl)
  05cd  23           inc hl
  05ce  66           ld h,(hl)
  05cf  6f           ld l,a
  05d0  4d           ld c,l
  05d1  44           ld b,h
  05d2  c3 00 00     jp 0000h

Data segment: 66 bytes
  0000: 00 00 7f 2c 00 fc 28 00  fd 24 00 fe 20 00 ff 1e  |...,..(..$.. ...|
  0010: 00 00 1c 00 01 1a 00 02  18 00 03 16 00 04 14 00  |................|
  0020: 05 12 00 06 10 00 07 0e  00 08 0c 00 09 0a 00 0a  |................|
  0030: 08 00 0b 06 00 0c 04 00  0d 02 00 0e 00 00 0f 00  |................|
  0040: 00 00                                             |..|

Symbol table: 13 symbols (9-char names)
  Index  Value  Type Seg    Global  Name
  -----  -----  ---- -----  ------  ----
  [  0]  0000   08   ext    yes      __nfiles
  [  1]  0000   08   ext    yes      __clrbuf
  [  2]  0000   08   ext    yes      c.r4
  [  3]  0000   08   ext    yes      _onexit
  [  4]  0000   08   ext    yes      c.r3
  [  5]  0000   08   ext    yes      c.r2
  [  6]  0000   08   ext    yes      _close
  [  7]  0000   08   ext    yes      __wcbs
  [  8]  0000   08   ext    yes      _alloc
  [  9]  0000   08   ext    yes      _cpm
  [ 10]  0000   08   ext    yes      c.rets
  [ 11]  0000   08   ext    yes      c.ents
  [ 12]  0280   0d   text   yes      __copen

Text relocations:
  Offset  Type        Target
  ------  ----        ------
  0031    word        symbol[11]
  0035    word        symbol[2]
  0038    word        symbol[2]
  003b    word        symbol[0]
  003e    word        symbol[2]
  0042    word        symbol[2]
  0047    word        text segment
  004a    word        symbol[2]
  004e    word        symbol[6]
  0052    word        symbol[2]
  0056    word        symbol[2]
  0059    word        text segment
  005c    word        data segment
  0068    word        symbol[9]
  006d    word        data segment
  0072    word        symbol[10]
  0075    word        symbol[11]
  0081    word        symbol[2]
  0088    word        data segment
  009b    word        text segment
  009e    word        symbol[2]
  00a1    word        symbol[4]
  00b0    word        symbol[5]
  00b3    word        symbol[4]
  00b7    word        symbol[5]
  00bd    word        text segment
  00c0    word        symbol[5]
  00c5    word        text segment
  00c8    word        symbol[4]
  00cc    word        symbol[4]
  00cf    word        symbol[5]
  00d3    word        symbol[5]
  00d6    word        text segment
  00dc    word        symbol[10]
  00ec    word        text segment
  00ef    word        symbol[4]
  00f3    word        symbol[5]
  00f9    word        text segment
  010b    word        symbol[10]
  010e    word        symbol[11]
  0119    word        symbol[2]
  0124    word        symbol[5]
  0128    word        symbol[4]
  012b    word        symbol[4]
  012e    word        symbol[5]
  0134    word        text segment
  0137    word        symbol[5]
  013c    word        text segment
  013f    word        symbol[4]
  0144    word        symbol[4]
  0149    word        text segment
  014c    word        symbol[4]
  0150    word        symbol[4]
  0154    word        symbol[4]
  0159    word        symbol[2]
  0164    word        symbol[5]
  016a    word        text segment
  016d    word        symbol[5]
  0173    word        text segment
  0176    word        symbol[5]
  0183    word        text segment
  0186    word        symbol[5]
  0190    word        symbol[5]
  0194    word        symbol[5]
  0197    word        text segment
  019a    word        symbol[4]
  019f    word        symbol[4]
  01a4    word        text segment
  01a7    word        symbol[4]
  01ab    word        symbol[4]
  01af    word        symbol[4]
  01b4    word        symbol[2]
  01c0    word        text segment
  01c3    word        symbol[5]
  01c9    word        text segment
  01cc    word        symbol[5]
  01d0    word        symbol[5]
  01d3    word        text segment
  01d6    word        symbol[5]
  01db    word        text segment
  01e1    word        symbol[10]
  01e5    word        symbol[4]
  01e8    word        symbol[4]
  01eb    word        symbol[5]
  01f0    word        text segment
  01f3    word        symbol[4]
  01f8    word        symbol[4]
  01fd    word        text segment
  0200    word        symbol[4]
  0204    word        symbol[4]
  0208    word        symbol[4]
  020d    word        symbol[2]
  0218    word        symbol[5]
  021e    word        text segment
  0221    word        symbol[5]
  0227    word        text segment
  022a    word        symbol[5]
  0237    word        text segment
  023a    word        symbol[5]
  0244    word        symbol[5]
  0248    word        symbol[5]
  024b    word        text segment
  024e    word        symbol[4]
  0253    word        symbol[4]
  0258    word        text segment
  025b    word        symbol[4]
  025f    word        symbol[4]
  0263    word        symbol[4]
  0268    word        symbol[2]
  0274    word        text segment
  0277    word        symbol[5]
  027e    word        symbol[10]
  0281    word        symbol[11]
  0291    word        symbol[2]
  0294    word        data segment
  0299    word        text segment
  02a4    word        symbol[9]
  02aa    word        data segment
  02ba    word        symbol[0]
  02c4    word        text segment
  02d1    word        symbol[7]
  02d7    word        text segment
  02df    word        symbol[0]
  02e9    word        text segment
  02ef    word        symbol[10]
  02ff    word        text segment
  0311    word        symbol[7]
  032c    word        text segment
  034d    word        symbol[2]
  0351    word        symbol[2]
  0357    word        symbol[5]
  035a    word        symbol[5]
  035d    word        symbol[2]
  0363    word        text segment
  0366    word        symbol[2]
  036b    word        text segment
  036e    word        symbol[5]
  0373    word        symbol[5]
  0378    word        text segment
  037b    word        symbol[5]
  037f    word        symbol[5]
  0383    word        symbol[5]
  0390    word        symbol[2]
  0396    word        text segment
  0399    word        symbol[2]
  039f    word        text segment
  03a2    word        symbol[2]
  03af    word        text segment
  03b2    word        symbol[2]
  03bc    word        text segment
  03c4    word        symbol[5]
  03cc    word        symbol[2]
  03d2    word        text segment
  03dd    word        symbol[2]
  03e9    word        data segment
  03ed    word        text segment
  03f0    word        symbol[2]
  03f4    word        symbol[2]
  03f7    word        text segment
  0409    word        text segment
  0413    word        text segment
  041e    word        symbol[6]
  0425    word        symbol[10]
  0428    word        symbol[2]
  042c    word        symbol[2]
  043a    word        text segment
  044e    word        text segment
  0454    word        text segment
  045e    word        text segment
  0465    word        text segment
  0470    word        symbol[8]
  0477    word        symbol[4]
  0484    word        symbol[4]
  0488    word        symbol[4]
  0491    word        symbol[4]
  0495    word        symbol[1]
  049a    word        symbol[4]
  04b3    word        text segment
  04c0    word        symbol[10]
  04cd    word        symbol[10]
  04d0    word        symbol[2]
  04d4    word        symbol[4]
  04d8    word        text segment
  04df    word        text segment
  04ea    word        symbol[6]
  04f1    word        symbol[10]
  0507    word        symbol[9]
  051f    word        text segment
  0525    word        text segment
  0528    word        symbol[4]
  0530    word        symbol[9]
  0537    word        text segment
  0542    word        symbol[6]
  0549    word        symbol[10]
  054c    word        symbol[4]
  0554    word        symbol[9]
  0560    word        text segment
  0567    word        text segment
  0572    word        symbol[6]
  0580    word        symbol[10]
  0583    word        symbol[4]
  058b    word        symbol[9]
  0592    word        text segment
  059d    word        symbol[6]
  05a4    word        symbol[10]
  05b3    word        data segment
  05b9    word        text segment
  05bc    word        text segment
  05c0    word        symbol[3]
  05c6    word        data segment
  05d3    word        symbol[10]

Data relocations:
  Offset  Type        Target
  ------  ----        ------
  0003    word        text segment
  0006    word        text segment
  0009    word        text segment
  000c    word        text segment
  000f    word        text segment
  0012    word        text segment
  0015    word        text segment
  0018    word        text segment
  001b    word        text segment
  001e    word        text segment
  0021    word        text segment
  0024    word        text segment
  0027    word        text segment
  002a    word        text segment
  002d    word        text segment
  0030    word        text segment
  0033    word        text segment
  0036    word        text segment
  0039    word        text segment
  003c    word        text segment

