=== lib/libwsc/ddiv.o ===

Header:
  Magic:       0x99
  Config:      0x14 little-endian
  Symlen:      9 chars
  Symtab:      48 bytes (4 symbols)
  Text:        358 bytes
  Data:        0 bytes
  BSS:         0 bytes
  Heap:        0 bytes
  Text offset: 0x0000
  Data offset: 0x0166

Disassembly: 358 bytes
c.ddiv:
  0000  e5           push hl
  0001  c5           push bc
  0002  d5           push de
  0003  21 00 00     ld hl,c.ddiv
  0006  39           add hl,sp
  0007  eb           ex de,hl
  0008  21 e1 ff     ld hl,ffe1h
  000b  39           add hl,sp
  000c  f9           ld sp,hl
  000d  21 eb ff     ld hl,ffebh
  0010  19           add hl,de
  0011  36 00        ld (hl),00h
  0013  21 08 00     ld hl,0008h
  0016  19           add hl,de
  0017  4e           ld c,(hl)
  0018  23           inc hl
  0019  46           ld b,(hl)
  001a  c5           push bc
  001b  21 f7 ff     ld hl,fff7h
  001e  19           add hl,de
  001f  e5           push hl
  0020  cd 00 00     call c.ddiv
  0023  f1           pop af
  0024  f1           pop af
  0025  79           ld a,c
  0026  b0           or b
  0027  c2 4a 00     jp nz,004ah
  002a  21 0a 00     ld hl,000ah
  002d  19           add hl,de
  002e  4e           ld c,(hl)
  002f  23           inc hl
  0030  46           ld b,(hl)
  0031  03           inc bc
  0032  0a           ld a,(bc)
  0033  f6 7f        or 7fh
  0035  02           ld (bc),a
  0036  3e ff        ld a,ffh
  0038  0b           dec bc
  0039  02           ld (bc),a
  003a  03           inc bc
  003b  03           inc bc
  003c  02           ld (bc),a
  003d  03           inc bc
  003e  02           ld (bc),a
  003f  03           inc bc
  0040  02           ld (bc),a
  0041  03           inc bc
  0042  02           ld (bc),a
  0043  03           inc bc
  0044  02           ld (bc),a
  0045  03           inc bc
  0046  02           ld (bc),a
  0047  c3 60 01     jp 0160h
  004a  21 ff ff     ld hl,ffffh
  004d  19           add hl,de
  004e  7e           ld a,(hl)
  004f  b7           or a
  0050  f2 6a 00     jp p,006ah
  0053  21 f7 ff     ld hl,fff7h
  0056  19           add hl,de
  0057  d5           push de
  0058  1e 08        ld e,08h
  005a  b7           or a
  005b  3e 00        ld a,00h
  005d  23           inc hl
  005e  9e           sbc a,(hl)
  005f  77           ld (hl),a
  0060  1d           dec e
  0061  c2 5b 00     jp nz,005bh
  0064  d1           pop de
  0065  21 eb ff     ld hl,ffebh
  0068  19           add hl,de
  0069  34           inc (hl)
  006a  21 ec ff     ld hl,ffech
  006d  19           add hl,de
  006e  71           ld (hl),c
  006f  23           inc hl
  0070  70           ld (hl),b
  0071  21 0a 00     ld hl,000ah
  0074  19           add hl,de
  0075  4e           ld c,(hl)
  0076  23           inc hl
  0077  46           ld b,(hl)
  0078  03           inc bc
  0079  0a           ld a,(bc)
  007a  b7           or a
  007b  f2 86 00     jp p,0086h
  007e  e6 7f        and 7fh
  0080  02           ld (bc),a
  0081  21 eb ff     ld hl,ffebh
  0084  19           add hl,de
  0085  34           inc (hl)
  0086  0b           dec bc
  0087  c5           push bc
  0088  21 ee ff     ld hl,ffeeh
  008b  19           add hl,de
  008c  e5           push hl
  008d  cd 00 00     call c.ddiv
  0090  f1           pop af
  0091  f1           pop af
  0092  79           ld a,c
  0093  b0           or b
  0094  ca 60 01     jp z,0160h
  0097  79           ld a,c
  0098  21 ec ff     ld hl,ffech
  009b  19           add hl,de
  009c  96           sub (hl)
  009d  4f           ld c,a
  009e  78           ld a,b
  009f  23           inc hl
  00a0  9e           sbc a,(hl)
  00a1  47           ld b,a
  00a2  79           ld a,c
  00a3  c6 80        add a,80h
  00a5  2b           dec hl
  00a6  77           ld (hl),a
  00a7  78           ld a,b
  00a8  ce 00        adc a,00h
  00aa  23           inc hl
  00ab  77           ld (hl),a
  00ac  97           sub a
  00ad  0e 09        ld c,09h
  00af  21 e0 ff     ld hl,ffe0h
  00b2  19           add hl,de
  00b3  23           inc hl
  00b4  77           ld (hl),a
  00b5  0d           dec c
  00b6  c2 b3 00     jp nz,00b3h
  00b9  21 ea ff     ld hl,ffeah
  00bc  19           add hl,de
  00bd  36 39        ld (hl),39h
  00bf  21 e1 ff     ld hl,ffe1h
  00c2  19           add hl,de
  00c3  0e 08        ld c,08h
  00c5  b7           or a
  00c6  23           inc hl
  00c7  7e           ld a,(hl)
  00c8  17           rla
  00c9  77           ld (hl),a
  00ca  0d           dec c
  00cb  c2 c6 00     jp nz,00c6h
  00ce  21 f7 ff     ld hl,fff7h
  00d1  19           add hl,de
  00d2  4d           ld c,l
  00d3  44           ld b,h
  00d4  21 00 00     ld hl,c.ddiv
  00d7  19           add hl,de
  00d8  d5           push de
  00d9  1e 09        ld e,09h
  00db  0b           dec bc
  00dc  0a           ld a,(bc)
  00dd  2b           dec hl
  00de  be           cp (hl)
  00df  c2 e6 00     jp nz,00e6h
  00e2  1d           dec e
  00e3  c2 db 00     jp nz,00dbh
  00e6  d1           pop de
  00e7  da 07 01     jp c,0107h
  00ea  21 ed ff     ld hl,ffedh
  00ed  19           add hl,de
  00ee  4d           ld c,l
  00ef  44           ld b,h
  00f0  21 f6 ff     ld hl,fff6h
  00f3  19           add hl,de
  00f4  d5           push de
  00f5  1e 09        ld e,09h
  00f7  b7           or a
  00f8  03           inc bc
  00f9  0a           ld a,(bc)
  00fa  23           inc hl
  00fb  9e           sbc a,(hl)
  00fc  02           ld (bc),a
  00fd  1d           dec e
  00fe  c2 f8 00     jp nz,00f8h
  0101  d1           pop de
  0102  21 e2 ff     ld hl,ffe2h
  0105  19           add hl,de
  0106  34           inc (hl)
  0107  21 00 00     ld hl,c.ddiv
  010a  19           add hl,de
  010b  0e 09        ld c,09h
  010d  b7           or a
  010e  2b           dec hl
  010f  7e           ld a,(hl)
  0110  1f           rra
  0111  77           ld (hl),a
  0112  0d           dec c
  0113  c2 0e 01     jp nz,010eh
  0116  21 ea ff     ld hl,ffeah
  0119  19           add hl,de
  011a  35           dec (hl)
  011b  c2 bf 00     jp nz,00bfh
  011e  21 ec ff     ld hl,ffech
  0121  19           add hl,de
  0122  4e           ld c,(hl)
  0123  23           inc hl
  0124  46           ld b,(hl)
  0125  c5           push bc
  0126  21 e1 ff     ld hl,ffe1h
  0129  19           add hl,de
  012a  e5           push hl
  012b  cd 00 00     call c.ddiv
  012e  f1           pop af
  012f  f1           pop af
  0130  21 eb ff     ld hl,ffebh
  0133  19           add hl,de
  0134  7e           ld a,(hl)
  0135  e6 01        and 01h
  0137  ca 48 01     jp z,0148h
  013a  21 e1 ff     ld hl,ffe1h
  013d  19           add hl,de
  013e  7e           ld a,(hl)
  013f  23           inc hl
  0140  b6           or (hl)
  0141  ca 48 01     jp z,0148h
  0144  7e           ld a,(hl)
  0145  f6 80        or 80h
  0147  77           ld (hl),a
  0148  21 0a 00     ld hl,000ah
  014b  19           add hl,de
  014c  4e           ld c,(hl)
  014d  23           inc hl
  014e  46           ld b,(hl)
  014f  0b           dec bc
  0150  21 e0 ff     ld hl,ffe0h
  0153  19           add hl,de
  0154  d5           push de
  0155  1e 08        ld e,08h
  0157  23           inc hl
  0158  7e           ld a,(hl)
  0159  03           inc bc
  015a  02           ld (bc),a
  015b  1d           dec e
  015c  c2 57 01     jp nz,0157h
  015f  d1           pop de
  0160  eb           ex de,hl
  0161  f9           ld sp,hl
  0162  d1           pop de
  0163  c3 00 00     jp c.ddiv

Data segment: (empty)

Symbol table: 4 symbols (9-char names)
  Index  Value  Type Seg    Global  Name
  -----  -----  ---- -----  ------  ----
  [  0]  0000   08   ext    yes      c.unpk
  [  1]  0000   08   ext    yes      c.lret
  [  2]  0000   08   ext    yes      c.repk
  [  3]  0000   0d   text   yes      c.ddiv

Text relocations:
  Offset  Type        Target
  ------  ----        ------
  0021    word        symbol[0]
  0028    word        text segment
  0048    word        text segment
  0051    word        text segment
  0062    word        text segment
  007c    word        text segment
  008e    word        symbol[0]
  0095    word        text segment
  00b7    word        text segment
  00cc    word        text segment
  00e0    word        text segment
  00e4    word        text segment
  00e8    word        text segment
  00ff    word        text segment
  0114    word        text segment
  011c    word        text segment
  012c    word        symbol[2]
  0138    word        text segment
  0142    word        text segment
  015d    word        text segment
  0164    word        symbol[1]

Data relocations:
  Offset  Type        Target
  ------  ----        ------
  (none)

