=== lib/libwsc/getfl.o ===

Header:
  Magic:       0x99
  Config:      0x14 little-endian
  Symlen:      9 chars
  Symtab:      168 bytes (14 symbols)
  Text:        2046 bytes
  Data:        0 bytes
  BSS:         0 bytes
  Heap:        0 bytes
  Text offset: 0x0000
  Data offset: 0x07fe

Disassembly: 2046 bytes
  0000  0a           ld a,(bc)
  0001  00           nop
  0002  5d           ld e,l
  0003  00           nop
  0004  20 00        jr nz,0006h
  0006  5e           ld e,(hl)
  0007  00           nop
  0008  20 00        jr nz,000ah
  000a  2d           dec l
  000b  5b           ld e,e
  000c  00           nop
  000d  cd 00 00     call 0000h
  0010  21 04 00     ld hl,0004h
  0013  19           add hl,de
  0014  7e           ld a,(hl)
  0015  23           inc hl
  0016  66           ld h,(hl)
  0017  6f           ld l,a
  0018  22 00 00     ld (0000h),hl
  001b  21 06 00     ld hl,0006h
  001e  19           add hl,de
  001f  7e           ld a,(hl)
  0020  23           inc hl
  0021  66           ld h,(hl)
  0022  6f           ld l,a
  0023  22 00 00     ld (0000h),hl
  0026  21 00 00     ld hl,0000h
  0029  e5           push hl
  002a  cd 00 00     call 0000h
  002d  f1           pop af
  002e  69           ld l,c
  002f  60           ld h,b
  0030  22 00 00     ld (0000h),hl
  0033  2a 00 00     ld hl,(0000h)
  0036  7e           ld a,(hl)
  0037  b7           or a
  0038  ca 5e 00     jp z,005eh
  003b  2a 00 00     ld hl,(0000h)
  003e  7e           ld a,(hl)
  003f  fe 46        cp 46h
  0041  ca 7b 00     jp z,007bh
  0044  2a 00 00     ld hl,(0000h)
  0047  e5           push hl
  0048  2a 00 00     ld hl,(0000h)
  004b  e5           push hl
  004c  21 02 00     ld hl,0002h
  004f  e5           push hl
  0050  cd 85 07     call 0785h
  0053  f1           pop af
  0054  f1           pop af
  0055  f1           pop af
  0056  69           ld l,c
  0057  60           ld h,b
  0058  22 00 00     ld (0000h),hl
  005b  c3 e6 00     jp 00e6h
  005e  21 01 00     ld hl,0001h
  0061  e5           push hl
  0062  21 00 00     ld hl,0000h
  0065  e5           push hl
  0066  21 02 00     ld hl,0002h
  0069  e5           push hl
  006a  cd 00 00     call 0000h
  006d  f1           pop af
  006e  f1           pop af
  006f  f1           pop af
  0070  21 00 00     ld hl,0000h
  0073  e5           push hl
  0074  cd 00 00     call 0000h
  0077  f1           pop af
  0078  c3 00 00     jp 0000h
  007b  21 02 00     ld hl,0002h
  007e  e5           push hl
  007f  21 0a 00     ld hl,000ah
  0082  e5           push hl
  0083  21 02 00     ld hl,0002h
  0086  e5           push hl
  0087  cd 00 00     call 0000h
  008a  f1           pop af
  008b  f1           pop af
  008c  f1           pop af
  008d  2a 00 00     ld hl,(0000h)
  0090  09           add hl,bc
  0091  22 00 00     ld (0000h),hl
  0094  2a 00 00     ld hl,(0000h)
  0097  7e           ld a,(hl)
  0098  fe 3a        cp 3ah
  009a  ca cd 00     jp z,00cdh
  009d  2a 00 00     ld hl,(0000h)
  00a0  7e           ld a,(hl)
  00a1  fe 2c        cp 2ch
  00a3  c2 f0 00     jp nz,00f0h
  00a6  2a 00 00     ld hl,(0000h)
  00a9  01 01 00     ld bc,0001h
  00ac  09           add hl,bc
  00ad  7e           ld a,(hl)
  00ae  fe 3a        cp 3ah
  00b0  ca f0 00     jp z,00f0h
  00b3  2a 00 00     ld hl,(0000h)
  00b6  e5           push hl
  00b7  21 08 00     ld hl,0008h
  00ba  e5           push hl
  00bb  21 02 00     ld hl,0002h
  00be  e5           push hl
  00bf  cd 85 07     call 0785h
  00c2  f1           pop af
  00c3  f1           pop af
  00c4  f1           pop af
  00c5  69           ld l,c
  00c6  60           ld h,b
  00c7  22 00 00     ld (0000h),hl
  00ca  c3 52 01     jp 0152h
  00cd  21 01 00     ld hl,0001h
  00d0  e5           push hl
  00d1  21 02 00     ld hl,0002h
  00d4  e5           push hl
  00d5  21 02 00     ld hl,0002h
  00d8  e5           push hl
  00d9  cd 00 00     call 0000h
  00dc  f1           pop af
  00dd  f1           pop af
  00de  f1           pop af
  00df  2a 00 00     ld hl,(0000h)
  00e2  09           add hl,bc
  00e3  22 00 00     ld (0000h),hl
  00e6  2a 00 00     ld hl,(0000h)
  00e9  23           inc hl
  00ea  22 00 00     ld (0000h),hl
  00ed  c3 33 00     jp 0033h
  00f0  2a 00 00     ld hl,(0000h)
  00f3  7e           ld a,(hl)
  00f4  fe 3e        cp 3eh
  00f6  c2 39 01     jp nz,0139h
  00f9  21 01 00     ld hl,0001h
  00fc  e5           push hl
  00fd  21 06 00     ld hl,0006h
  0100  e5           push hl
  0101  21 02 00     ld hl,0002h
  0104  e5           push hl
  0105  cd 00 00     call 0000h
  0108  f1           pop af
  0109  f1           pop af
  010a  f1           pop af
  010b  2a 00 00     ld hl,(0000h)
  010e  09           add hl,bc
  010f  22 00 00     ld (0000h),hl
  0112  2a 00 00     ld hl,(0000h)
  0115  01 01 00     ld bc,0001h
  0118  09           add hl,bc
  0119  7e           ld a,(hl)
  011a  fe 3a        cp 3ah
  011c  ca 52 01     jp z,0152h
  011f  2a 00 00     ld hl,(0000h)
  0122  e5           push hl
  0123  21 04 00     ld hl,0004h
  0126  e5           push hl
  0127  21 02 00     ld hl,0002h
  012a  e5           push hl
  012b  cd 85 07     call 0785h
  012e  f1           pop af
  012f  f1           pop af
  0130  f1           pop af
  0131  69           ld l,c
  0132  60           ld h,b
  0133  22 00 00     ld (0000h),hl
  0136  c3 52 01     jp 0152h
  0139  21 01 00     ld hl,0001h
  013c  e5           push hl
  013d  2a 00 00     ld hl,(0000h)
  0140  e5           push hl
  0141  21 02 00     ld hl,0002h
  0144  e5           push hl
  0145  cd 00 00     call 0000h
  0148  f1           pop af
  0149  f1           pop af
  014a  f1           pop af
  014b  2a 00 00     ld hl,(0000h)
  014e  09           add hl,bc
  014f  22 00 00     ld (0000h),hl
  0152  2a 00 00     ld hl,(0000h)
  0155  23           inc hl
  0156  22 00 00     ld (0000h),hl
  0159  c3 94 00     jp 0094h
  015c  39           add hl,sp
  015d  06 3e        ld b,3eh
  015f  00           nop
  0160  a4           and h
  0161  05           dec b
  0162  00           nop
  0163  00           nop
  0164  a4           and h
  0165  05           dec b
  0166  3a 00 a4     ld a,(a400h)
  0169  05           dec b
  016a  2c           inc l
  016b  00           nop
  016c  69           ld l,c
  016d  03           inc bc
  016e  23           inc hl
  016f  00           nop
  0170  3e 03        ld a,03h
  0172  3f           ccf
  0173  00           nop
  0174  b5           or l
  0175  02           ld (bc),a
  0176  2a 00 00     ld hl,(0000h)
  0179  00           nop
  017a  0d           dec c
  017b  07           rlca
  017c  2d           dec l
  017d  00           nop
  017e  2d           dec l
  017f  2d           dec l
  0180  00           nop
_getflag:
  0181  cd 00 00     call 0000h
  0184  21 ec ff     ld hl,ffech
  0187  39           add hl,sp
  0188  f9           ld sp,hl
  0189  21 06 00     ld hl,0006h
  018c  19           add hl,de
  018d  7e           ld a,(hl)
  018e  23           inc hl
  018f  66           ld h,(hl)
  0190  6f           ld l,a
  0191  7e           ld a,(hl)
  0192  c6 02        add a,02h
  0194  77           ld (hl),a
  0195  23           inc hl
  0196  7e           ld a,(hl)
  0197  ce 00        adc a,00h
  0199  77           ld (hl),a
  019a  21 04 00     ld hl,0004h
  019d  19           add hl,de
  019e  7e           ld a,(hl)
  019f  23           inc hl
  01a0  66           ld h,(hl)
  01a1  6f           ld l,a
  01a2  7e           ld a,(hl)
  01a3  23           inc hl
  01a4  b6           or (hl)
  01a5  ca 07 02     jp z,0207h
  01a8  21 04 00     ld hl,0004h
  01ab  19           add hl,de
  01ac  7e           ld a,(hl)
  01ad  23           inc hl
  01ae  66           ld h,(hl)
  01af  6f           ld l,a
  01b0  7e           ld a,(hl)
  01b1  d6 01        sub 01h
  01b3  77           ld (hl),a
  01b4  23           inc hl
  01b5  7e           ld a,(hl)
  01b6  de 00        sbc a,00h
  01b8  77           ld (hl),a
  01b9  2b           dec hl
  01ba  7e           ld a,(hl)
  01bb  23           inc hl
  01bc  b6           or (hl)
  01bd  ca 07 02     jp z,0207h
  01c0  21 06 00     ld hl,0006h
  01c3  19           add hl,de
  01c4  7e           ld a,(hl)
  01c5  23           inc hl
  01c6  66           ld h,(hl)
  01c7  6f           ld l,a
  01c8  7e           ld a,(hl)
  01c9  23           inc hl
  01ca  66           ld h,(hl)
  01cb  6f           ld l,a
  01cc  7e           ld a,(hl)
  01cd  23           inc hl
  01ce  66           ld h,(hl)
  01cf  6f           ld l,a
  01d0  22 00 00     ld (0000h),hl
  01d3  21 7e 01     ld hl,017eh
  01d6  e5           push hl
  01d7  2a 00 00     ld hl,(0000h)
  01da  e5           push hl
  01db  cd 00 00     call 0000h
  01de  f1           pop af
  01df  f1           pop af
  01e0  79           ld a,c
  01e1  b0           or b
  01e2  ca 21 02     jp z,0221h
  01e5  21 04 00     ld hl,0004h
  01e8  19           add hl,de
  01e9  7e           ld a,(hl)
  01ea  23           inc hl
  01eb  66           ld h,(hl)
  01ec  6f           ld l,a
  01ed  7e           ld a,(hl)
  01ee  d6 01        sub 01h
  01f0  77           ld (hl),a
  01f1  23           inc hl
  01f2  7e           ld a,(hl)
  01f3  de 00        sbc a,00h
  01f5  77           ld (hl),a
  01f6  21 06 00     ld hl,0006h
  01f9  19           add hl,de
  01fa  7e           ld a,(hl)
  01fb  23           inc hl
  01fc  66           ld h,(hl)
  01fd  6f           ld l,a
  01fe  7e           ld a,(hl)
  01ff  c6 02        add a,02h
  0201  77           ld (hl),a
  0202  23           inc hl
  0203  7e           ld a,(hl)
  0204  ce 00        adc a,00h
  0206  77           ld (hl),a
  0207  01 00 00     ld bc,0000h
  020a  c3 00 00     jp 0000h
  020d  21 06 00     ld hl,0006h
  0210  19           add hl,de
  0211  7e           ld a,(hl)
  0212  23           inc hl
  0213  66           ld h,(hl)
  0214  6f           ld l,a
  0215  7e           ld a,(hl)
  0216  c6 02        add a,02h
  0218  77           ld (hl),a
  0219  23           inc hl
  021a  7e           ld a,(hl)
  021b  ce 00        adc a,00h
  021d  77           ld (hl),a
  021e  c3 9a 01     jp 019ah
  0221  21 7c 01     ld hl,017ch
  0224  e5           push hl
  0225  2a 00 00     ld hl,(0000h)
  0228  e5           push hl
  0229  cd 00 00     call 0000h
  022c  f1           pop af
  022d  f1           pop af
  022e  79           ld a,c
  022f  b0           or b
  0230  c2 07 02     jp nz,0207h
  0233  2a 00 00     ld hl,(0000h)
  0236  7e           ld a,(hl)
  0237  fe 2d        cp 2dh
  0239  ca 45 02     jp z,0245h
  023c  2a 00 00     ld hl,(0000h)
  023f  7e           ld a,(hl)
  0240  fe 2b        cp 2bh
  0242  c2 07 02     jp nz,0207h
  0245  2a 00 00     ld hl,(0000h)
  0248  7e           ld a,(hl)
  0249  fe 2d        cp 2dh
  024b  c2 55 02     jp nz,0255h
  024e  2a 00 00     ld hl,(0000h)
  0251  23           inc hl
  0252  22 00 00     ld (0000h),hl
  0255  2a 00 00     ld hl,(0000h)
  0258  7e           ld a,(hl)
  0259  b7           or a
  025a  ca 0d 02     jp z,020dh
  025d  21 08 00     ld hl,0008h
  0260  19           add hl,de
  0261  7e           ld a,(hl)
  0262  23           inc hl
  0263  66           ld h,(hl)
  0264  6f           ld l,a
  0265  22 00 00     ld (0000h),hl
  0268  21 f4 ff     ld hl,fff4h
  026b  19           add hl,de
  026c  e5           push hl
  026d  21 f8 ff     ld hl,fff8h
  0270  19           add hl,de
  0271  e5           push hl
  0272  21 f6 ff     ld hl,fff6h
  0275  19           add hl,de
  0276  97           sub a
  0277  77           ld (hl),a
  0278  23           inc hl
  0279  77           ld (hl),a
  027a  c1           pop bc
  027b  7e           ld a,(hl)
  027c  02           ld (bc),a
  027d  23           inc hl
  027e  7e           ld a,(hl)
  027f  03           inc bc
  0280  02           ld (bc),a
  0281  0b           dec bc
  0282  e1           pop hl
  0283  0a           ld a,(bc)
  0284  77           ld (hl),a
  0285  03           inc bc
  0286  0a           ld a,(bc)
  0287  23           inc hl
  0288  77           ld (hl),a
  0289  21 e8 ff     ld hl,ffe8h
  028c  19           add hl,de
  028d  e5           push hl
  028e  21 0a 00     ld hl,000ah
  0291  19           add hl,de
  0292  c1           pop bc
  0293  7d           ld a,l
  0294  02           ld (bc),a
  0295  7c           ld a,h
  0296  03           inc bc
  0297  02           ld (bc),a
  0298  2a 00 00     ld hl,(0000h)
  029b  22 00 00     ld (0000h),hl
  029e  21 f4 ff     ld hl,fff4h
  02a1  19           add hl,de
  02a2  7e           ld a,(hl)
  02a3  23           inc hl
  02a4  b6           or (hl)
  02a5  c2 55 02     jp nz,0255h
  02a8  2a 00 00     ld hl,(0000h)
  02ab  7e           ld a,(hl)
  02ac  4f           ld c,a
  02ad  97           sub a
  02ae  47           ld b,a
  02af  21 5c 01     ld hl,015ch
  02b2  c3 00 00     jp 0000h
  02b5  21 f6 ff     ld hl,fff6h
  02b8  19           add hl,de
  02b9  3e 01        ld a,01h
  02bb  77           ld (hl),a
  02bc  87           add a,a
  02bd  9f           sbc a,a
  02be  23           inc hl
  02bf  77           ld (hl),a
  02c0  21 e6 ff     ld hl,ffe6h
  02c3  19           add hl,de
  02c4  e5           push hl
  02c5  2a 00 00     ld hl,(0000h)
  02c8  7e           ld a,(hl)
  02c9  b7           or a
  02ca  ca d5 02     jp z,02d5h
  02cd  2a 00 00     ld hl,(0000h)
  02d0  4d           ld c,l
  02d1  44           ld b,h
  02d2  c3 0e 03     jp 030eh
  02d5  21 04 00     ld hl,0004h
  02d8  19           add hl,de
  02d9  7e           ld a,(hl)
  02da  23           inc hl
  02db  66           ld h,(hl)
  02dc  6f           ld l,a
  02dd  7e           ld a,(hl)
  02de  d6 01        sub 01h
  02e0  77           ld (hl),a
  02e1  23           inc hl
  02e2  7e           ld a,(hl)
  02e3  de 00        sbc a,00h
  02e5  77           ld (hl),a
  02e6  2b           dec hl
  02e7  7e           ld a,(hl)
  02e8  23           inc hl
  02e9  b6           or (hl)
  02ea  ca 09 03     jp z,0309h
  02ed  21 06 00     ld hl,0006h
  02f0  19           add hl,de
  02f1  7e           ld a,(hl)
  02f2  23           inc hl
  02f3  66           ld h,(hl)
  02f4  6f           ld l,a
  02f5  7e           ld a,(hl)
  02f6  c6 02        add a,02h
  02f8  77           ld (hl),a
  02f9  23           inc hl
  02fa  7e           ld a,(hl)
  02fb  ce 00        adc a,00h
  02fd  77           ld (hl),a
  02fe  2b           dec hl
  02ff  7e           ld a,(hl)
  0300  23           inc hl
  0301  66           ld h,(hl)
  0302  6f           ld l,a
  0303  4e           ld c,(hl)
  0304  23           inc hl
  0305  46           ld b,(hl)
  0306  c3 0e 03     jp 030eh
  0309  2a 00 00     ld hl,(0000h)
  030c  4d           ld c,l
  030d  44           ld b,h
  030e  e1           pop hl
  030f  79           ld a,c
  0310  77           ld (hl),a
  0311  78           ld a,b
  0312  23           inc hl
  0313  77           ld (hl),a
  0314  21 e6 ff     ld hl,ffe6h
  0317  19           add hl,de
  0318  4e           ld c,(hl)
  0319  23           inc hl
  031a  46           ld b,(hl)
  031b  c5           push bc
  031c  cd 00 00     call 0000h
  031f  f1           pop af
  0320  69           ld l,c
  0321  60           ld h,b
  0322  e5           push hl
  0323  21 e6 ff     ld hl,ffe6h
  0326  19           add hl,de
  0327  7e           ld a,(hl)
  0328  23           inc hl
  0329  66           ld h,(hl)
  032a  6f           ld l,a
  032b  e3           ex (sp),hl
  032c  c1           pop bc
  032d  09           add hl,bc
  032e  22 00 00     ld (0000h),hl
  0331  2a 00 00     ld hl,(0000h)
  0334  23           inc hl
  0335  22 00 00     ld (0000h),hl
  0338  c3 9e 02     jp 029eh
  033b  c3 31 03     jp 0331h
  033e  21 f6 ff     ld hl,fff6h
  0341  19           add hl,de
  0342  3e 01        ld a,01h
  0344  77           ld (hl),a
  0345  87           add a,a
  0346  9f           sbc a,a
  0347  23           inc hl
  0348  77           ld (hl),a
  0349  21 e6 ff     ld hl,ffe6h
  034c  19           add hl,de
  034d  e5           push hl
  034e  2a 00 00     ld hl,(0000h)
  0351  c1           pop bc
  0352  7e           ld a,(hl)
  0353  02           ld (bc),a
  0354  97           sub a
  0355  03           inc bc
  0356  02           ld (bc),a
  0357  2a 00 00     ld hl,(0000h)
  035a  7e           ld a,(hl)
  035b  b7           or a
  035c  ca 31 03     jp z,0331h
  035f  2a 00 00     ld hl,(0000h)
  0362  23           inc hl
  0363  22 00 00     ld (0000h),hl
  0366  c3 31 03     jp 0331h
  0369  2a 00 00     ld hl,(0000h)
  036c  7e           ld a,(hl)
  036d  b7           or a
  036e  c2 af 03     jp nz,03afh
  0371  21 04 00     ld hl,0004h
  0374  19           add hl,de
  0375  7e           ld a,(hl)
  0376  23           inc hl
  0377  66           ld h,(hl)
  0378  6f           ld l,a
  0379  7e           ld a,(hl)
  037a  d6 01        sub 01h
  037c  77           ld (hl),a
  037d  23           inc hl
  037e  7e           ld a,(hl)
  037f  de 00        sbc a,00h
  0381  77           ld (hl),a
  0382  2b           dec hl
  0383  7e           ld a,(hl)
  0384  23           inc hl
  0385  b6           or (hl)
  0386  ca a5 03     jp z,03a5h
  0389  21 06 00     ld hl,0006h
  038c  19           add hl,de
  038d  7e           ld a,(hl)
  038e  23           inc hl
  038f  66           ld h,(hl)
  0390  6f           ld l,a
  0391  7e           ld a,(hl)
  0392  c6 02        add a,02h
  0394  77           ld (hl),a
  0395  23           inc hl
  0396  7e           ld a,(hl)
  0397  ce 00        adc a,00h
  0399  77           ld (hl),a
  039a  2b           dec hl
  039b  7e           ld a,(hl)
  039c  23           inc hl
  039d  66           ld h,(hl)
  039e  6f           ld l,a
  039f  4e           ld c,(hl)
  03a0  23           inc hl
  03a1  46           ld b,(hl)
  03a2  c3 aa 03     jp 03aah
  03a5  2a 00 00     ld hl,(0000h)
  03a8  4d           ld c,l
  03a9  44           ld b,h
  03aa  69           ld l,c
  03ab  60           ld h,b
  03ac  22 00 00     ld (0000h),hl
  03af  21 f6 ff     ld hl,fff6h
  03b2  19           add hl,de
  03b3  e5           push hl
  03b4  21 f0 ff     ld hl,fff0h
  03b7  19           add hl,de
  03b8  e5           push hl
  03b9  2a 00 00     ld hl,(0000h)
  03bc  7e           ld a,(hl)
  03bd  fe 2d        cp 2dh
  03bf  ca cb 03     jp z,03cbh
  03c2  2a 00 00     ld hl,(0000h)
  03c5  7e           ld a,(hl)
  03c6  fe 2b        cp 2bh
  03c8  c2 d1 03     jp nz,03d1h
  03cb  01 01 00     ld bc,0001h
  03ce  c3 d4 03     jp 03d4h
  03d1  01 00 00     ld bc,0000h
  03d4  e1           pop hl
  03d5  79           ld a,c
  03d6  77           ld (hl),a
  03d7  78           ld a,b
  03d8  23           inc hl
  03d9  77           ld (hl),a
  03da  2b           dec hl
  03db  7e           ld a,(hl)
  03dc  23           inc hl
  03dd  b6           or (hl)
  03de  c2 f3 03     jp nz,03f3h
  03e1  2a 00 00     ld hl,(0000h)
  03e4  7e           ld a,(hl)
  03e5  fe 30        cp 30h
  03e7  da f9 03     jp c,03f9h
  03ea  2a 00 00     ld hl,(0000h)
  03ed  3e 39        ld a,39h
  03ef  be           cp (hl)
  03f0  da f9 03     jp c,03f9h
  03f3  01 01 00     ld bc,0001h
  03f6  c3 fc 03     jp 03fch
  03f9  01 00 00     ld bc,0000h
  03fc  e1           pop hl
  03fd  79           ld a,c
  03fe  77           ld (hl),a
  03ff  78           ld a,b
  0400  23           inc hl
  0401  77           ld (hl),a
  0402  2a 00 00     ld hl,(0000h)
  0405  7e           ld a,(hl)
  0406  fe 30        cp 30h
  0408  ca 19 04     jp z,0419h
  040b  21 f2 ff     ld hl,fff2h
  040e  19           add hl,de
  040f  3e 0a        ld a,0ah
  0411  77           ld (hl),a
  0412  87           add a,a
  0413  9f           sbc a,a
  0414  23           inc hl
  0415  77           ld (hl),a
  0416  c3 77 04     jp 0477h
  0419  2a 00 00     ld hl,(0000h)
  041c  01 01 00     ld bc,0001h
  041f  09           add hl,bc
  0420  7e           ld a,(hl)
  0421  fe 41        cp 41h
  0423  da 47 04     jp c,0447h
  0426  2a 00 00     ld hl,(0000h)
  0429  01 01 00     ld bc,0001h
  042c  09           add hl,bc
  042d  3e 5a        ld a,5ah
  042f  be           cp (hl)
  0430  da 47 04     jp c,0447h
  0433  2a 00 00     ld hl,(0000h)
  0436  01 01 00     ld bc,0001h
  0439  09           add hl,bc
  043a  7e           ld a,(hl)
  043b  4f           ld c,a
  043c  97           sub a
  043d  47           ld b,a
  043e  21 20 00     ld hl,0020h
  0441  09           add hl,bc
  0442  4d           ld c,l
  0443  44           ld b,h
  0444  c3 52 04     jp 0452h
  0447  2a 00 00     ld hl,(0000h)
  044a  01 01 00     ld bc,0001h
  044d  09           add hl,bc
  044e  7e           ld a,(hl)
  044f  4f           ld c,a
  0450  97           sub a
  0451  47           ld b,a
  0452  79           ld a,c
  0453  fe 78        cp 78h
  0455  c2 5b 04     jp nz,045bh
  0458  78           ld a,b
  0459  fe 00        cp 00h
  045b  c2 6c 04     jp nz,046ch
  045e  21 f2 ff     ld hl,fff2h
  0461  19           add hl,de
  0462  3e 10        ld a,10h
  0464  77           ld (hl),a
  0465  87           add a,a
  0466  9f           sbc a,a
  0467  23           inc hl
  0468  77           ld (hl),a
  0469  c3 77 04     jp 0477h
  046c  21 f2 ff     ld hl,fff2h
  046f  19           add hl,de
  0470  3e 08        ld a,08h
  0472  77           ld (hl),a
  0473  87           add a,a
  0474  9f           sbc a,a
  0475  23           inc hl
  0476  77           ld (hl),a
  0477  21 ee ff     ld hl,ffeeh
  047a  19           add hl,de
  047b  e5           push hl
  047c  21 f2 ff     ld hl,fff2h
  047f  19           add hl,de
  0480  4e           ld c,(hl)
  0481  23           inc hl
  0482  46           ld b,(hl)
  0483  c5           push bc
  0484  21 ea ff     ld hl,ffeah
  0487  19           add hl,de
  0488  e5           push hl
  0489  2a 00 00     ld hl,(0000h)
  048c  e5           push hl
  048d  cd 00 00     call 0000h
  0490  f1           pop af
  0491  c5           push bc
  0492  2a 00 00     ld hl,(0000h)
  0495  e5           push hl
  0496  cd 00 00     call 0000h
  0499  f1           pop af
  049a  f1           pop af
  049b  f1           pop af
  049c  f1           pop af
  049d  e1           pop hl
  049e  79           ld a,c
  049f  77           ld (hl),a
  04a0  78           ld a,b
  04a1  23           inc hl
  04a2  77           ld (hl),a
  04a3  21 f6 ff     ld hl,fff6h
  04a6  19           add hl,de
  04a7  7e           ld a,(hl)
  04a8  23           inc hl
  04a9  b6           or (hl)
  04aa  ca c0 04     jp z,04c0h
  04ad  21 f0 ff     ld hl,fff0h
  04b0  19           add hl,de
  04b1  e5           push hl
  04b2  21 ee ff     ld hl,ffeeh
  04b5  19           add hl,de
  04b6  c1           pop bc
  04b7  0a           ld a,(bc)
  04b8  96           sub (hl)
  04b9  03           inc bc
  04ba  0a           ld a,(bc)
  04bb  23           inc hl
  04bc  9e           sbc a,(hl)
  04bd  fa c6 04     jp m,04c6h
  04c0  01 01 00     ld bc,0001h
  04c3  c3 e9 04     jp 04e9h
  04c6  2a 00 00     ld hl,(0000h)
  04c9  e5           push hl
  04ca  21 ee ff     ld hl,ffeeh
  04cd  19           add hl,de
  04ce  7e           ld a,(hl)
  04cf  23           inc hl
  04d0  66           ld h,(hl)
  04d1  6f           ld l,a
  04d2  e3           ex (sp),hl
  04d3  c1           pop bc
  04d4  09           add hl,bc
  04d5  22 00 00     ld (0000h),hl
  04d8  2a 00 00     ld hl,(0000h)
  04db  7e           ld a,(hl)
  04dc  b7           or a
  04dd  ca e6 04     jp z,04e6h
  04e0  01 01 00     ld bc,0001h
  04e3  c3 e9 04     jp 04e9h
  04e6  01 00 00     ld bc,0000h
  04e9  79           ld a,c
  04ea  b0           or b
  04eb  ca 38 05     jp z,0538h
  04ee  21 ee ff     ld hl,ffeeh
  04f1  19           add hl,de
  04f2  e5           push hl
  04f3  21 3a 00     ld hl,003ah
  04f6  e5           push hl
  04f7  2a 00 00     ld hl,(0000h)
  04fa  e5           push hl
  04fb  cd 00 00     call 0000h
  04fe  f1           pop af
  04ff  f1           pop af
  0500  e1           pop hl
  0501  79           ld a,c
  0502  77           ld (hl),a
  0503  78           ld a,b
  0504  23           inc hl
  0505  77           ld (hl),a
  0506  2b           dec hl
  0507  7e           ld a,(hl)
  0508  23           inc hl
  0509  66           ld h,(hl)
  050a  6f           ld l,a
  050b  e5           push hl
  050c  2a 00 00     ld hl,(0000h)
  050f  e3           ex (sp),hl
  0510  c1           pop bc
  0511  09           add hl,bc
  0512  7e           ld a,(hl)
  0513  b7           or a
  0514  ca 87 05     jp z,0587h
  0517  21 08 00     ld hl,0008h
  051a  19           add hl,de
  051b  4e           ld c,(hl)
  051c  23           inc hl
  051d  46           ld b,(hl)
  051e  c5           push bc
  051f  21 ee ff     ld hl,ffeeh
  0522  19           add hl,de
  0523  7e           ld a,(hl)
  0524  23           inc hl
  0525  66           ld h,(hl)
  0526  6f           ld l,a
  0527  e5           push hl
  0528  2a 00 00     ld hl,(0000h)
  052b  01 01 00     ld bc,0001h
  052e  09           add hl,bc
  052f  e3           ex (sp),hl
  0530  c1           pop bc
  0531  09           add hl,bc
  0532  e5           push hl
  0533  cd 0d 00     call 000dh
  0536  f1           pop af
  0537  f1           pop af
  0538  2a 00 00     ld hl,(0000h)
  053b  01 01 00     ld bc,0001h
  053e  09           add hl,bc
  053f  7e           ld a,(hl)
  0540  fe 23        cp 23h
  0542  c2 8f 05     jp nz,058fh
  0545  2a 00 00     ld hl,(0000h)
  0548  01 02 00     ld bc,0002h
  054b  09           add hl,bc
  054c  7e           ld a,(hl)
  054d  fe 3e        cp 3eh
  054f  ca 8f 05     jp z,058fh
  0552  21 e8 ff     ld hl,ffe8h
  0555  19           add hl,de
  0556  7e           ld a,(hl)
  0557  23           inc hl
  0558  66           ld h,(hl)
  0559  6f           ld l,a
  055a  7e           ld a,(hl)
  055b  23           inc hl
  055c  66           ld h,(hl)
  055d  6f           ld l,a
  055e  e5           push hl
  055f  21 ea ff     ld hl,ffeah
  0562  19           add hl,de
  0563  c1           pop bc
  0564  7e           ld a,(hl)
  0565  02           ld (bc),a
  0566  23           inc hl
  0567  7e           ld a,(hl)
  0568  03           inc bc
  0569  02           ld (bc),a
  056a  23           inc hl
  056b  7e           ld a,(hl)
  056c  03           inc bc
  056d  02           ld (bc),a
  056e  23           inc hl
  056f  7e           ld a,(hl)
  0570  03           inc bc
  0571  02           ld (bc),a
  0572  2a 00 00     ld hl,(0000h)
  0575  23           inc hl
  0576  22 00 00     ld (0000h),hl
  0579  21 f8 ff     ld hl,fff8h
  057c  19           add hl,de
  057d  3e 01        ld a,01h
  057f  77           ld (hl),a
  0580  87           add a,a
  0581  9f           sbc a,a
  0582  23           inc hl
  0583  77           ld (hl),a
  0584  c3 31 03     jp 0331h
  0587  2a 00 00     ld hl,(0000h)
  058a  4d           ld c,l
  058b  44           ld b,h
  058c  c3 00 00     jp 0000h
  058f  21 e6 ff     ld hl,ffe6h
  0592  19           add hl,de
  0593  e5           push hl
  0594  21 ea ff     ld hl,ffeah
  0597  19           add hl,de
  0598  c1           pop bc
  0599  23           inc hl
  059a  23           inc hl
  059b  7e           ld a,(hl)
  059c  02           ld (bc),a
  059d  23           inc hl
  059e  7e           ld a,(hl)
  059f  03           inc bc
  05a0  02           ld (bc),a
  05a1  c3 31 03     jp 0331h
  05a4  21 f6 ff     ld hl,fff6h
  05a7  19           add hl,de
  05a8  7e           ld a,(hl)
  05a9  23           inc hl
  05aa  b6           or (hl)
  05ab  ca d3 05     jp z,05d3h
  05ae  21 f8 ff     ld hl,fff8h
  05b1  19           add hl,de
  05b2  7e           ld a,(hl)
  05b3  23           inc hl
  05b4  b6           or (hl)
  05b5  c2 e3 05     jp nz,05e3h
  05b8  21 e8 ff     ld hl,ffe8h
  05bb  19           add hl,de
  05bc  7e           ld a,(hl)
  05bd  23           inc hl
  05be  66           ld h,(hl)
  05bf  6f           ld l,a
  05c0  7e           ld a,(hl)
  05c1  23           inc hl
  05c2  66           ld h,(hl)
  05c3  6f           ld l,a
  05c4  e5           push hl
  05c5  21 e6 ff     ld hl,ffe6h
  05c8  19           add hl,de
  05c9  c1           pop bc
  05ca  7e           ld a,(hl)
  05cb  02           ld (bc),a
  05cc  23           inc hl
  05cd  7e           ld a,(hl)
  05ce  03           inc bc
  05cf  02           ld (bc),a
  05d0  c3 eb 05     jp 05ebh
  05d3  2a 00 00     ld hl,(0000h)
  05d6  7e           ld a,(hl)
  05d7  b7           or a
  05d8  c2 ff 05     jp nz,05ffh
  05db  2a 00 00     ld hl,(0000h)
  05de  4d           ld c,l
  05df  44           ld b,h
  05e0  c3 00 00     jp 0000h
  05e3  21 f8 ff     ld hl,fff8h
  05e6  19           add hl,de
  05e7  97           sub a
  05e8  77           ld (hl),a
  05e9  23           inc hl
  05ea  77           ld (hl),a
  05eb  2a 00 00     ld hl,(0000h)
  05ee  22 00 00     ld (0000h),hl
  05f1  21 f4 ff     ld hl,fff4h
  05f4  19           add hl,de
  05f5  3e 01        ld a,01h
  05f7  77           ld (hl),a
  05f8  87           add a,a
  05f9  9f           sbc a,a
  05fa  23           inc hl
  05fb  77           ld (hl),a
  05fc  c3 31 03     jp 0331h
  05ff  2a 00 00     ld hl,(0000h)
  0602  7e           ld a,(hl)
  0603  fe 3a        cp 3ah
  0605  c2 23 06     jp nz,0623h
  0608  21 08 00     ld hl,0008h
  060b  19           add hl,de
  060c  4e           ld c,(hl)
  060d  23           inc hl
  060e  46           ld b,(hl)
  060f  c5           push bc
  0610  2a 00 00     ld hl,(0000h)
  0613  23           inc hl
  0614  22 00 00     ld (0000h),hl
  0617  2a 00 00     ld hl,(0000h)
  061a  e5           push hl
  061b  cd 0d 00     call 000dh
  061e  f1           pop af
  061f  f1           pop af
  0620  c3 31 03     jp 0331h
  0623  21 e8 ff     ld hl,ffe8h
  0626  19           add hl,de
  0627  7e           ld a,(hl)
  0628  c6 02        add a,02h
  062a  77           ld (hl),a
  062b  23           inc hl
  062c  7e           ld a,(hl)
  062d  ce 00        adc a,00h
  062f  77           ld (hl),a
  0630  2a 00 00     ld hl,(0000h)
  0633  22 00 00     ld (0000h),hl
  0636  c3 31 03     jp 0331h
  0639  21 f6 ff     ld hl,fff6h
  063c  19           add hl,de
  063d  7e           ld a,(hl)
  063e  23           inc hl
  063f  b6           or (hl)
  0640  ca a2 06     jp z,06a2h
  0643  21 e8 ff     ld hl,ffe8h
  0646  19           add hl,de
  0647  7e           ld a,(hl)
  0648  23           inc hl
  0649  66           ld h,(hl)
  064a  6f           ld l,a
  064b  7e           ld a,(hl)
  064c  23           inc hl
  064d  66           ld h,(hl)
  064e  6f           ld l,a
  064f  7e           ld a,(hl)
  0650  23           inc hl
  0651  b6           or (hl)
  0652  ca b8 06     jp z,06b8h
  0655  21 e8 ff     ld hl,ffe8h
  0658  19           add hl,de
  0659  7e           ld a,(hl)
  065a  23           inc hl
  065b  66           ld h,(hl)
  065c  6f           ld l,a
  065d  7e           ld a,(hl)
  065e  23           inc hl
  065f  66           ld h,(hl)
  0660  6f           ld l,a
  0661  23           inc hl
  0662  23           inc hl
  0663  e5           push hl
  0664  21 e8 ff     ld hl,ffe8h
  0667  19           add hl,de
  0668  7e           ld a,(hl)
  0669  23           inc hl
  066a  66           ld h,(hl)
  066b  6f           ld l,a
  066c  7e           ld a,(hl)
  066d  23           inc hl
  066e  66           ld h,(hl)
  066f  6f           ld l,a
  0670  7e           ld a,(hl)
  0671  d6 01        sub 01h
  0673  77           ld (hl),a
  0674  23           inc hl
  0675  7e           ld a,(hl)
  0676  de 00        sbc a,00h
  0678  77           ld (hl),a
  0679  2b           dec hl
  067a  7e           ld a,(hl)
  067b  23           inc hl
  067c  66           ld h,(hl)
  067d  6f           ld l,a
  067e  29           add hl,hl
  067f  e3           ex (sp),hl
  0680  c1           pop bc
  0681  09           add hl,bc
  0682  e5           push hl
  0683  21 e6 ff     ld hl,ffe6h
  0686  19           add hl,de
  0687  c1           pop bc
  0688  7e           ld a,(hl)
  0689  02           ld (bc),a
  068a  23           inc hl
  068b  7e           ld a,(hl)
  068c  03           inc bc
  068d  02           ld (bc),a
  068e  2a 00 00     ld hl,(0000h)
  0691  22 00 00     ld (0000h),hl
  0694  21 f4 ff     ld hl,fff4h
  0697  19           add hl,de
  0698  3e 01        ld a,01h
  069a  77           ld (hl),a
  069b  87           add a,a
  069c  9f           sbc a,a
  069d  23           inc hl
  069e  77           ld (hl),a
  069f  c3 31 03     jp 0331h
  06a2  21 e8 ff     ld hl,ffe8h
  06a5  19           add hl,de
  06a6  7e           ld a,(hl)
  06a7  c6 02        add a,02h
  06a9  77           ld (hl),a
  06aa  23           inc hl
  06ab  7e           ld a,(hl)
  06ac  ce 00        adc a,00h
  06ae  77           ld (hl),a
  06af  2a 00 00     ld hl,(0000h)
  06b2  22 00 00     ld (0000h),hl
  06b5  c3 31 03     jp 0331h
  06b8  21 ee ff     ld hl,ffeeh
  06bb  19           add hl,de
  06bc  e5           push hl
  06bd  21 3a 00     ld hl,003ah
  06c0  e5           push hl
  06c1  2a 00 00     ld hl,(0000h)
  06c4  e5           push hl
  06c5  cd 00 00     call 0000h
  06c8  f1           pop af
  06c9  f1           pop af
  06ca  e1           pop hl
  06cb  79           ld a,c
  06cc  77           ld (hl),a
  06cd  78           ld a,b
  06ce  23           inc hl
  06cf  77           ld (hl),a
  06d0  2b           dec hl
  06d1  7e           ld a,(hl)
  06d2  23           inc hl
  06d3  66           ld h,(hl)
  06d4  6f           ld l,a
  06d5  e5           push hl
  06d6  2a 00 00     ld hl,(0000h)
  06d9  e3           ex (sp),hl
  06da  c1           pop bc
  06db  09           add hl,bc
  06dc  7e           ld a,(hl)
  06dd  b7           or a
  06de  ca 05 07     jp z,0705h
  06e1  21 08 00     ld hl,0008h
  06e4  19           add hl,de
  06e5  4e           ld c,(hl)
  06e6  23           inc hl
  06e7  46           ld b,(hl)
  06e8  c5           push bc
  06e9  21 ee ff     ld hl,ffeeh
  06ec  19           add hl,de
  06ed  7e           ld a,(hl)
  06ee  23           inc hl
  06ef  66           ld h,(hl)
  06f0  6f           ld l,a
  06f1  e5           push hl
  06f2  2a 00 00     ld hl,(0000h)
  06f5  01 01 00     ld bc,0001h
  06f8  09           add hl,bc
  06f9  e3           ex (sp),hl
  06fa  c1           pop bc
  06fb  09           add hl,bc
  06fc  e5           push hl
  06fd  cd 0d 00     call 000dh
  0700  f1           pop af
  0701  f1           pop af
  0702  c3 31 03     jp 0331h
  0705  2a 00 00     ld hl,(0000h)
  0708  4d           ld c,l
  0709  44           ld b,h
  070a  c3 00 00     jp 0000h
  070d  2a 00 00     ld hl,(0000h)
  0710  e5           push hl
  0711  2a 00 00     ld hl,(0000h)
  0714  c1           pop bc
  0715  0a           ld a,(bc)
  0716  be           cp (hl)
  0717  c2 3a 07     jp nz,073ah
  071a  21 f6 ff     ld hl,fff6h
  071d  19           add hl,de
  071e  3e 01        ld a,01h
  0720  77           ld (hl),a
  0721  87           add a,a
  0722  9f           sbc a,a
  0723  23           inc hl
  0724  77           ld (hl),a
  0725  21 e6 ff     ld hl,ffe6h
  0728  19           add hl,de
  0729  3e 01        ld a,01h
  072b  77           ld (hl),a
  072c  87           add a,a
  072d  9f           sbc a,a
  072e  23           inc hl
  072f  77           ld (hl),a
  0730  2a 00 00     ld hl,(0000h)
  0733  23           inc hl
  0734  22 00 00     ld (0000h),hl
  0737  c3 31 03     jp 0331h
  073a  21 f6 ff     ld hl,fff6h
  073d  19           add hl,de
  073e  97           sub a
  073f  77           ld (hl),a
  0740  23           inc hl
  0741  77           ld (hl),a
  0742  2a 00 00     ld hl,(0000h)
  0745  7e           ld a,(hl)
  0746  fe 2c        cp 2ch
  0748  ca 6f 07     jp z,076fh
  074b  2a 00 00     ld hl,(0000h)
  074e  7e           ld a,(hl)
  074f  fe 3e        cp 3eh
  0751  ca 6f 07     jp z,076fh
  0754  2a 00 00     ld hl,(0000h)
  0757  7e           ld a,(hl)
  0758  fe 3a        cp 3ah
  075a  ca 6f 07     jp z,076fh
  075d  2a 00 00     ld hl,(0000h)
  0760  7e           ld a,(hl)
  0761  b7           or a
  0762  ca 6f 07     jp z,076fh
  0765  2a 00 00     ld hl,(0000h)
  0768  23           inc hl
  0769  22 00 00     ld (0000h),hl
  076c  c3 42 07     jp 0742h
  076f  3a 00 00     ld a,(0000h)
  0772  d6 01        sub 01h
  0774  32 00 00     ld (0000h),a
  0777  3a 01 00     ld a,(0001h)
  077a  de 00        sbc a,00h
  077c  32 01 00     ld (0001h),a
  077f  c3 31 03     jp 0331h
  0782  0a           ld a,(bc)
  0783  09           add hl,bc
  0784  00           nop
  0785  cd 00 00     call 0000h
  0788  21 04 00     ld hl,0004h
  078b  19           add hl,de
  078c  7e           ld a,(hl)
  078d  23           inc hl
  078e  66           ld h,(hl)
  078f  6f           ld l,a
  0790  22 00 00     ld (0000h),hl
  0793  21 06 00     ld hl,0006h
  0796  19           add hl,de
  0797  7e           ld a,(hl)
  0798  23           inc hl
  0799  66           ld h,(hl)
  079a  6f           ld l,a
  079b  22 00 00     ld (0000h),hl
  079e  21 08 00     ld hl,0008h
  07a1  19           add hl,de
  07a2  7e           ld a,(hl)
  07a3  23           inc hl
  07a4  66           ld h,(hl)
  07a5  6f           ld l,a
  07a6  22 00 00     ld (0000h),hl
  07a9  21 00 00     ld hl,0000h
  07ac  3e 3c        ld a,3ch
  07ae  96           sub (hl)
  07af  3e 00        ld a,00h
  07b1  23           inc hl
  07b2  9e           sbc a,(hl)
  07b3  f2 c8 07     jp p,07c8h
  07b6  2a 00 00     ld hl,(0000h)
  07b9  7e           ld a,(hl)
  07ba  fe 20        cp 20h
  07bc  ca e6 07     jp z,07e6h
  07bf  2a 00 00     ld hl,(0000h)
  07c2  7e           ld a,(hl)
  07c3  fe 09        cp 09h
  07c5  ca e6 07     jp z,07e6h
  07c8  21 01 00     ld hl,0001h
  07cb  e5           push hl
  07cc  2a 00 00     ld hl,(0000h)
  07cf  e5           push hl
  07d0  2a 00 00     ld hl,(0000h)
  07d3  e5           push hl
  07d4  cd 00 00     call 0000h
  07d7  f1           pop af
  07d8  f1           pop af
  07d9  f1           pop af
  07da  2a 00 00     ld hl,(0000h)
  07dd  01 01 00     ld bc,0001h
  07e0  09           add hl,bc
  07e1  4d           ld c,l
  07e2  44           ld b,h
  07e3  c3 00 00     jp 0000h
  07e6  21 02 00     ld hl,0002h
  07e9  e5           push hl
  07ea  21 82 07     ld hl,0782h
  07ed  e5           push hl
  07ee  2a 00 00     ld hl,(0000h)
  07f1  e5           push hl
  07f2  cd 00 00     call 0000h
  07f5  f1           pop af
  07f6  f1           pop af
  07f7  f1           pop af
  07f8  01 04 00     ld bc,0004h
  07fb  c3 00 00     jp 0000h

Data segment: (empty)

Symbol table: 14 symbols (9-char names)
  Index  Value  Type Seg    Global  Name
  -----  -----  ---- -----  ------  ----
  [  0]  0000   08   ext    yes      _scnstr
  [  1]  0000   08   ext    yes      _cmpstr
  [  2]  0000   08   ext    yes      _lenstr
  [  3]  0000   08   ext    yes      c.r4
  [  4]  0000   08   ext    yes      c.r3
  [  5]  0000   08   ext    yes      c.r2
  [  6]  0000   08   ext    yes      _usage
  [  7]  0000   08   ext    yes      c.switch
  [  8]  0000   08   ext    yes      _exit
  [  9]  0000   08   ext    yes      _btol
  [ 10]  0000   08   ext    yes      c.rets
  [ 11]  0000   08   ext    yes      c.ents
  [ 12]  0000   08   ext    yes      _write
  [ 13]  0181   0d   text   yes      _getflag

Text relocations:
  Offset  Type        Target
  ------  ----        ------
  000e    word        symbol[11]
  0019    word        symbol[3]
  0024    word        symbol[5]
  002b    word        symbol[6]
  0031    word        symbol[4]
  0034    word        symbol[3]
  0039    word        text segment
  003c    word        symbol[3]
  0042    word        text segment
  0045    word        symbol[4]
  0049    word        symbol[3]
  0051    word        text segment
  0059    word        symbol[4]
  005c    word        text segment
  0063    word        text segment
  006b    word        symbol[12]
  0075    word        symbol[8]
  0079    word        symbol[10]
  0080    word        text segment
  0088    word        symbol[12]
  008e    word        symbol[4]
  0092    word        symbol[4]
  0095    word        symbol[5]
  009b    word        text segment
  009e    word        symbol[5]
  00a4    word        text segment
  00a7    word        symbol[5]
  00b1    word        text segment
  00b4    word        symbol[4]
  00b8    word        text segment
  00c0    word        text segment
  00c8    word        symbol[4]
  00cb    word        text segment
  00d2    word        text segment
  00da    word        symbol[12]
  00e0    word        symbol[4]
  00e4    word        symbol[4]
  00e7    word        symbol[3]
  00eb    word        symbol[3]
  00ee    word        text segment
  00f1    word        symbol[5]
  00f7    word        text segment
  00fe    word        text segment
  0106    word        symbol[12]
  010c    word        symbol[4]
  0110    word        symbol[4]
  0113    word        symbol[5]
  011d    word        text segment
  0120    word        symbol[4]
  0124    word        text segment
  012c    word        text segment
  0134    word        symbol[4]
  0137    word        text segment
  013e    word        symbol[5]
  0146    word        symbol[12]
  014c    word        symbol[4]
  0150    word        symbol[4]
  0153    word        symbol[5]
  0157    word        symbol[5]
  015a    word        text segment
  015c    word        text segment
  0160    word        text segment
  0164    word        text segment
  0168    word        text segment
  016c    word        text segment
  0170    word        text segment
  0174    word        text segment
  017a    word        text segment
  0182    word        symbol[11]
  01a6    word        text segment
  01be    word        text segment
  01d1    word        symbol[5]
  01d4    word        text segment
  01d8    word        symbol[5]
  01dc    word        symbol[1]
  01e3    word        text segment
  020b    word        symbol[10]
  021f    word        text segment
  0222    word        text segment
  0226    word        symbol[5]
  022a    word        symbol[1]
  0231    word        text segment
  0234    word        symbol[5]
  023a    word        text segment
  023d    word        symbol[5]
  0243    word        text segment
  0246    word        symbol[5]
  024c    word        text segment
  024f    word        symbol[5]
  0253    word        symbol[5]
  0256    word        symbol[5]
  025b    word        text segment
  0266    word        symbol[3]
  0299    word        symbol[5]
  029c    word        symbol[4]
  02a6    word        text segment
  02a9    word        symbol[3]
  02b0    word        text segment
  02b3    word        symbol[7]
  02c6    word        symbol[4]
  02cb    word        text segment
  02ce    word        symbol[4]
  02d3    word        text segment
  02eb    word        text segment
  0307    word        text segment
  030a    word        symbol[4]
  031d    word        symbol[2]
  032f    word        symbol[4]
  0332    word        symbol[3]
  0336    word        symbol[3]
  0339    word        text segment
  033c    word        text segment
  034f    word        symbol[4]
  0358    word        symbol[4]
  035d    word        text segment
  0360    word        symbol[4]
  0364    word        symbol[4]
  0367    word        text segment
  036a    word        symbol[4]
  036f    word        text segment
  0387    word        text segment
  03a3    word        text segment
  03a6    word        symbol[4]
  03ad    word        symbol[4]
  03ba    word        symbol[4]
  03c0    word        text segment
  03c3    word        symbol[4]
  03c9    word        text segment
  03cf    word        text segment
  03df    word        text segment
  03e2    word        symbol[4]
  03e8    word        text segment
  03eb    word        symbol[4]
  03f1    word        text segment
  03f7    word        text segment
  0403    word        symbol[4]
  0409    word        text segment
  0417    word        text segment
  041a    word        symbol[4]
  0424    word        text segment
  0427    word        symbol[4]
  0431    word        text segment
  0434    word        symbol[4]
  0445    word        text segment
  0448    word        symbol[4]
  0456    word        text segment
  045c    word        text segment
  046a    word        text segment
  048a    word        symbol[4]
  048e    word        symbol[2]
  0493    word        symbol[4]
  0497    word        symbol[9]
  04ab    word        text segment
  04be    word        text segment
  04c4    word        text segment
  04c7    word        symbol[4]
  04d6    word        symbol[4]
  04d9    word        symbol[4]
  04de    word        text segment
  04e4    word        text segment
  04ec    word        text segment
  04f8    word        symbol[3]
  04fc    word        symbol[0]
  050d    word        symbol[3]
  0515    word        text segment
  0529    word        symbol[3]
  0534    word        text segment
  0539    word        symbol[3]
  0543    word        text segment
  0546    word        symbol[3]
  0550    word        text segment
  0573    word        symbol[3]
  0577    word        symbol[3]
  0585    word        text segment
  0588    word        symbol[5]
  058d    word        symbol[10]
  05a2    word        text segment
  05ac    word        text segment
  05b6    word        text segment
  05d1    word        text segment
  05d4    word        symbol[3]
  05d9    word        text segment
  05dc    word        symbol[5]
  05e1    word        symbol[10]
  05ec    word        symbol[4]
  05ef    word        symbol[5]
  05fd    word        text segment
  0600    word        symbol[3]
  0606    word        text segment
  0611    word        symbol[3]
  0615    word        symbol[3]
  0618    word        symbol[3]
  061c    word        text segment
  0621    word        text segment
  0631    word        symbol[5]
  0634    word        symbol[4]
  0637    word        text segment
  0641    word        text segment
  0653    word        text segment
  068f    word        symbol[4]
  0692    word        symbol[5]
  06a0    word        text segment
  06b0    word        symbol[5]
  06b3    word        symbol[4]
  06b6    word        text segment
  06c2    word        symbol[3]
  06c6    word        symbol[0]
  06d7    word        symbol[3]
  06df    word        text segment
  06f3    word        symbol[3]
  06fe    word        text segment
  0703    word        text segment
  0706    word        symbol[5]
  070b    word        symbol[10]
  070e    word        symbol[3]
  0712    word        symbol[4]
  0718    word        text segment
  0731    word        symbol[4]
  0735    word        symbol[4]
  0738    word        text segment
  0743    word        symbol[3]
  0749    word        text segment
  074c    word        symbol[3]
  0752    word        text segment
  0755    word        symbol[3]
  075b    word        text segment
  075e    word        symbol[3]
  0763    word        text segment
  0766    word        symbol[3]
  076a    word        symbol[3]
  076d    word        text segment
  0770    word        symbol[3]
  0775    word        symbol[3]
  0778    word        symbol[3]
  077d    word        symbol[3]
  0780    word        text segment
  0786    word        symbol[11]
  0791    word        symbol[3]
  079c    word        symbol[5]
  07a7    word        symbol[4]
  07aa    word        symbol[4]
  07b4    word        text segment
  07b7    word        symbol[5]
  07bd    word        text segment
  07c0    word        symbol[5]
  07c6    word        text segment
  07cd    word        symbol[5]
  07d1    word        symbol[3]
  07d5    word        symbol[12]
  07db    word        symbol[4]
  07e4    word        symbol[10]
  07eb    word        text segment
  07ef    word        symbol[3]
  07f3    word        symbol[12]
  07fc    word        symbol[10]

Data relocations:
  Offset  Type        Target
  ------  ----        ------
  (none)

