=== lib/libwsc/match.o ===

Header:
  Magic:       0x99
  Config:      0x14 little-endian
  Symlen:      9 chars
  Symtab:      96 bytes (8 symbols)
  Text:        1674 bytes
  Data:        0 bytes
  BSS:         0 bytes
  Heap:        0 bytes
  Text offset: 0x0000
  Data offset: 0x068a

Disassembly: 1674 bytes
_amatch:
  0000  cd 00 00     call _amatch
  0003  f5           push af
  0004  f5           push af
  0005  21 06 00     ld hl,0006h
  0008  19           add hl,de
  0009  7e           ld a,(hl)
  000a  23           inc hl
  000b  66           ld h,(hl)
  000c  6f           ld l,a
  000d  22 00 00     ld (_amatch),hl
  0010  21 0a 00     ld hl,000ah
  0013  19           add hl,de
  0014  7e           ld a,(hl)
  0015  23           inc hl
  0016  66           ld h,(hl)
  0017  6f           ld l,a
  0018  7e           ld a,(hl)
  0019  fe 0a        cp 0ah
  001b  ca 8c 00     jp z,008ch
  001e  21 0a 00     ld hl,000ah
  0021  19           add hl,de
  0022  7e           ld a,(hl)
  0023  23           inc hl
  0024  66           ld h,(hl)
  0025  6f           ld l,a
  0026  7e           ld a,(hl)
  0027  fe 05        cp 05h
  0029  c2 99 00     jp nz,0099h
  002c  21 f6 ff     ld hl,fff6h
  002f  19           add hl,de
  0030  e5           push hl
  0031  21 0a 00     ld hl,000ah
  0034  19           add hl,de
  0035  7e           ld a,(hl)
  0036  23           inc hl
  0037  66           ld h,(hl)
  0038  6f           ld l,a
  0039  23           inc hl
  003a  c1           pop bc
  003b  7d           ld a,l
  003c  02           ld (bc),a
  003d  7c           ld a,h
  003e  03           inc bc
  003f  02           ld (bc),a
  0040  21 f8 ff     ld hl,fff8h
  0043  19           add hl,de
  0044  e5           push hl
  0045  21 08 00     ld hl,0008h
  0048  19           add hl,de
  0049  c1           pop bc
  004a  7e           ld a,(hl)
  004b  02           ld (bc),a
  004c  23           inc hl
  004d  7e           ld a,(hl)
  004e  03           inc bc
  004f  02           ld (bc),a
  0050  21 f8 ff     ld hl,fff8h
  0053  19           add hl,de
  0054  e5           push hl
  0055  21 00 00     ld hl,_amatch
  0058  c1           pop bc
  0059  0a           ld a,(bc)
  005a  96           sub (hl)
  005b  03           inc bc
  005c  0a           ld a,(bc)
  005d  23           inc hl
  005e  9e           sbc a,(hl)
  005f  d2 e1 00     jp nc,00e1h
  0062  21 00 00     ld hl,_amatch
  0065  e5           push hl
  0066  21 f6 ff     ld hl,fff6h
  0069  19           add hl,de
  006a  e5           push hl
  006b  21 f8 ff     ld hl,fff8h
  006e  19           add hl,de
  006f  e5           push hl
  0070  2a 00 00     ld hl,(_amatch)
  0073  e5           push hl
  0074  21 04 00     ld hl,0004h
  0077  19           add hl,de
  0078  4e           ld c,(hl)
  0079  23           inc hl
  007a  46           ld b,(hl)
  007b  c5           push bc
  007c  cd 74 03     call 0374h
  007f  21 0a 00     ld hl,000ah
  0082  39           add hl,sp
  0083  f9           ld sp,hl
  0084  79           ld a,c
  0085  b0           or b
  0086  c2 ca 00     jp nz,00cah
  0089  c3 e1 00     jp 00e1h
  008c  21 08 00     ld hl,0008h
  008f  19           add hl,de
  0090  7e           ld a,(hl)
  0091  23           inc hl
  0092  66           ld h,(hl)
  0093  6f           ld l,a
  0094  4d           ld c,l
  0095  44           ld b,h
  0096  c3 00 00     jp _amatch
  0099  21 0c 00     ld hl,000ch
  009c  19           add hl,de
  009d  4e           ld c,(hl)
  009e  23           inc hl
  009f  46           ld b,(hl)
  00a0  c5           push bc
  00a1  21 0a 00     ld hl,000ah
  00a4  19           add hl,de
  00a5  e5           push hl
  00a6  21 08 00     ld hl,0008h
  00a9  19           add hl,de
  00aa  e5           push hl
  00ab  2a 00 00     ld hl,(_amatch)
  00ae  e5           push hl
  00af  21 04 00     ld hl,0004h
  00b2  19           add hl,de
  00b3  4e           ld c,(hl)
  00b4  23           inc hl
  00b5  46           ld b,(hl)
  00b6  c5           push bc
  00b7  cd 74 03     call 0374h
  00ba  21 0a 00     ld hl,000ah
  00bd  39           add hl,sp
  00be  f9           ld sp,hl
  00bf  79           ld a,c
  00c0  b0           or b
  00c1  c2 10 00     jp nz,0010h
  00c4  01 ff ff     ld bc,ffffh
  00c7  c3 00 00     jp _amatch
  00ca  21 f6 ff     ld hl,fff6h
  00cd  19           add hl,de
  00ce  e5           push hl
  00cf  21 0a 00     ld hl,000ah
  00d2  19           add hl,de
  00d3  7e           ld a,(hl)
  00d4  23           inc hl
  00d5  66           ld h,(hl)
  00d6  6f           ld l,a
  00d7  23           inc hl
  00d8  c1           pop bc
  00d9  7d           ld a,l
  00da  02           ld (bc),a
  00db  7c           ld a,h
  00dc  03           inc bc
  00dd  02           ld (bc),a
  00de  c3 50 00     jp 0050h
  00e1  21 0c 00     ld hl,000ch
  00e4  19           add hl,de
  00e5  4e           ld c,(hl)
  00e6  23           inc hl
  00e7  46           ld b,(hl)
  00e8  c5           push bc
  00e9  21 f6 ff     ld hl,fff6h
  00ec  19           add hl,de
  00ed  4e           ld c,(hl)
  00ee  23           inc hl
  00ef  46           ld b,(hl)
  00f0  c5           push bc
  00f1  21 f8 ff     ld hl,fff8h
  00f4  19           add hl,de
  00f5  4e           ld c,(hl)
  00f6  23           inc hl
  00f7  46           ld b,(hl)
  00f8  c5           push bc
  00f9  2a 00 00     ld hl,(_amatch)
  00fc  e5           push hl
  00fd  21 04 00     ld hl,0004h
  0100  19           add hl,de
  0101  4e           ld c,(hl)
  0102  23           inc hl
  0103  46           ld b,(hl)
  0104  c5           push bc
  0105  cd 00 00     call _amatch
  0108  21 0a 00     ld hl,000ah
  010b  39           add hl,sp
  010c  f9           ld sp,hl
  010d  69           ld l,c
  010e  60           ld h,b
  010f  22 00 00     ld (_amatch),hl
  0112  3a 00 00     ld a,(_amatch)
  0115  fe ff        cp ffh
  0117  c2 1f 01     jp nz,011fh
  011a  3a 01 00     ld a,(0001h)
  011d  fe ff        cp ffh
  011f  c2 48 01     jp nz,0148h
  0122  21 08 00     ld hl,0008h
  0125  19           add hl,de
  0126  e5           push hl
  0127  21 f8 ff     ld hl,fff8h
  012a  19           add hl,de
  012b  c1           pop bc
  012c  0a           ld a,(bc)
  012d  be           cp (hl)
  012e  c2 35 01     jp nz,0135h
  0131  03           inc bc
  0132  0a           ld a,(bc)
  0133  23           inc hl
  0134  be           cp (hl)
  0135  ca 48 01     jp z,0148h
  0138  21 f8 ff     ld hl,fff8h
  013b  19           add hl,de
  013c  7e           ld a,(hl)
  013d  d6 01        sub 01h
  013f  77           ld (hl),a
  0140  23           inc hl
  0141  7e           ld a,(hl)
  0142  de 00        sbc a,00h
  0144  77           ld (hl),a
  0145  c3 e1 00     jp 00e1h
  0148  2a 00 00     ld hl,(_amatch)
  014b  4d           ld c,l
  014c  44           ld b,h
  014d  c3 00 00     jp _amatch
_match:
  0150  cd 00 00     call _amatch
  0153  21 06 00     ld hl,0006h
  0156  19           add hl,de
  0157  7e           ld a,(hl)
  0158  23           inc hl
  0159  66           ld h,(hl)
  015a  6f           ld l,a
  015b  22 00 00     ld (_amatch),hl
  015e  21 08 00     ld hl,0008h
  0161  19           add hl,de
  0162  7e           ld a,(hl)
  0163  23           inc hl
  0164  66           ld h,(hl)
  0165  6f           ld l,a
  0166  22 00 00     ld (_amatch),hl
  0169  2a 00 00     ld hl,(_amatch)
  016c  7e           ld a,(hl)
  016d  fe 03        cp 03h
  016f  c2 aa 01     jp nz,01aah
  0172  21 00 00     ld hl,_amatch
  0175  e5           push hl
  0176  2a 00 00     ld hl,(_amatch)
  0179  e5           push hl
  017a  21 00 00     ld hl,_amatch
  017d  e5           push hl
  017e  2a 00 00     ld hl,(_amatch)
  0181  e5           push hl
  0182  21 04 00     ld hl,0004h
  0185  19           add hl,de
  0186  4e           ld c,(hl)
  0187  23           inc hl
  0188  46           ld b,(hl)
  0189  c5           push bc
  018a  cd 00 00     call _amatch
  018d  21 0a 00     ld hl,000ah
  0190  39           add hl,sp
  0191  f9           ld sp,hl
  0192  79           ld a,c
  0193  fe ff        cp ffh
  0195  c2 9b 01     jp nz,019bh
  0198  78           ld a,b
  0199  fe ff        cp ffh
  019b  ca a4 01     jp z,01a4h
  019e  01 01 00     ld bc,0001h
  01a1  c3 a7 01     jp 01a7h
  01a4  01 00 00     ld bc,_amatch
  01a7  c3 00 00     jp _amatch
  01aa  97           sub a
  01ab  32 00 00     ld (_amatch),a
  01ae  32 01 00     ld (0001h),a
  01b1  21 00 00     ld hl,_amatch
  01b4  3a 00 00     ld a,(_amatch)
  01b7  96           sub (hl)
  01b8  3a 01 00     ld a,(0001h)
  01bb  23           inc hl
  01bc  9e           sbc a,(hl)
  01bd  d2 ed 01     jp nc,01edh
  01c0  21 04 00     ld hl,0004h
  01c3  19           add hl,de
  01c4  7e           ld a,(hl)
  01c5  23           inc hl
  01c6  66           ld h,(hl)
  01c7  6f           ld l,a
  01c8  e5           push hl
  01c9  2a 00 00     ld hl,(_amatch)
  01cc  e3           ex (sp),hl
  01cd  c1           pop bc
  01ce  09           add hl,bc
  01cf  e5           push hl
  01d0  2a 00 00     ld hl,(_amatch)
  01d3  01 03 00     ld bc,0003h
  01d6  09           add hl,bc
  01d7  c1           pop bc
  01d8  0a           ld a,(bc)
  01d9  be           cp (hl)
  01da  ca fd 01     jp z,01fdh
  01dd  2a 00 00     ld hl,(_amatch)
  01e0  01 02 00     ld bc,0002h
  01e3  09           add hl,bc
  01e4  7e           ld a,(hl)
  01e5  fe 01        cp 01h
  01e7  c2 fd 01     jp nz,01fdh
  01ea  c3 f3 01     jp 01f3h
  01ed  01 00 00     ld bc,_amatch
  01f0  c3 00 00     jp _amatch
  01f3  2a 00 00     ld hl,(_amatch)
  01f6  23           inc hl
  01f7  22 00 00     ld (_amatch),hl
  01fa  c3 b1 01     jp 01b1h
  01fd  21 00 00     ld hl,_amatch
  0200  e5           push hl
  0201  2a 00 00     ld hl,(_amatch)
  0204  e5           push hl
  0205  2a 00 00     ld hl,(_amatch)
  0208  e5           push hl
  0209  2a 00 00     ld hl,(_amatch)
  020c  e5           push hl
  020d  21 04 00     ld hl,0004h
  0210  19           add hl,de
  0211  4e           ld c,(hl)
  0212  23           inc hl
  0213  46           ld b,(hl)
  0214  c5           push bc
  0215  cd 00 00     call _amatch
  0218  21 0a 00     ld hl,000ah
  021b  39           add hl,sp
  021c  f9           ld sp,hl
  021d  79           ld a,c
  021e  fe ff        cp ffh
  0220  c2 26 02     jp nz,0226h
  0223  78           ld a,b
  0224  fe ff        cp ffh
  0226  ca f3 01     jp z,01f3h
  0229  01 01 00     ld bc,0001h
  022c  c3 00 00     jp _amatch
  022f  e5           push hl
  0230  02           ld (bc),a
  0231  08           ex af,af'
  0232  00           nop
  0233  b1           or c
  0234  02           ld (bc),a
  0235  01 00 00     ld bc,_amatch
  0238  00           nop
  0239  e2 02 cd     jp po,cd02h
  023c  00           nop
  023d  00           nop
  023e  21 fb ff     ld hl,fffbh
  0241  39           add hl,sp
  0242  f9           ld sp,hl
  0243  21 04 00     ld hl,0004h
  0246  19           add hl,de
  0247  7e           ld a,(hl)
  0248  23           inc hl
  0249  66           ld h,(hl)
  024a  6f           ld l,a
  024b  22 00 00     ld (_amatch),hl
  024e  21 06 00     ld hl,0006h
  0251  19           add hl,de
  0252  7e           ld a,(hl)
  0253  23           inc hl
  0254  66           ld h,(hl)
  0255  6f           ld l,a
  0256  22 00 00     ld (_amatch),hl
  0259  21 f7 ff     ld hl,fff7h
  025c  19           add hl,de
  025d  3a 00 00     ld a,(_amatch)
  0260  77           ld (hl),a
  0261  3a 01 00     ld a,(0001h)
  0264  23           inc hl
  0265  77           ld (hl),a
  0266  21 f5 ff     ld hl,fff5h
  0269  19           add hl,de
  026a  97           sub a
  026b  77           ld (hl),a
  026c  23           inc hl
  026d  77           ld (hl),a
  026e  2a 00 00     ld hl,(_amatch)
  0271  7e           ld a,(hl)
  0272  fe 09        cp 09h
  0274  ca 84 02     jp z,0284h
  0277  2a 00 00     ld hl,(_amatch)
  027a  7e           ld a,(hl)
  027b  4f           ld c,a
  027c  97           sub a
  027d  47           ld b,a
  027e  21 2f 02     ld hl,022fh
  0281  c3 00 00     jp _amatch
  0284  21 08 00     ld hl,0008h
  0287  19           add hl,de
  0288  7e           ld a,(hl)
  0289  23           inc hl
  028a  66           ld h,(hl)
  028b  6f           ld l,a
  028c  e5           push hl
  028d  2a 00 00     ld hl,(_amatch)
  0290  e5           push hl
  0291  21 f7 ff     ld hl,fff7h
  0294  19           add hl,de
  0295  c1           pop bc
  0296  79           ld a,c
  0297  96           sub (hl)
  0298  4f           ld c,a
  0299  78           ld a,b
  029a  23           inc hl
  029b  9e           sbc a,(hl)
  029c  47           ld b,a
  029d  03           inc bc
  029e  e1           pop hl
  029f  79           ld a,c
  02a0  77           ld (hl),a
  02a1  78           ld a,b
  02a2  23           inc hl
  02a3  77           ld (hl),a
  02a4  21 f5 ff     ld hl,fff5h
  02a7  19           add hl,de
  02a8  7e           ld a,(hl)
  02a9  23           inc hl
  02aa  66           ld h,(hl)
  02ab  6f           ld l,a
  02ac  4d           ld c,l
  02ad  44           ld b,h
  02ae  c3 00 00     jp _amatch
  02b1  2a 00 00     ld hl,(_amatch)
  02b4  23           inc hl
  02b5  22 00 00     ld (_amatch),hl
  02b8  2a 00 00     ld hl,(_amatch)
  02bb  7e           ld a,(hl)
  02bc  4f           ld c,a
  02bd  97           sub a
  02be  47           ld b,a
  02bf  21 00 00     ld hl,_amatch
  02c2  79           ld a,c
  02c3  be           cp (hl)
  02c4  c2 ca 02     jp nz,02cah
  02c7  78           ld a,b
  02c8  23           inc hl
  02c9  be           cp (hl)
  02ca  c2 d8 02     jp nz,02d8h
  02cd  21 f5 ff     ld hl,fff5h
  02d0  19           add hl,de
  02d1  3e 01        ld a,01h
  02d3  77           ld (hl),a
  02d4  87           add a,a
  02d5  9f           sbc a,a
  02d6  23           inc hl
  02d7  77           ld (hl),a
  02d8  2a 00 00     ld hl,(_amatch)
  02db  23           inc hl
  02dc  22 00 00     ld (_amatch),hl
  02df  c3 6e 02     jp 026eh
  02e2  c3 6e 02     jp 026eh
  02e5  2a 00 00     ld hl,(_amatch)
  02e8  23           inc hl
  02e9  22 00 00     ld (_amatch),hl
  02ec  2a 00 00     ld hl,(_amatch)
  02ef  7e           ld a,(hl)
  02f0  32 00 00     ld (_amatch),a
  02f3  97           sub a
  02f4  32 01 00     ld (0001h),a
  02f7  21 f9 ff     ld hl,fff9h
  02fa  19           add hl,de
  02fb  e5           push hl
  02fc  2a 00 00     ld hl,(_amatch)
  02ff  23           inc hl
  0300  22 00 00     ld (_amatch),hl
  0303  2a 00 00     ld hl,(_amatch)
  0306  c1           pop bc
  0307  7e           ld a,(hl)
  0308  02           ld (bc),a
  0309  21 f9 ff     ld hl,fff9h
  030c  19           add hl,de
  030d  7e           ld a,(hl)
  030e  4f           ld c,a
  030f  97           sub a
  0310  47           ld b,a
  0311  21 00 00     ld hl,_amatch
  0314  79           ld a,c
  0315  96           sub (hl)
  0316  78           ld a,b
  0317  23           inc hl
  0318  9e           sbc a,(hl)
  0319  fa 3c 03     jp m,033ch
  031c  21 00 00     ld hl,_amatch
  031f  3a 00 00     ld a,(_amatch)
  0322  be           cp (hl)
  0323  c2 2b 03     jp nz,032bh
  0326  3a 01 00     ld a,(0001h)
  0329  23           inc hl
  032a  be           cp (hl)
  032b  c2 46 03     jp nz,0346h
  032e  21 f5 ff     ld hl,fff5h
  0331  19           add hl,de
  0332  3e 01        ld a,01h
  0334  77           ld (hl),a
  0335  87           add a,a
  0336  9f           sbc a,a
  0337  23           inc hl
  0338  77           ld (hl),a
  0339  c3 46 03     jp 0346h
  033c  2a 00 00     ld hl,(_amatch)
  033f  23           inc hl
  0340  22 00 00     ld (_amatch),hl
  0343  c3 6e 02     jp 026eh
  0346  2a 00 00     ld hl,(_amatch)
  0349  23           inc hl
  034a  22 00 00     ld (_amatch),hl
  034d  c3 09 03     jp 0309h
  0350  37           scf
  0351  06 01        ld b,01h
  0353  00           nop
  0354  c6 05        add a,05h
  0356  13           inc de
  0357  00           nop
  0358  5b           ld e,e
  0359  05           dec b
  035a  14           inc d
  035b  00           nop
  035c  f7           rst 30h
  035d  04           inc b
  035e  07           rlca
  035f  00           nop
  0360  9c           sbc a,h
  0361  04           inc b
  0362  06 00        ld b,00h
  0364  67           ld h,a
  0365  04           inc b
  0366  04           inc b
  0367  00           nop
  0368  32 04 02     ld (0204h),a
  036b  00           nop
  036c  df           rst 18h
  036d  03           inc bc
  036e  03           inc bc
  036f  00           nop
  0370  00           nop
  0371  00           nop
  0372  fd 03        db fdh,03h
  0374  cd 00 00     call _amatch
  0377  f5           push af
  0378  f5           push af
  0379  f5           push af
  037a  21 06 00     ld hl,0006h
  037d  19           add hl,de
  037e  7e           ld a,(hl)
  037f  23           inc hl
  0380  66           ld h,(hl)
  0381  6f           ld l,a
  0382  22 00 00     ld (_amatch),hl
  0385  21 08 00     ld hl,0008h
  0388  19           add hl,de
  0389  7e           ld a,(hl)
  038a  23           inc hl
  038b  66           ld h,(hl)
  038c  6f           ld l,a
  038d  22 00 00     ld (_amatch),hl
  0390  21 f4 ff     ld hl,fff4h
  0393  19           add hl,de
  0394  97           sub a
  0395  77           ld (hl),a
  0396  23           inc hl
  0397  77           ld (hl),a
  0398  21 04 00     ld hl,0004h
  039b  19           add hl,de
  039c  7e           ld a,(hl)
  039d  23           inc hl
  039e  66           ld h,(hl)
  039f  6f           ld l,a
  03a0  e5           push hl
  03a1  2a 00 00     ld hl,(_amatch)
  03a4  7e           ld a,(hl)
  03a5  23           inc hl
  03a6  66           ld h,(hl)
  03a7  6f           ld l,a
  03a8  e3           ex (sp),hl
  03a9  c1           pop bc
  03aa  09           add hl,bc
  03ab  22 00 00     ld (_amatch),hl
  03ae  21 f8 ff     ld hl,fff8h
  03b1  19           add hl,de
  03b2  e5           push hl
  03b3  21 0a 00     ld hl,000ah
  03b6  19           add hl,de
  03b7  7e           ld a,(hl)
  03b8  23           inc hl
  03b9  66           ld h,(hl)
  03ba  6f           ld l,a
  03bb  c1           pop bc
  03bc  7e           ld a,(hl)
  03bd  02           ld (bc),a
  03be  23           inc hl
  03bf  7e           ld a,(hl)
  03c0  03           inc bc
  03c1  02           ld (bc),a
  03c2  21 f6 ff     ld hl,fff6h
  03c5  19           add hl,de
  03c6  3e ff        ld a,ffh
  03c8  77           ld (hl),a
  03c9  3e ff        ld a,ffh
  03cb  23           inc hl
  03cc  77           ld (hl),a
  03cd  21 f8 ff     ld hl,fff8h
  03d0  19           add hl,de
  03d1  7e           ld a,(hl)
  03d2  23           inc hl
  03d3  66           ld h,(hl)
  03d4  6f           ld l,a
  03d5  7e           ld a,(hl)
  03d6  4f           ld c,a
  03d7  97           sub a
  03d8  47           ld b,a
  03d9  21 50 03     ld hl,0350h
  03dc  c3 00 00     jp _amatch
  03df  2a 00 00     ld hl,(_amatch)
  03e2  7e           ld a,(hl)
  03e3  23           inc hl
  03e4  b6           or (hl)
  03e5  c2 fd 03     jp nz,03fdh
  03e8  21 f6 ff     ld hl,fff6h
  03eb  19           add hl,de
  03ec  97           sub a
  03ed  77           ld (hl),a
  03ee  23           inc hl
  03ef  77           ld (hl),a
  03f0  21 f8 ff     ld hl,fff8h
  03f3  19           add hl,de
  03f4  7e           ld a,(hl)
  03f5  c6 01        add a,01h
  03f7  77           ld (hl),a
  03f8  23           inc hl
  03f9  7e           ld a,(hl)
  03fa  ce 00        adc a,00h
  03fc  77           ld (hl),a
  03fd  21 0a 00     ld hl,000ah
  0400  19           add hl,de
  0401  7e           ld a,(hl)
  0402  23           inc hl
  0403  66           ld h,(hl)
  0404  6f           ld l,a
  0405  e5           push hl
  0406  21 f8 ff     ld hl,fff8h
  0409  19           add hl,de
  040a  c1           pop bc
  040b  7e           ld a,(hl)
  040c  02           ld (bc),a
  040d  23           inc hl
  040e  7e           ld a,(hl)
  040f  03           inc bc
  0410  02           ld (bc),a
  0411  21 f6 ff     ld hl,fff6h
  0414  19           add hl,de
  0415  23           inc hl
  0416  7e           ld a,(hl)
  0417  b7           or a
  0418  fa 84 06     jp m,0684h
  041b  2a 00 00     ld hl,(_amatch)
  041e  e5           push hl
  041f  21 f6 ff     ld hl,fff6h
  0422  19           add hl,de
  0423  c1           pop bc
  0424  0a           ld a,(bc)
  0425  86           add a,(hl)
  0426  02           ld (bc),a
  0427  03           inc bc
  0428  0a           ld a,(bc)
  0429  23           inc hl
  042a  8e           adc a,(hl)
  042b  02           ld (bc),a
  042c  01 01 00     ld bc,0001h
  042f  c3 00 00     jp _amatch
  0432  2a 00 00     ld hl,(_amatch)
  0435  e5           push hl
  0436  21 00 00     ld hl,_amatch
  0439  c1           pop bc
  043a  0a           ld a,(bc)
  043b  96           sub (hl)
  043c  03           inc bc
  043d  0a           ld a,(bc)
  043e  23           inc hl
  043f  9e           sbc a,(hl)
  0440  d2 57 04     jp nc,0457h
  0443  2a 00 00     ld hl,(_amatch)
  0446  7e           ld a,(hl)
  0447  fe 0a        cp 0ah
  0449  ca 57 04     jp z,0457h
  044c  21 f6 ff     ld hl,fff6h
  044f  19           add hl,de
  0450  3e 01        ld a,01h
  0452  77           ld (hl),a
  0453  87           add a,a
  0454  9f           sbc a,a
  0455  23           inc hl
  0456  77           ld (hl),a
  0457  21 f8 ff     ld hl,fff8h
  045a  19           add hl,de
  045b  7e           ld a,(hl)
  045c  c6 01        add a,01h
  045e  77           ld (hl),a
  045f  23           inc hl
  0460  7e           ld a,(hl)
  0461  ce 00        adc a,00h
  0463  77           ld (hl),a
  0464  c3 fd 03     jp 03fdh
  0467  2a 00 00     ld hl,(_amatch)
  046a  7e           ld a,(hl)
  046b  fe 0a        cp 0ah
  046d  ca 84 04     jp z,0484h
  0470  2a 00 00     ld hl,(_amatch)
  0473  e5           push hl
  0474  21 00 00     ld hl,_amatch
  0477  c1           pop bc
  0478  0a           ld a,(bc)
  0479  be           cp (hl)
  047a  c2 81 04     jp nz,0481h
  047d  03           inc bc
  047e  0a           ld a,(bc)
  047f  23           inc hl
  0480  be           cp (hl)
  0481  c2 fd 03     jp nz,03fdh
  0484  21 f6 ff     ld hl,fff6h
  0487  19           add hl,de
  0488  97           sub a
  0489  77           ld (hl),a
  048a  23           inc hl
  048b  77           ld (hl),a
  048c  21 f8 ff     ld hl,fff8h
  048f  19           add hl,de
  0490  7e           ld a,(hl)
  0491  c6 01        add a,01h
  0493  77           ld (hl),a
  0494  23           inc hl
  0495  7e           ld a,(hl)
  0496  ce 00        adc a,00h
  0498  77           ld (hl),a
  0499  c3 fd 03     jp 03fdh
  049c  2a 00 00     ld hl,(_amatch)
  049f  e5           push hl
  04a0  21 00 00     ld hl,_amatch
  04a3  c1           pop bc
  04a4  0a           ld a,(bc)
  04a5  96           sub (hl)
  04a6  03           inc bc
  04a7  0a           ld a,(bc)
  04a8  23           inc hl
  04a9  9e           sbc a,(hl)
  04aa  d2 e2 04     jp nc,04e2h
  04ad  21 f4 ff     ld hl,fff4h
  04b0  19           add hl,de
  04b1  e5           push hl
  04b2  21 f8 ff     ld hl,fff8h
  04b5  19           add hl,de
  04b6  7e           ld a,(hl)
  04b7  c6 01        add a,01h
  04b9  77           ld (hl),a
  04ba  23           inc hl
  04bb  7e           ld a,(hl)
  04bc  ce 00        adc a,00h
  04be  77           ld (hl),a
  04bf  2b           dec hl
  04c0  4e           ld c,(hl)
  04c1  23           inc hl
  04c2  46           ld b,(hl)
  04c3  c5           push bc
  04c4  2a 00 00     ld hl,(_amatch)
  04c7  7e           ld a,(hl)
  04c8  4f           ld c,a
  04c9  97           sub a
  04ca  47           ld b,a
  04cb  c5           push bc
  04cc  cd 3b 02     call 023bh
  04cf  f1           pop af
  04d0  f1           pop af
  04d1  f1           pop af
  04d2  79           ld a,c
  04d3  b0           or b
  04d4  ca e2 04     jp z,04e2h
  04d7  21 f6 ff     ld hl,fff6h
  04da  19           add hl,de
  04db  3e 01        ld a,01h
  04dd  77           ld (hl),a
  04de  87           add a,a
  04df  9f           sbc a,a
  04e0  23           inc hl
  04e1  77           ld (hl),a
  04e2  21 f8 ff     ld hl,fff8h
  04e5  19           add hl,de
  04e6  e5           push hl
  04e7  21 f4 ff     ld hl,fff4h
  04ea  19           add hl,de
  04eb  c1           pop bc
  04ec  0a           ld a,(bc)
  04ed  86           add a,(hl)
  04ee  02           ld (bc),a
  04ef  03           inc bc
  04f0  0a           ld a,(bc)
  04f1  23           inc hl
  04f2  8e           adc a,(hl)
  04f3  02           ld (bc),a
  04f4  c3 fd 03     jp 03fdh
  04f7  2a 00 00     ld hl,(_amatch)
  04fa  e5           push hl
  04fb  21 00 00     ld hl,_amatch
  04fe  c1           pop bc
  04ff  0a           ld a,(bc)
  0500  96           sub (hl)
  0501  03           inc bc
  0502  0a           ld a,(bc)
  0503  23           inc hl
  0504  9e           sbc a,(hl)
  0505  d2 46 05     jp nc,0546h
  0508  2a 00 00     ld hl,(_amatch)
  050b  7e           ld a,(hl)
  050c  fe 0a        cp 0ah
  050e  ca 46 05     jp z,0546h
  0511  21 f4 ff     ld hl,fff4h
  0514  19           add hl,de
  0515  e5           push hl
  0516  21 f8 ff     ld hl,fff8h
  0519  19           add hl,de
  051a  7e           ld a,(hl)
  051b  c6 01        add a,01h
  051d  77           ld (hl),a
  051e  23           inc hl
  051f  7e           ld a,(hl)
  0520  ce 00        adc a,00h
  0522  77           ld (hl),a
  0523  2b           dec hl
  0524  4e           ld c,(hl)
  0525  23           inc hl
  0526  46           ld b,(hl)
  0527  c5           push bc
  0528  2a 00 00     ld hl,(_amatch)
  052b  7e           ld a,(hl)
  052c  4f           ld c,a
  052d  97           sub a
  052e  47           ld b,a
  052f  c5           push bc
  0530  cd 3b 02     call 023bh
  0533  f1           pop af
  0534  f1           pop af
  0535  f1           pop af
  0536  79           ld a,c
  0537  b0           or b
  0538  c2 46 05     jp nz,0546h
  053b  21 f6 ff     ld hl,fff6h
  053e  19           add hl,de
  053f  3e 01        ld a,01h
  0541  77           ld (hl),a
  0542  87           add a,a
  0543  9f           sbc a,a
  0544  23           inc hl
  0545  77           ld (hl),a
  0546  21 f8 ff     ld hl,fff8h
  0549  19           add hl,de
  054a  e5           push hl
  054b  21 f4 ff     ld hl,fff4h
  054e  19           add hl,de
  054f  c1           pop bc
  0550  0a           ld a,(bc)
  0551  86           add a,(hl)
  0552  02           ld (bc),a
  0553  03           inc bc
  0554  0a           ld a,(bc)
  0555  23           inc hl
  0556  8e           adc a,(hl)
  0557  02           ld (bc),a
  0558  c3 fd 03     jp 03fdh
  055b  21 0c 00     ld hl,000ch
  055e  19           add hl,de
  055f  7e           ld a,(hl)
  0560  23           inc hl
  0561  b6           or (hl)
  0562  ca ae 05     jp z,05aeh
  0565  21 f8 ff     ld hl,fff8h
  0568  19           add hl,de
  0569  7e           ld a,(hl)
  056a  23           inc hl
  056b  66           ld h,(hl)
  056c  6f           ld l,a
  056d  23           inc hl
  056e  7e           ld a,(hl)
  056f  4f           ld c,a
  0570  97           sub a
  0571  47           ld b,a
  0572  69           ld l,c
  0573  60           ld h,b
  0574  29           add hl,hl
  0575  29           add hl,hl
  0576  e5           push hl
  0577  21 0c 00     ld hl,000ch
  057a  19           add hl,de
  057b  7e           ld a,(hl)
  057c  23           inc hl
  057d  66           ld h,(hl)
  057e  6f           ld l,a
  057f  e3           ex (sp),hl
  0580  c1           pop bc
  0581  09           add hl,bc
  0582  3a 00 00     ld a,(_amatch)
  0585  77           ld (hl),a
  0586  3a 01 00     ld a,(0001h)
  0589  23           inc hl
  058a  77           ld (hl),a
  058b  21 f8 ff     ld hl,fff8h
  058e  19           add hl,de
  058f  7e           ld a,(hl)
  0590  23           inc hl
  0591  66           ld h,(hl)
  0592  6f           ld l,a
  0593  23           inc hl
  0594  7e           ld a,(hl)
  0595  4f           ld c,a
  0596  97           sub a
  0597  47           ld b,a
  0598  69           ld l,c
  0599  60           ld h,b
  059a  29           add hl,hl
  059b  29           add hl,hl
  059c  e5           push hl
  059d  21 0c 00     ld hl,000ch
  05a0  19           add hl,de
  05a1  7e           ld a,(hl)
  05a2  23           inc hl
  05a3  66           ld h,(hl)
  05a4  6f           ld l,a
  05a5  e3           ex (sp),hl
  05a6  c1           pop bc
  05a7  09           add hl,bc
  05a8  23           inc hl
  05a9  23           inc hl
  05aa  97           sub a
  05ab  77           ld (hl),a
  05ac  23           inc hl
  05ad  77           ld (hl),a
  05ae  21 f8 ff     ld hl,fff8h
  05b1  19           add hl,de
  05b2  7e           ld a,(hl)
  05b3  c6 02        add a,02h
  05b5  77           ld (hl),a
  05b6  23           inc hl
  05b7  7e           ld a,(hl)
  05b8  ce 00        adc a,00h
  05ba  77           ld (hl),a
  05bb  21 f6 ff     ld hl,fff6h
  05be  19           add hl,de
  05bf  97           sub a
  05c0  77           ld (hl),a
  05c1  23           inc hl
  05c2  77           ld (hl),a
  05c3  c3 fd 03     jp 03fdh
  05c6  21 0c 00     ld hl,000ch
  05c9  19           add hl,de
  05ca  7e           ld a,(hl)
  05cb  23           inc hl
  05cc  b6           or (hl)
  05cd  ca 1f 06     jp z,061fh
  05d0  21 f8 ff     ld hl,fff8h
  05d3  19           add hl,de
  05d4  7e           ld a,(hl)
  05d5  23           inc hl
  05d6  66           ld h,(hl)
  05d7  6f           ld l,a
  05d8  23           inc hl
  05d9  7e           ld a,(hl)
  05da  4f           ld c,a
  05db  97           sub a
  05dc  47           ld b,a
  05dd  69           ld l,c
  05de  60           ld h,b
  05df  29           add hl,hl
  05e0  29           add hl,hl
  05e1  e5           push hl
  05e2  21 0c 00     ld hl,000ch
  05e5  19           add hl,de
  05e6  7e           ld a,(hl)
  05e7  23           inc hl
  05e8  66           ld h,(hl)
  05e9  6f           ld l,a
  05ea  e3           ex (sp),hl
  05eb  c1           pop bc
  05ec  09           add hl,bc
  05ed  23           inc hl
  05ee  23           inc hl
  05ef  e5           push hl
  05f0  2a 00 00     ld hl,(_amatch)
  05f3  e5           push hl
  05f4  21 f8 ff     ld hl,fff8h
  05f7  19           add hl,de
  05f8  7e           ld a,(hl)
  05f9  23           inc hl
  05fa  66           ld h,(hl)
  05fb  6f           ld l,a
  05fc  23           inc hl
  05fd  7e           ld a,(hl)
  05fe  4f           ld c,a
  05ff  97           sub a
  0600  47           ld b,a
  0601  69           ld l,c
  0602  60           ld h,b
  0603  29           add hl,hl
  0604  29           add hl,hl
  0605  e5           push hl
  0606  21 0c 00     ld hl,000ch
  0609  19           add hl,de
  060a  7e           ld a,(hl)
  060b  23           inc hl
  060c  66           ld h,(hl)
  060d  6f           ld l,a
  060e  e3           ex (sp),hl
  060f  c1           pop bc
  0610  09           add hl,bc
  0611  c1           pop bc
  0612  79           ld a,c
  0613  96           sub (hl)
  0614  4f           ld c,a
  0615  78           ld a,b
  0616  23           inc hl
  0617  9e           sbc a,(hl)
  0618  47           ld b,a
  0619  e1           pop hl
  061a  79           ld a,c
  061b  77           ld (hl),a
  061c  78           ld a,b
  061d  23           inc hl
  061e  77           ld (hl),a
  061f  21 f8 ff     ld hl,fff8h
  0622  19           add hl,de
  0623  7e           ld a,(hl)
  0624  c6 02        add a,02h
  0626  77           ld (hl),a
  0627  23           inc hl
  0628  7e           ld a,(hl)
  0629  ce 00        adc a,00h
  062b  77           ld (hl),a
  062c  21 f6 ff     ld hl,fff6h
  062f  19           add hl,de
  0630  97           sub a
  0631  77           ld (hl),a
  0632  23           inc hl
  0633  77           ld (hl),a
  0634  c3 fd 03     jp 03fdh
  0637  21 0a 00     ld hl,000ah
  063a  19           add hl,de
  063b  7e           ld a,(hl)
  063c  23           inc hl
  063d  66           ld h,(hl)
  063e  6f           ld l,a
  063f  7e           ld a,(hl)
  0640  c6 02        add a,02h
  0642  77           ld (hl),a
  0643  23           inc hl
  0644  7e           ld a,(hl)
  0645  ce 00        adc a,00h
  0647  77           ld (hl),a
  0648  2a 00 00     ld hl,(_amatch)
  064b  e5           push hl
  064c  21 00 00     ld hl,_amatch
  064f  c1           pop bc
  0650  0a           ld a,(bc)
  0651  96           sub (hl)
  0652  03           inc bc
  0653  0a           ld a,(bc)
  0654  23           inc hl
  0655  9e           sbc a,(hl)
  0656  d2 7e 06     jp nc,067eh
  0659  21 f8 ff     ld hl,fff8h
  065c  19           add hl,de
  065d  7e           ld a,(hl)
  065e  23           inc hl
  065f  66           ld h,(hl)
  0660  6f           ld l,a
  0661  23           inc hl
  0662  e5           push hl
  0663  2a 00 00     ld hl,(_amatch)
  0666  c1           pop bc
  0667  0a           ld a,(bc)
  0668  be           cp (hl)
  0669  c2 7e 06     jp nz,067eh
  066c  2a 00 00     ld hl,(_amatch)
  066f  7e           ld a,(hl)
  0670  c6 01        add a,01h
  0672  77           ld (hl),a
  0673  23           inc hl
  0674  7e           ld a,(hl)
  0675  ce 00        adc a,00h
  0677  77           ld (hl),a
  0678  01 01 00     ld bc,0001h
  067b  c3 00 00     jp _amatch
  067e  01 00 00     ld bc,_amatch
  0681  c3 00 00     jp _amatch
  0684  01 00 00     ld bc,_amatch
  0687  c3 00 00     jp _amatch

Data segment: (empty)

Symbol table: 8 symbols (9-char names)
  Index  Value  Type Seg    Global  Name
  -----  -----  ---- -----  ------  ----
  [  0]  0000   08   ext    yes      c.r4
  [  1]  0000   08   ext    yes      c.r3
  [  2]  0000   08   ext    yes      c.r2
  [  3]  0000   08   ext    yes      c.switch
  [  4]  0000   08   ext    yes      c.rets
  [  5]  0000   08   ext    yes      c.ents
  [  6]  0150   0d   text   yes      _match
  [  7]  0000   0d   text   yes      _amatch

Text relocations:
  Offset  Type        Target
  ------  ----        ------
  0001    word        symbol[5]
  000e    word        symbol[0]
  001c    word        text segment
  002a    word        text segment
  0056    word        symbol[0]
  0060    word        text segment
  0071    word        symbol[0]
  007d    word        text segment
  0087    word        text segment
  008a    word        text segment
  0097    word        symbol[4]
  00ac    word        symbol[0]
  00b8    word        text segment
  00c2    word        text segment
  00c8    word        symbol[4]
  00df    word        text segment
  00fa    word        symbol[0]
  0106    word        text segment
  0110    word        symbol[2]
  0113    word        symbol[2]
  0118    word        text segment
  011b    word        symbol[2]
  0120    word        text segment
  012f    word        text segment
  0136    word        text segment
  0146    word        text segment
  0149    word        symbol[2]
  014e    word        symbol[4]
  0151    word        symbol[5]
  015c    word        symbol[0]
  0167    word        symbol[2]
  016a    word        symbol[2]
  0170    word        text segment
  0177    word        symbol[2]
  017f    word        symbol[0]
  018b    word        text segment
  0196    word        text segment
  019c    word        text segment
  01a2    word        text segment
  01a8    word        symbol[4]
  01ac    word        symbol[1]
  01af    word        symbol[1]
  01b2    word        symbol[0]
  01b5    word        symbol[1]
  01b9    word        symbol[1]
  01be    word        text segment
  01ca    word        symbol[1]
  01d1    word        symbol[2]
  01db    word        text segment
  01de    word        symbol[2]
  01e8    word        text segment
  01eb    word        text segment
  01f1    word        symbol[4]
  01f4    word        symbol[1]
  01f8    word        symbol[1]
  01fb    word        text segment
  0202    word        symbol[2]
  0206    word        symbol[1]
  020a    word        symbol[0]
  0216    word        text segment
  0221    word        text segment
  0227    word        text segment
  022d    word        symbol[4]
  022f    word        text segment
  0233    word        text segment
  0239    word        text segment
  023c    word        symbol[5]
  024c    word        symbol[0]
  0257    word        symbol[2]
  025e    word        symbol[2]
  0262    word        symbol[2]
  026f    word        symbol[2]
  0275    word        text segment
  0278    word        symbol[2]
  027f    word        text segment
  0282    word        symbol[3]
  028e    word        symbol[2]
  02af    word        symbol[4]
  02b2    word        symbol[2]
  02b6    word        symbol[2]
  02b9    word        symbol[2]
  02c0    word        symbol[0]
  02c5    word        text segment
  02cb    word        text segment
  02d9    word        symbol[2]
  02dd    word        symbol[2]
  02e0    word        text segment
  02e3    word        text segment
  02e6    word        symbol[2]
  02ea    word        symbol[2]
  02ed    word        symbol[2]
  02f1    word        symbol[1]
  02f5    word        symbol[1]
  02fd    word        symbol[2]
  0301    word        symbol[2]
  0304    word        symbol[2]
  0312    word        symbol[1]
  031a    word        text segment
  031d    word        symbol[1]
  0320    word        symbol[0]
  0324    word        text segment
  0327    word        symbol[0]
  032c    word        text segment
  033a    word        text segment
  033d    word        symbol[2]
  0341    word        symbol[2]
  0344    word        text segment
  0347    word        symbol[1]
  034b    word        symbol[1]
  034e    word        text segment
  0350    word        text segment
  0354    word        text segment
  0358    word        text segment
  035c    word        text segment
  0360    word        text segment
  0364    word        text segment
  0368    word        text segment
  036c    word        text segment
  0372    word        text segment
  0375    word        symbol[5]
  0383    word        symbol[0]
  038e    word        symbol[2]
  03a2    word        symbol[2]
  03ac    word        symbol[1]
  03da    word        text segment
  03dd    word        symbol[3]
  03e0    word        symbol[2]
  03e6    word        text segment
  0419    word        text segment
  041c    word        symbol[2]
  0430    word        symbol[4]
  0433    word        symbol[2]
  0437    word        symbol[0]
  0441    word        text segment
  0444    word        symbol[1]
  044a    word        text segment
  0465    word        text segment
  0468    word        symbol[1]
  046e    word        text segment
  0471    word        symbol[2]
  0475    word        symbol[0]
  047b    word        text segment
  0482    word        text segment
  049a    word        text segment
  049d    word        symbol[2]
  04a1    word        symbol[0]
  04ab    word        text segment
  04c5    word        symbol[1]
  04cd    word        text segment
  04d5    word        text segment
  04f5    word        text segment
  04f8    word        symbol[2]
  04fc    word        symbol[0]
  0506    word        text segment
  0509    word        symbol[1]
  050f    word        text segment
  0529    word        symbol[1]
  0531    word        text segment
  0539    word        text segment
  0559    word        text segment
  0563    word        text segment
  0583    word        symbol[1]
  0587    word        symbol[1]
  05c4    word        text segment
  05ce    word        text segment
  05f1    word        symbol[1]
  0635    word        text segment
  0649    word        symbol[2]
  064d    word        symbol[0]
  0657    word        text segment
  0664    word        symbol[1]
  066a    word        text segment
  066d    word        symbol[2]
  067c    word        symbol[4]
  0682    word        symbol[4]
  0688    word        symbol[4]

Data relocations:
  Offset  Type        Target
  ------  ----        ------
  (none)

