=== lib/libwsc/mkord.o ===

Header:
  Magic:       0x99
  Config:      0x14 little-endian
  Symlen:      9 chars
  Symtab:      156 bytes (13 symbols)
  Text:        4026 bytes
  Data:        312 bytes
  BSS:         0 bytes
  Heap:        0 bytes
  Text offset: 0x0000
  Data offset: 0x0fba

Disassembly: 4026 bytes
  0000  cd 00 00     call 0000h
  0003  f5           push af
  0004  21 04 00     ld hl,0004h
  0007  19           add hl,de
  0008  7e           ld a,(hl)
  0009  23           inc hl
  000a  66           ld h,(hl)
  000b  6f           ld l,a
  000c  22 00 00     ld (0000h),hl
  000f  21 08 00     ld hl,0008h
  0012  19           add hl,de
  0013  7e           ld a,(hl)
  0014  23           inc hl
  0015  66           ld h,(hl)
  0016  6f           ld l,a
  0017  22 00 00     ld (0000h),hl
  001a  21 f8 ff     ld hl,fff8h
  001d  19           add hl,de
  001e  3a 00 00     ld a,(0000h)
  0021  77           ld (hl),a
  0022  3a 01 00     ld a,(0001h)
  0025  23           inc hl
  0026  77           ld (hl),a
  0027  21 00 00     ld hl,0000h
  002a  7e           ld a,(hl)
  002b  23           inc hl
  002c  b6           or (hl)
  002d  ca ce 00     jp z,00ceh
  0030  2a 00 00     ld hl,(0000h)
  0033  7e           ld a,(hl)
  0034  fe 0a        cp 0ah
  0036  ca ce 00     jp z,00ceh
  0039  21 06 00     ld hl,0006h
  003c  19           add hl,de
  003d  7e           ld a,(hl)
  003e  23           inc hl
  003f  b6           or (hl)
  0040  ca 6c 00     jp z,006ch
  0043  2a 00 00     ld hl,(0000h)
  0046  7e           ld a,(hl)
  0047  4f           ld c,a
  0048  97           sub a
  0049  47           ld b,a
  004a  21 06 00     ld hl,0006h
  004d  19           add hl,de
  004e  79           ld a,c
  004f  be           cp (hl)
  0050  c2 56 00     jp nz,0056h
  0053  78           ld a,b
  0054  23           inc hl
  0055  be           cp (hl)
  0056  c2 c4 00     jp nz,00c4h
  0059  3a 00 00     ld a,(0000h)
  005c  d6 01        sub 01h
  005e  32 00 00     ld (0000h),a
  0061  3a 01 00     ld a,(0001h)
  0064  de 00        sbc a,00h
  0066  32 01 00     ld (0001h),a
  0069  c3 c4 00     jp 00c4h
  006c  2a 00 00     ld hl,(0000h)
  006f  7e           ld a,(hl)
  0070  fe 20        cp 20h
  0072  c2 7f 00     jp nz,007fh
  0075  2a 00 00     ld hl,(0000h)
  0078  23           inc hl
  0079  22 00 00     ld (0000h),hl
  007c  c3 6c 00     jp 006ch
  007f  2a 00 00     ld hl,(0000h)
  0082  7e           ld a,(hl)
  0083  fe 20        cp 20h
  0085  ca 9b 00     jp z,009bh
  0088  2a 00 00     ld hl,(0000h)
  008b  7e           ld a,(hl)
  008c  fe 0a        cp 0ah
  008e  ca 9b 00     jp z,009bh
  0091  2a 00 00     ld hl,(0000h)
  0094  23           inc hl
  0095  22 00 00     ld (0000h),hl
  0098  c3 7f 00     jp 007fh
  009b  3a 00 00     ld a,(0000h)
  009e  d6 01        sub 01h
  00a0  32 00 00     ld (0000h),a
  00a3  3a 01 00     ld a,(0001h)
  00a6  de 00        sbc a,00h
  00a8  32 01 00     ld (0001h),a
  00ab  2a 00 00     ld hl,(0000h)
  00ae  7e           ld a,(hl)
  00af  fe 0a        cp 0ah
  00b1  ca ce 00     jp z,00ceh
  00b4  3a 00 00     ld a,(0000h)
  00b7  d6 01        sub 01h
  00b9  32 00 00     ld (0000h),a
  00bc  3a 01 00     ld a,(0001h)
  00bf  de 00        sbc a,00h
  00c1  32 01 00     ld (0001h),a
  00c4  2a 00 00     ld hl,(0000h)
  00c7  23           inc hl
  00c8  22 00 00     ld (0000h),hl
  00cb  c3 27 00     jp 0027h
  00ce  21 0a 00     ld hl,000ah
  00d1  19           add hl,de
  00d2  7e           ld a,(hl)
  00d3  23           inc hl
  00d4  b6           or (hl)
  00d5  ca f8 00     jp z,00f8h
  00d8  2a 00 00     ld hl,(0000h)
  00db  7e           ld a,(hl)
  00dc  fe 0a        cp 0ah
  00de  ca f8 00     jp z,00f8h
  00e1  2a 00 00     ld hl,(0000h)
  00e4  23           inc hl
  00e5  22 00 00     ld (0000h),hl
  00e8  21 0a 00     ld hl,000ah
  00eb  19           add hl,de
  00ec  7e           ld a,(hl)
  00ed  d6 01        sub 01h
  00ef  77           ld (hl),a
  00f0  23           inc hl
  00f1  7e           ld a,(hl)
  00f2  de 00        sbc a,00h
  00f4  77           ld (hl),a
  00f5  c3 ce 00     jp 00ceh
  00f8  21 0c 00     ld hl,000ch
  00fb  19           add hl,de
  00fc  7e           ld a,(hl)
  00fd  23           inc hl
  00fe  b6           or (hl)
  00ff  ca 2e 01     jp z,012eh
  0102  2a 00 00     ld hl,(0000h)
  0105  7e           ld a,(hl)
  0106  fe 0a        cp 0ah
  0108  ca 2e 01     jp z,012eh
  010b  21 f8 ff     ld hl,fff8h
  010e  19           add hl,de
  010f  3a 00 00     ld a,(0000h)
  0112  be           cp (hl)
  0113  c2 1b 01     jp nz,011bh
  0116  3a 01 00     ld a,(0001h)
  0119  23           inc hl
  011a  be           cp (hl)
  011b  ca 2e 01     jp z,012eh
  011e  3a 00 00     ld a,(0000h)
  0121  d6 01        sub 01h
  0123  32 00 00     ld (0000h),a
  0126  3a 01 00     ld a,(0001h)
  0129  de 00        sbc a,00h
  012b  32 01 00     ld (0001h),a
  012e  2a 00 00     ld hl,(0000h)
  0131  4d           ld c,l
  0132  44           ld b,h
  0133  c3 00 00     jp 0000h
  0136  cd 00 00     call 0000h
  0139  21 04 00     ld hl,0004h
  013c  19           add hl,de
  013d  7e           ld a,(hl)
  013e  23           inc hl
  013f  66           ld h,(hl)
  0140  6f           ld l,a
  0141  22 00 00     ld (0000h),hl
  0144  21 06 00     ld hl,0006h
  0147  19           add hl,de
  0148  7e           ld a,(hl)
  0149  23           inc hl
  014a  66           ld h,(hl)
  014b  6f           ld l,a
  014c  22 00 00     ld (0000h),hl
  014f  21 08 00     ld hl,0008h
  0152  19           add hl,de
  0153  3a 00 00     ld a,(0000h)
  0156  96           sub (hl)
  0157  3a 01 00     ld a,(0001h)
  015a  23           inc hl
  015b  9e           sbc a,(hl)
  015c  d2 9a 01     jp nc,019ah
  015f  2a 00 00     ld hl,(0000h)
  0162  7e           ld a,(hl)
  0163  4f           ld c,a
  0164  97           sub a
  0165  47           ld b,a
  0166  79           ld a,c
  0167  e6 80        and 80h
  0169  c2 90 01     jp nz,0190h
  016c  2a 00 00     ld hl,(0000h)
  016f  7e           ld a,(hl)
  0170  4f           ld c,a
  0171  97           sub a
  0172  47           ld b,a
  0173  21 64 10     ld hl,1064h
  0176  09           add hl,bc
  0177  7e           ld a,(hl)
  0178  b7           or a
  0179  ca 9a 01     jp z,019ah
  017c  c3 90 01     jp 0190h
  017f  2a 00 00     ld hl,(0000h)
  0182  23           inc hl
  0183  22 00 00     ld (0000h),hl
  0186  2a 00 00     ld hl,(0000h)
  0189  23           inc hl
  018a  22 00 00     ld (0000h),hl
  018d  c3 4f 01     jp 014fh
  0190  2a 00 00     ld hl,(0000h)
  0193  23           inc hl
  0194  22 00 00     ld (0000h),hl
  0197  c3 4f 01     jp 014fh
  019a  21 0a 00     ld hl,000ah
  019d  19           add hl,de
  019e  3a 00 00     ld a,(0000h)
  01a1  96           sub (hl)
  01a2  3a 01 00     ld a,(0001h)
  01a5  23           inc hl
  01a6  9e           sbc a,(hl)
  01a7  d2 c7 01     jp nc,01c7h
  01aa  2a 00 00     ld hl,(0000h)
  01ad  7e           ld a,(hl)
  01ae  4f           ld c,a
  01af  97           sub a
  01b0  47           ld b,a
  01b1  79           ld a,c
  01b2  e6 80        and 80h
  01b4  c2 f7 01     jp nz,01f7h
  01b7  2a 00 00     ld hl,(0000h)
  01ba  7e           ld a,(hl)
  01bb  4f           ld c,a
  01bc  97           sub a
  01bd  47           ld b,a
  01be  21 64 10     ld hl,1064h
  01c1  09           add hl,bc
  01c2  7e           ld a,(hl)
  01c3  b7           or a
  01c4  c2 f7 01     jp nz,01f7h
  01c7  21 08 00     ld hl,0008h
  01ca  19           add hl,de
  01cb  e5           push hl
  01cc  21 00 00     ld hl,0000h
  01cf  c1           pop bc
  01d0  0a           ld a,(bc)
  01d1  be           cp (hl)
  01d2  c2 d9 01     jp nz,01d9h
  01d5  03           inc bc
  01d6  0a           ld a,(bc)
  01d7  23           inc hl
  01d8  be           cp (hl)
  01d9  c2 01 02     jp nz,0201h
  01dc  21 0a 00     ld hl,000ah
  01df  19           add hl,de
  01e0  e5           push hl
  01e1  21 00 00     ld hl,0000h
  01e4  c1           pop bc
  01e5  0a           ld a,(bc)
  01e6  be           cp (hl)
  01e7  c2 ee 01     jp nz,01eeh
  01ea  03           inc bc
  01eb  0a           ld a,(bc)
  01ec  23           inc hl
  01ed  be           cp (hl)
  01ee  c2 01 02     jp nz,0201h
  01f1  01 00 00     ld bc,0000h
  01f4  c3 00 00     jp 0000h
  01f7  2a 00 00     ld hl,(0000h)
  01fa  23           inc hl
  01fb  22 00 00     ld (0000h),hl
  01fe  c3 9a 01     jp 019ah
  0201  21 08 00     ld hl,0008h
  0204  19           add hl,de
  0205  e5           push hl
  0206  21 00 00     ld hl,0000h
  0209  c1           pop bc
  020a  0a           ld a,(bc)
  020b  be           cp (hl)
  020c  c2 13 02     jp nz,0213h
  020f  03           inc bc
  0210  0a           ld a,(bc)
  0211  23           inc hl
  0212  be           cp (hl)
  0213  c2 2c 02     jp nz,022ch
  0216  21 0a 00     ld hl,000ah
  0219  19           add hl,de
  021a  3a 00 00     ld a,(0000h)
  021d  96           sub (hl)
  021e  3a 01 00     ld a,(0001h)
  0221  23           inc hl
  0222  9e           sbc a,(hl)
  0223  d2 2c 02     jp nc,022ch
  0226  01 ff ff     ld bc,ffffh
  0229  c3 00 00     jp 0000h
  022c  21 08 00     ld hl,0008h
  022f  19           add hl,de
  0230  3a 00 00     ld a,(0000h)
  0233  96           sub (hl)
  0234  3a 01 00     ld a,(0001h)
  0237  23           inc hl
  0238  9e           sbc a,(hl)
  0239  d2 57 02     jp nc,0257h
  023c  21 0a 00     ld hl,000ah
  023f  19           add hl,de
  0240  e5           push hl
  0241  21 00 00     ld hl,0000h
  0244  c1           pop bc
  0245  0a           ld a,(bc)
  0246  be           cp (hl)
  0247  c2 4e 02     jp nz,024eh
  024a  03           inc bc
  024b  0a           ld a,(bc)
  024c  23           inc hl
  024d  be           cp (hl)
  024e  c2 57 02     jp nz,0257h
  0251  01 01 00     ld bc,0001h
  0254  c3 00 00     jp 0000h
  0257  2a 00 00     ld hl,(0000h)
  025a  7e           ld a,(hl)
  025b  4f           ld c,a
  025c  97           sub a
  025d  47           ld b,a
  025e  69           ld l,c
  025f  60           ld h,b
  0260  e5           push hl
  0261  2a 00 00     ld hl,(0000h)
  0264  7e           ld a,(hl)
  0265  4f           ld c,a
  0266  97           sub a
  0267  47           ld b,a
  0268  e1           pop hl
  0269  7d           ld a,l
  026a  91           sub c
  026b  6f           ld l,a
  026c  7c           ld a,h
  026d  98           sbc a,b
  026e  67           ld h,a
  026f  22 00 00     ld (0000h),hl
  0272  21 00 00     ld hl,0000h
  0275  7e           ld a,(hl)
  0276  23           inc hl
  0277  b6           or (hl)
  0278  ca 7f 01     jp z,017fh
  027b  2a 00 00     ld hl,(0000h)
  027e  4d           ld c,l
  027f  44           ld b,h
  0280  c3 00 00     jp 0000h
_mkord:
  0283  cd 00 00     call 0000h
  0286  21 06 00     ld hl,0006h
  0289  19           add hl,de
  028a  7e           ld a,(hl)
  028b  23           inc hl
  028c  b6           or (hl)
  028d  ca a6 02     jp z,02a6h
  0290  21 e4 10     ld hl,10e4h
  0293  e5           push hl
  0294  21 06 00     ld hl,0006h
  0297  19           add hl,de
  0298  4e           ld c,(hl)
  0299  23           inc hl
  029a  46           ld b,(hl)
  029b  c5           push bc
  029c  21 e4 10     ld hl,10e4h
  029f  e5           push hl
  02a0  cd 88 0d     call 0d88h
  02a3  f1           pop af
  02a4  f1           pop af
  02a5  f1           pop af
  02a6  21 04 00     ld hl,0004h
  02a9  19           add hl,de
  02aa  7e           ld a,(hl)
  02ab  23           inc hl
  02ac  66           ld h,(hl)
  02ad  6f           ld l,a
  02ae  7e           ld a,(hl)
  02af  23           inc hl
  02b0  b6           or (hl)
  02b1  ca ff 02     jp z,02ffh
  02b4  21 ba 0f     ld hl,0fbah
  02b7  7e           ld a,(hl)
  02b8  23           inc hl
  02b9  b6           or (hl)
  02ba  ca ff 02     jp z,02ffh
  02bd  21 e4 10     ld hl,10e4h
  02c0  e5           push hl
  02c1  21 04 00     ld hl,0004h
  02c4  19           add hl,de
  02c5  7e           ld a,(hl)
  02c6  23           inc hl
  02c7  66           ld h,(hl)
  02c8  6f           ld l,a
  02c9  4e           ld c,(hl)
  02ca  23           inc hl
  02cb  46           ld b,(hl)
  02cc  c5           push bc
  02cd  3a ba 0f     ld a,(0fbah)
  02d0  d6 01        sub 01h
  02d2  32 ba 0f     ld (0fbah),a
  02d5  3a bb 0f     ld a,(0fbbh)
  02d8  de 00        sbc a,00h
  02da  32 bb 0f     ld (0fbbh),a
  02dd  2a ba 0f     ld hl,(0fbah)
  02e0  e5           push hl
  02e1  21 0e 00     ld hl,000eh
  02e4  e5           push hl
  02e5  cd 00 00     call 0000h
  02e8  e1           pop hl
  02e9  01 bc 0f     ld bc,0fbch
  02ec  09           add hl,bc
  02ed  e5           push hl
  02ee  cd 88 0d     call 0d88h
  02f1  f1           pop af
  02f2  f1           pop af
  02f3  f1           pop af
  02f4  79           ld a,c
  02f5  b0           or b
  02f6  c2 13 03     jp nz,0313h
  02f9  01 00 00     ld bc,0000h
  02fc  c3 00 00     jp 0000h
  02ff  21 04 00     ld hl,0004h
  0302  19           add hl,de
  0303  7e           ld a,(hl)
  0304  23           inc hl
  0305  66           ld h,(hl)
  0306  6f           ld l,a
  0307  7e           ld a,(hl)
  0308  23           inc hl
  0309  b6           or (hl)
  030a  ca 23 03     jp z,0323h
  030d  01 00 00     ld bc,0000h
  0310  c3 00 00     jp 0000h
  0313  21 04 00     ld hl,0004h
  0316  19           add hl,de
  0317  7e           ld a,(hl)
  0318  c6 02        add a,02h
  031a  77           ld (hl),a
  031b  23           inc hl
  031c  7e           ld a,(hl)
  031d  ce 00        adc a,00h
  031f  77           ld (hl),a
  0320  c3 a6 02     jp 02a6h
  0323  3a ba 0f     ld a,(0fbah)
  0326  fe 0b        cp 0bh
  0328  c2 30 03     jp nz,0330h
  032b  3a bb 0f     ld a,(0fbbh)
  032e  fe 00        cp 00h
  0330  c2 62 03     jp nz,0362h
  0333  21 0e 00     ld hl,000eh
  0336  e5           push hl
  0337  21 e4 10     ld hl,10e4h
  033a  e5           push hl
  033b  3a ba 0f     ld a,(0fbah)
  033e  d6 01        sub 01h
  0340  32 ba 0f     ld (0fbah),a
  0343  3a bb 0f     ld a,(0fbbh)
  0346  de 00        sbc a,00h
  0348  32 bb 0f     ld (0fbbh),a
  034b  2a ba 0f     ld hl,(0fbah)
  034e  e5           push hl
  034f  21 0e 00     ld hl,000eh
  0352  e5           push hl
  0353  cd 00 00     call 0000h
  0356  e1           pop hl
  0357  01 bc 0f     ld bc,0fbch
  035a  09           add hl,bc
  035b  e5           push hl
  035c  cd 00 00     call 0000h
  035f  f1           pop af
  0360  f1           pop af
  0361  f1           pop af
  0362  21 d7 07     ld hl,07d7h
  0365  4d           ld c,l
  0366  44           ld b,h
  0367  c3 00 00     jp 0000h
  036a  cd 00 00     call 0000h
  036d  21 f0 ff     ld hl,fff0h
  0370  39           add hl,sp
  0371  f9           ld sp,hl
  0372  21 04 00     ld hl,0004h
  0375  19           add hl,de
  0376  7e           ld a,(hl)
  0377  23           inc hl
  0378  66           ld h,(hl)
  0379  6f           ld l,a
  037a  22 00 00     ld (0000h),hl
  037d  21 06 00     ld hl,0006h
  0380  19           add hl,de
  0381  7e           ld a,(hl)
  0382  23           inc hl
  0383  66           ld h,(hl)
  0384  6f           ld l,a
  0385  22 00 00     ld (0000h),hl
  0388  2a 00 00     ld hl,(0000h)
  038b  3e 20        ld a,20h
  038d  be           cp (hl)
  038e  d2 9a 03     jp nc,039ah
  0391  2a 00 00     ld hl,(0000h)
  0394  7e           ld a,(hl)
  0395  fe 7f        cp 7fh
  0397  da b4 03     jp c,03b4h
  039a  21 08 00     ld hl,0008h
  039d  19           add hl,de
  039e  3a 00 00     ld a,(0000h)
  03a1  96           sub (hl)
  03a2  3a 01 00     ld a,(0001h)
  03a5  23           inc hl
  03a6  9e           sbc a,(hl)
  03a7  d2 b4 03     jp nc,03b4h
  03aa  2a 00 00     ld hl,(0000h)
  03ad  23           inc hl
  03ae  22 00 00     ld (0000h),hl
  03b1  c3 88 03     jp 0388h
  03b4  2a 00 00     ld hl,(0000h)
  03b7  3e 20        ld a,20h
  03b9  be           cp (hl)
  03ba  d2 c6 03     jp nc,03c6h
  03bd  2a 00 00     ld hl,(0000h)
  03c0  7e           ld a,(hl)
  03c1  fe 7f        cp 7fh
  03c3  da e0 03     jp c,03e0h
  03c6  21 0a 00     ld hl,000ah
  03c9  19           add hl,de
  03ca  3a 00 00     ld a,(0000h)
  03cd  96           sub (hl)
  03ce  3a 01 00     ld a,(0001h)
  03d1  23           inc hl
  03d2  9e           sbc a,(hl)
  03d3  d2 e0 03     jp nc,03e0h
  03d6  2a 00 00     ld hl,(0000h)
  03d9  23           inc hl
  03da  22 00 00     ld (0000h),hl
  03dd  c3 b4 03     jp 03b4h
  03e0  21 f8 ff     ld hl,fff8h
  03e3  19           add hl,de
  03e4  e5           push hl
  03e5  21 f6 ff     ld hl,fff6h
  03e8  19           add hl,de
  03e9  3e 01        ld a,01h
  03eb  77           ld (hl),a
  03ec  87           add a,a
  03ed  9f           sbc a,a
  03ee  23           inc hl
  03ef  77           ld (hl),a
  03f0  2b           dec hl
  03f1  c1           pop bc
  03f2  7e           ld a,(hl)
  03f3  02           ld (bc),a
  03f4  23           inc hl
  03f5  7e           ld a,(hl)
  03f6  03           inc bc
  03f7  02           ld (bc),a
  03f8  2a 00 00     ld hl,(0000h)
  03fb  7e           ld a,(hl)
  03fc  fe 2d        cp 2dh
  03fe  c2 23 04     jp nz,0423h
  0401  2a 00 00     ld hl,(0000h)
  0404  23           inc hl
  0405  22 00 00     ld (0000h),hl
  0408  21 f8 ff     ld hl,fff8h
  040b  19           add hl,de
  040c  e5           push hl
  040d  21 f8 ff     ld hl,fff8h
  0410  19           add hl,de
  0411  7e           ld a,(hl)
  0412  23           inc hl
  0413  66           ld h,(hl)
  0414  6f           ld l,a
  0415  3e 00        ld a,00h
  0417  95           sub l
  0418  6f           ld l,a
  0419  3e 00        ld a,00h
  041b  9c           sbc a,h
  041c  67           ld h,a
  041d  c1           pop bc
  041e  7d           ld a,l
  041f  02           ld (bc),a
  0420  7c           ld a,h
  0421  03           inc bc
  0422  02           ld (bc),a
  0423  2a 00 00     ld hl,(0000h)
  0426  7e           ld a,(hl)
  0427  fe 2d        cp 2dh
  0429  c2 4e 04     jp nz,044eh
  042c  2a 00 00     ld hl,(0000h)
  042f  23           inc hl
  0430  22 00 00     ld (0000h),hl
  0433  21 f6 ff     ld hl,fff6h
  0436  19           add hl,de
  0437  e5           push hl
  0438  21 f6 ff     ld hl,fff6h
  043b  19           add hl,de
  043c  7e           ld a,(hl)
  043d  23           inc hl
  043e  66           ld h,(hl)
  043f  6f           ld l,a
  0440  3e 00        ld a,00h
  0442  95           sub l
  0443  6f           ld l,a
  0444  3e 00        ld a,00h
  0446  9c           sbc a,h
  0447  67           ld h,a
  0448  c1           pop bc
  0449  7d           ld a,l
  044a  02           ld (bc),a
  044b  7c           ld a,h
  044c  03           inc bc
  044d  02           ld (bc),a
  044e  21 f8 ff     ld hl,fff8h
  0451  19           add hl,de
  0452  e5           push hl
  0453  21 f6 ff     ld hl,fff6h
  0456  19           add hl,de
  0457  c1           pop bc
  0458  0a           ld a,(bc)
  0459  be           cp (hl)
  045a  c2 61 04     jp nz,0461h
  045d  03           inc bc
  045e  0a           ld a,(bc)
  045f  23           inc hl
  0460  be           cp (hl)
  0461  ca 71 04     jp z,0471h
  0464  21 f8 ff     ld hl,fff8h
  0467  19           add hl,de
  0468  7e           ld a,(hl)
  0469  23           inc hl
  046a  66           ld h,(hl)
  046b  6f           ld l,a
  046c  4d           ld c,l
  046d  44           ld b,h
  046e  c3 00 00     jp 0000h
  0471  2a 00 00     ld hl,(0000h)
  0474  7e           ld a,(hl)
  0475  fe 30        cp 30h
  0477  c2 94 04     jp nz,0494h
  047a  21 08 00     ld hl,0008h
  047d  19           add hl,de
  047e  3a 00 00     ld a,(0000h)
  0481  96           sub (hl)
  0482  3a 01 00     ld a,(0001h)
  0485  23           inc hl
  0486  9e           sbc a,(hl)
  0487  d2 94 04     jp nc,0494h
  048a  2a 00 00     ld hl,(0000h)
  048d  23           inc hl
  048e  22 00 00     ld (0000h),hl
  0491  c3 71 04     jp 0471h
  0494  2a 00 00     ld hl,(0000h)
  0497  7e           ld a,(hl)
  0498  fe 30        cp 30h
  049a  c2 b7 04     jp nz,04b7h
  049d  21 0a 00     ld hl,000ah
  04a0  19           add hl,de
  04a1  3a 00 00     ld a,(0000h)
  04a4  96           sub (hl)
  04a5  3a 01 00     ld a,(0001h)
  04a8  23           inc hl
  04a9  9e           sbc a,(hl)
  04aa  d2 b7 04     jp nc,04b7h
  04ad  2a 00 00     ld hl,(0000h)
  04b0  23           inc hl
  04b1  22 00 00     ld (0000h),hl
  04b4  c3 94 04     jp 0494h
  04b7  21 f0 ff     ld hl,fff0h
  04ba  19           add hl,de
  04bb  3a 00 00     ld a,(0000h)
  04be  77           ld (hl),a
  04bf  3a 01 00     ld a,(0001h)
  04c2  23           inc hl
  04c3  77           ld (hl),a
  04c4  21 08 00     ld hl,0008h
  04c7  19           add hl,de
  04c8  3a 00 00     ld a,(0000h)
  04cb  96           sub (hl)
  04cc  3a 01 00     ld a,(0001h)
  04cf  23           inc hl
  04d0  9e           sbc a,(hl)
  04d1  d2 f0 04     jp nc,04f0h
  04d4  2a 00 00     ld hl,(0000h)
  04d7  7e           ld a,(hl)
  04d8  fe 30        cp 30h
  04da  da f0 04     jp c,04f0h
  04dd  2a 00 00     ld hl,(0000h)
  04e0  3e 39        ld a,39h
  04e2  be           cp (hl)
  04e3  da f0 04     jp c,04f0h
  04e6  2a 00 00     ld hl,(0000h)
  04e9  23           inc hl
  04ea  22 00 00     ld (0000h),hl
  04ed  c3 c4 04     jp 04c4h
  04f0  21 ee ff     ld hl,ffeeh
  04f3  19           add hl,de
  04f4  3a 00 00     ld a,(0000h)
  04f7  77           ld (hl),a
  04f8  3a 01 00     ld a,(0001h)
  04fb  23           inc hl
  04fc  77           ld (hl),a
  04fd  21 0a 00     ld hl,000ah
  0500  19           add hl,de
  0501  3a 00 00     ld a,(0000h)
  0504  96           sub (hl)
  0505  3a 01 00     ld a,(0001h)
  0508  23           inc hl
  0509  9e           sbc a,(hl)
  050a  d2 29 05     jp nc,0529h
  050d  2a 00 00     ld hl,(0000h)
  0510  7e           ld a,(hl)
  0511  fe 30        cp 30h
  0513  da 29 05     jp c,0529h
  0516  2a 00 00     ld hl,(0000h)
  0519  3e 39        ld a,39h
  051b  be           cp (hl)
  051c  da 29 05     jp c,0529h
  051f  2a 00 00     ld hl,(0000h)
  0522  23           inc hl
  0523  22 00 00     ld (0000h),hl
  0526  c3 fd 04     jp 04fdh
  0529  21 ec ff     ld hl,ffech
  052c  19           add hl,de
  052d  3a 00 00     ld a,(0000h)
  0530  77           ld (hl),a
  0531  3a 01 00     ld a,(0001h)
  0534  23           inc hl
  0535  77           ld (hl),a
  0536  21 ea ff     ld hl,ffeah
  0539  19           add hl,de
  053a  3a 00 00     ld a,(0000h)
  053d  77           ld (hl),a
  053e  3a 01 00     ld a,(0001h)
  0541  23           inc hl
  0542  77           ld (hl),a
  0543  21 f0 ff     ld hl,fff0h
  0546  19           add hl,de
  0547  7e           ld a,(hl)
  0548  23           inc hl
  0549  66           ld h,(hl)
  054a  6f           ld l,a
  054b  22 00 00     ld (0000h),hl
  054e  21 ee ff     ld hl,ffeeh
  0551  19           add hl,de
  0552  7e           ld a,(hl)
  0553  23           inc hl
  0554  66           ld h,(hl)
  0555  6f           ld l,a
  0556  22 00 00     ld (0000h),hl
  0559  21 f2 ff     ld hl,fff2h
  055c  19           add hl,de
  055d  e5           push hl
  055e  21 ec ff     ld hl,ffech
  0561  19           add hl,de
  0562  7e           ld a,(hl)
  0563  23           inc hl
  0564  66           ld h,(hl)
  0565  6f           ld l,a
  0566  e5           push hl
  0567  21 00 00     ld hl,0000h
  056a  c1           pop bc
  056b  79           ld a,c
  056c  96           sub (hl)
  056d  4f           ld c,a
  056e  78           ld a,b
  056f  23           inc hl
  0570  9e           sbc a,(hl)
  0571  47           ld b,a
  0572  c5           push bc
  0573  21 ea ff     ld hl,ffeah
  0576  19           add hl,de
  0577  7e           ld a,(hl)
  0578  23           inc hl
  0579  66           ld h,(hl)
  057a  6f           ld l,a
  057b  e5           push hl
  057c  21 00 00     ld hl,0000h
  057f  c1           pop bc
  0580  79           ld a,c
  0581  96           sub (hl)
  0582  4f           ld c,a
  0583  78           ld a,b
  0584  23           inc hl
  0585  9e           sbc a,(hl)
  0586  47           ld b,a
  0587  e1           pop hl
  0588  7d           ld a,l
  0589  91           sub c
  058a  6f           ld l,a
  058b  7c           ld a,h
  058c  98           sbc a,b
  058d  67           ld h,a
  058e  c1           pop bc
  058f  7d           ld a,l
  0590  02           ld (bc),a
  0591  7c           ld a,h
  0592  03           inc bc
  0593  02           ld (bc),a
  0594  0b           dec bc
  0595  69           ld l,c
  0596  60           ld h,b
  0597  7e           ld a,(hl)
  0598  23           inc hl
  0599  b6           or (hl)
  059a  ca c3 05     jp z,05c3h
  059d  21 f2 ff     ld hl,fff2h
  05a0  19           add hl,de
  05a1  23           inc hl
  05a2  7e           ld a,(hl)
  05a3  b7           or a
  05a4  f2 b9 05     jp p,05b9h
  05a7  21 f8 ff     ld hl,fff8h
  05aa  19           add hl,de
  05ab  4e           ld c,(hl)
  05ac  23           inc hl
  05ad  46           ld b,(hl)
  05ae  3e 00        ld a,00h
  05b0  91           sub c
  05b1  4f           ld c,a
  05b2  3e 00        ld a,00h
  05b4  98           sbc a,b
  05b5  47           ld b,a
  05b6  c3 c0 05     jp 05c0h
  05b9  21 f8 ff     ld hl,fff8h
  05bc  19           add hl,de
  05bd  4e           ld c,(hl)
  05be  23           inc hl
  05bf  46           ld b,(hl)
  05c0  c3 00 00     jp 0000h
  05c3  21 ec ff     ld hl,ffech
  05c6  19           add hl,de
  05c7  3a 00 00     ld a,(0000h)
  05ca  96           sub (hl)
  05cb  3a 01 00     ld a,(0001h)
  05ce  23           inc hl
  05cf  9e           sbc a,(hl)
  05d0  d2 23 06     jp nc,0623h
  05d3  21 f4 ff     ld hl,fff4h
  05d6  19           add hl,de
  05d7  e5           push hl
  05d8  2a 00 00     ld hl,(0000h)
  05db  7e           ld a,(hl)
  05dc  4f           ld c,a
  05dd  97           sub a
  05de  47           ld b,a
  05df  c5           push bc
  05e0  2a 00 00     ld hl,(0000h)
  05e3  7e           ld a,(hl)
  05e4  4f           ld c,a
  05e5  97           sub a
  05e6  47           ld b,a
  05e7  e1           pop hl
  05e8  7d           ld a,l
  05e9  91           sub c
  05ea  6f           ld l,a
  05eb  7c           ld a,h
  05ec  98           sbc a,b
  05ed  67           ld h,a
  05ee  c1           pop bc
  05ef  7d           ld a,l
  05f0  02           ld (bc),a
  05f1  7c           ld a,h
  05f2  03           inc bc
  05f3  02           ld (bc),a
  05f4  0b           dec bc
  05f5  69           ld l,c
  05f6  60           ld h,b
  05f7  7e           ld a,(hl)
  05f8  23           inc hl
  05f9  b6           or (hl)
  05fa  ca 41 06     jp z,0641h
  05fd  21 f4 ff     ld hl,fff4h
  0600  19           add hl,de
  0601  23           inc hl
  0602  7e           ld a,(hl)
  0603  b7           or a
  0604  f2 19 06     jp p,0619h
  0607  21 f8 ff     ld hl,fff8h
  060a  19           add hl,de
  060b  4e           ld c,(hl)
  060c  23           inc hl
  060d  46           ld b,(hl)
  060e  3e 00        ld a,00h
  0610  91           sub c
  0611  4f           ld c,a
  0612  3e 00        ld a,00h
  0614  98           sbc a,b
  0615  47           ld b,a
  0616  c3 20 06     jp 0620h
  0619  21 f8 ff     ld hl,fff8h
  061c  19           add hl,de
  061d  4e           ld c,(hl)
  061e  23           inc hl
  061f  46           ld b,(hl)
  0620  c3 00 00     jp 0000h
  0623  21 ec ff     ld hl,ffech
  0626  19           add hl,de
  0627  7e           ld a,(hl)
  0628  23           inc hl
  0629  66           ld h,(hl)
  062a  6f           ld l,a
  062b  22 00 00     ld (0000h),hl
  062e  2a 00 00     ld hl,(0000h)
  0631  7e           ld a,(hl)
  0632  fe 2e        cp 2eh
  0634  c2 52 06     jp nz,0652h
  0637  2a 00 00     ld hl,(0000h)
  063a  23           inc hl
  063b  22 00 00     ld (0000h),hl
  063e  c3 52 06     jp 0652h
  0641  2a 00 00     ld hl,(0000h)
  0644  23           inc hl
  0645  22 00 00     ld (0000h),hl
  0648  2a 00 00     ld hl,(0000h)
  064b  23           inc hl
  064c  22 00 00     ld (0000h),hl
  064f  c3 c3 05     jp 05c3h
  0652  21 ea ff     ld hl,ffeah
  0655  19           add hl,de
  0656  7e           ld a,(hl)
  0657  23           inc hl
  0658  66           ld h,(hl)
  0659  6f           ld l,a
  065a  22 00 00     ld (0000h),hl
  065d  2a 00 00     ld hl,(0000h)
  0660  7e           ld a,(hl)
  0661  fe 2e        cp 2eh
  0663  c2 6d 06     jp nz,066dh
  0666  2a 00 00     ld hl,(0000h)
  0669  23           inc hl
  066a  22 00 00     ld (0000h),hl
  066d  21 08 00     ld hl,0008h
  0670  19           add hl,de
  0671  3a 00 00     ld a,(0000h)
  0674  96           sub (hl)
  0675  3a 01 00     ld a,(0001h)
  0678  23           inc hl
  0679  9e           sbc a,(hl)
  067a  d2 13 07     jp nc,0713h
  067d  2a 00 00     ld hl,(0000h)
  0680  7e           ld a,(hl)
  0681  fe 30        cp 30h
  0683  da 13 07     jp c,0713h
  0686  2a 00 00     ld hl,(0000h)
  0689  3e 39        ld a,39h
  068b  be           cp (hl)
  068c  da 13 07     jp c,0713h
  068f  21 0a 00     ld hl,000ah
  0692  19           add hl,de
  0693  3a 00 00     ld a,(0000h)
  0696  96           sub (hl)
  0697  3a 01 00     ld a,(0001h)
  069a  23           inc hl
  069b  9e           sbc a,(hl)
  069c  d2 13 07     jp nc,0713h
  069f  2a 00 00     ld hl,(0000h)
  06a2  7e           ld a,(hl)
  06a3  fe 30        cp 30h
  06a5  da 13 07     jp c,0713h
  06a8  2a 00 00     ld hl,(0000h)
  06ab  3e 39        ld a,39h
  06ad  be           cp (hl)
  06ae  da 13 07     jp c,0713h
  06b1  21 f4 ff     ld hl,fff4h
  06b4  19           add hl,de
  06b5  e5           push hl
  06b6  2a 00 00     ld hl,(0000h)
  06b9  e5           push hl
  06ba  2a 00 00     ld hl,(0000h)
  06bd  23           inc hl
  06be  22 00 00     ld (0000h),hl
  06c1  e1           pop hl
  06c2  7e           ld a,(hl)
  06c3  4f           ld c,a
  06c4  97           sub a
  06c5  47           ld b,a
  06c6  c5           push bc
  06c7  2a 00 00     ld hl,(0000h)
  06ca  e5           push hl
  06cb  2a 00 00     ld hl,(0000h)
  06ce  23           inc hl
  06cf  22 00 00     ld (0000h),hl
  06d2  e1           pop hl
  06d3  7e           ld a,(hl)
  06d4  4f           ld c,a
  06d5  97           sub a
  06d6  47           ld b,a
  06d7  e1           pop hl
  06d8  7d           ld a,l
  06d9  91           sub c
  06da  6f           ld l,a
  06db  7c           ld a,h
  06dc  98           sbc a,b
  06dd  67           ld h,a
  06de  c1           pop bc
  06df  7d           ld a,l
  06e0  02           ld (bc),a
  06e1  7c           ld a,h
  06e2  03           inc bc
  06e3  02           ld (bc),a
  06e4  0b           dec bc
  06e5  69           ld l,c
  06e6  60           ld h,b
  06e7  7e           ld a,(hl)
  06e8  23           inc hl
  06e9  b6           or (hl)
  06ea  ca 6d 06     jp z,066dh
  06ed  21 f4 ff     ld hl,fff4h
  06f0  19           add hl,de
  06f1  23           inc hl
  06f2  7e           ld a,(hl)
  06f3  b7           or a
  06f4  f2 09 07     jp p,0709h
  06f7  21 f8 ff     ld hl,fff8h
  06fa  19           add hl,de
  06fb  4e           ld c,(hl)
  06fc  23           inc hl
  06fd  46           ld b,(hl)
  06fe  3e 00        ld a,00h
  0700  91           sub c
  0701  4f           ld c,a
  0702  3e 00        ld a,00h
  0704  98           sbc a,b
  0705  47           ld b,a
  0706  c3 10 07     jp 0710h
  0709  21 f8 ff     ld hl,fff8h
  070c  19           add hl,de
  070d  4e           ld c,(hl)
  070e  23           inc hl
  070f  46           ld b,(hl)
  0710  c3 00 00     jp 0000h
  0713  21 08 00     ld hl,0008h
  0716  19           add hl,de
  0717  3a 00 00     ld a,(0000h)
  071a  96           sub (hl)
  071b  3a 01 00     ld a,(0001h)
  071e  23           inc hl
  071f  9e           sbc a,(hl)
  0720  d2 54 07     jp nc,0754h
  0723  2a 00 00     ld hl,(0000h)
  0726  7e           ld a,(hl)
  0727  fe 30        cp 30h
  0729  da 54 07     jp c,0754h
  072c  2a 00 00     ld hl,(0000h)
  072f  3e 39        ld a,39h
  0731  be           cp (hl)
  0732  da 54 07     jp c,0754h
  0735  2a 00 00     ld hl,(0000h)
  0738  e5           push hl
  0739  2a 00 00     ld hl,(0000h)
  073c  23           inc hl
  073d  22 00 00     ld (0000h),hl
  0740  e1           pop hl
  0741  7e           ld a,(hl)
  0742  fe 30        cp 30h
  0744  ca 13 07     jp z,0713h
  0747  21 f8 ff     ld hl,fff8h
  074a  19           add hl,de
  074b  7e           ld a,(hl)
  074c  23           inc hl
  074d  66           ld h,(hl)
  074e  6f           ld l,a
  074f  4d           ld c,l
  0750  44           ld b,h
  0751  c3 00 00     jp 0000h
  0754  21 0a 00     ld hl,000ah
  0757  19           add hl,de
  0758  3a 00 00     ld a,(0000h)
  075b  96           sub (hl)
  075c  3a 01 00     ld a,(0001h)
  075f  23           inc hl
  0760  9e           sbc a,(hl)
  0761  d2 9d 07     jp nc,079dh
  0764  2a 00 00     ld hl,(0000h)
  0767  7e           ld a,(hl)
  0768  fe 30        cp 30h
  076a  da 9d 07     jp c,079dh
  076d  2a 00 00     ld hl,(0000h)
  0770  3e 39        ld a,39h
  0772  be           cp (hl)
  0773  da 9d 07     jp c,079dh
  0776  2a 00 00     ld hl,(0000h)
  0779  e5           push hl
  077a  2a 00 00     ld hl,(0000h)
  077d  23           inc hl
  077e  22 00 00     ld (0000h),hl
  0781  e1           pop hl
  0782  7e           ld a,(hl)
  0783  fe 30        cp 30h
  0785  ca 54 07     jp z,0754h
  0788  21 f8 ff     ld hl,fff8h
  078b  19           add hl,de
  078c  7e           ld a,(hl)
  078d  23           inc hl
  078e  66           ld h,(hl)
  078f  6f           ld l,a
  0790  3e 00        ld a,00h
  0792  95           sub l
  0793  6f           ld l,a
  0794  3e 00        ld a,00h
  0796  9c           sbc a,h
  0797  67           ld h,a
  0798  4d           ld c,l
  0799  44           ld b,h
  079a  c3 00 00     jp 0000h
  079d  01 00 00     ld bc,0000h
  07a0  c3 00 00     jp 0000h
  07a3  8f           adc a,a
  07a4  0b           dec bc
  07a5  6c           ld l,h
  07a6  00           nop
  07a7  52           ld d,d
  07a8  0b           dec bc
  07a9  61           ld h,c
  07aa  00           nop
  07ab  25           dec h
  07ac  0b           dec bc
  07ad  64           ld h,h
  07ae  00           nop
  07af  e7           rst 20h
  07b0  0a           ld a,(bc)
  07b1  6e           ld l,(hl)
  07b2  00           nop
  07b3  00           nop
  07b4  00           nop
  07b5  4b           ld c,e
  07b6  0d           dec c
  07b7  50           ld d,b
  07b8  61           ld h,c
  07b9  6e           ld l,(hl)
  07ba  69           ld l,c
  07bb  63           ld h,e
  07bc  3a 20 62     ld a,(6220h)
  07bf  61           ld h,c
  07c0  64           ld h,h
  07c1  20 69        jr nz,082ch
  07c3  6e           ld l,(hl)
  07c4  74           ld (hl),h
  07c5  65           ld h,l
  07c6  72           ld (hl),d
  07c7  6e           ld l,(hl)
  07c8  61           ld h,c
  07c9  6c           ld l,h
  07ca  20 6b        jr nz,0837h
  07cc  65           ld h,l
  07cd  79           ld a,c
  07ce  20 66        jr nz,0836h
  07d0  6f           ld l,a
  07d1  72           ld (hl),d
  07d2  6d           ld l,l
  07d3  61           ld h,c
  07d4  74           ld (hl),h
  07d5  21 00 cd     ld hl,cd00h
  07d8  00           nop
  07d9  00           nop
  07da  21 f4 ff     ld hl,fff4h
  07dd  39           add hl,sp
  07de  f9           ld sp,hl
  07df  2a ba 0f     ld hl,(0fbah)
  07e2  e5           push hl
  07e3  21 0e 00     ld hl,000eh
  07e6  e5           push hl
  07e7  cd 00 00     call 0000h
  07ea  e1           pop hl
  07eb  01 bc 0f     ld bc,0fbch
  07ee  09           add hl,bc
  07ef  22 00 00     ld (0000h),hl
  07f2  21 04 00     ld hl,0004h
  07f5  19           add hl,de
  07f6  7e           ld a,(hl)
  07f7  23           inc hl
  07f8  66           ld h,(hl)
  07f9  6f           ld l,a
  07fa  29           add hl,hl
  07fb  e5           push hl
  07fc  21 08 00     ld hl,0008h
  07ff  19           add hl,de
  0800  7e           ld a,(hl)
  0801  23           inc hl
  0802  66           ld h,(hl)
  0803  6f           ld l,a
  0804  7e           ld a,(hl)
  0805  23           inc hl
  0806  66           ld h,(hl)
  0807  6f           ld l,a
  0808  e3           ex (sp),hl
  0809  c1           pop bc
  080a  09           add hl,bc
  080b  7e           ld a,(hl)
  080c  23           inc hl
  080d  66           ld h,(hl)
  080e  6f           ld l,a
  080f  23           inc hl
  0810  23           inc hl
  0811  22 00 00     ld (0000h),hl
  0814  21 06 00     ld hl,0006h
  0817  19           add hl,de
  0818  7e           ld a,(hl)
  0819  23           inc hl
  081a  66           ld h,(hl)
  081b  6f           ld l,a
  081c  29           add hl,hl
  081d  e5           push hl
  081e  21 08 00     ld hl,0008h
  0821  19           add hl,de
  0822  7e           ld a,(hl)
  0823  23           inc hl
  0824  66           ld h,(hl)
  0825  6f           ld l,a
  0826  7e           ld a,(hl)
  0827  23           inc hl
  0828  66           ld h,(hl)
  0829  6f           ld l,a
  082a  e3           ex (sp),hl
  082b  c1           pop bc
  082c  09           add hl,bc
  082d  7e           ld a,(hl)
  082e  23           inc hl
  082f  66           ld h,(hl)
  0830  6f           ld l,a
  0831  23           inc hl
  0832  23           inc hl
  0833  22 00 00     ld (0000h),hl
  0836  21 f4 ff     ld hl,fff4h
  0839  19           add hl,de
  083a  3a 00 00     ld a,(0000h)
  083d  77           ld (hl),a
  083e  3a 01 00     ld a,(0001h)
  0841  23           inc hl
  0842  77           ld (hl),a
  0843  21 f2 ff     ld hl,fff2h
  0846  19           add hl,de
  0847  3a 00 00     ld a,(0000h)
  084a  77           ld (hl),a
  084b  3a 01 00     ld a,(0001h)
  084e  23           inc hl
  084f  77           ld (hl),a
  0850  21 f6 ff     ld hl,fff6h
  0853  19           add hl,de
  0854  97           sub a
  0855  77           ld (hl),a
  0856  23           inc hl
  0857  77           ld (hl),a
  0858  2a 00 00     ld hl,(0000h)
  085b  01 04 00     ld bc,0004h
  085e  09           add hl,bc
  085f  7e           ld a,(hl)
  0860  b7           or a
  0861  ca 9a 08     jp z,089ah
  0864  21 f6 ff     ld hl,fff6h
  0867  19           add hl,de
  0868  7e           ld a,(hl)
  0869  23           inc hl
  086a  b6           or (hl)
  086b  c2 9a 08     jp nz,089ah
  086e  21 f8 ff     ld hl,fff8h
  0871  19           add hl,de
  0872  e5           push hl
  0873  2a 00 00     ld hl,(0000h)
  0876  c1           pop bc
  0877  7e           ld a,(hl)
  0878  02           ld (bc),a
  0879  23           inc hl
  087a  7e           ld a,(hl)
  087b  03           inc bc
  087c  02           ld (bc),a
  087d  2a 00 00     ld hl,(0000h)
  0880  01 06 00     ld bc,0006h
  0883  09           add hl,bc
  0884  7e           ld a,(hl)
  0885  23           inc hl
  0886  b6           or (hl)
  0887  c2 c2 08     jp nz,08c2h
  088a  2a 00 00     ld hl,(0000h)
  088d  01 08 00     ld bc,0008h
  0890  09           add hl,bc
  0891  7e           ld a,(hl)
  0892  23           inc hl
  0893  b6           or (hl)
  0894  ca 58 09     jp z,0958h
  0897  c3 c2 08     jp 08c2h
  089a  21 f8 ff     ld hl,fff8h
  089d  19           add hl,de
  089e  7e           ld a,(hl)
  089f  23           inc hl
  08a0  b6           or (hl)
  08a1  ca 5b 0d     jp z,0d5bh
  08a4  21 f6 ff     ld hl,fff6h
  08a7  19           add hl,de
  08a8  e5           push hl
  08a9  21 f6 ff     ld hl,fff6h
  08ac  19           add hl,de
  08ad  7e           ld a,(hl)
  08ae  23           inc hl
  08af  66           ld h,(hl)
  08b0  6f           ld l,a
  08b1  3e 00        ld a,00h
  08b3  95           sub l
  08b4  6f           ld l,a
  08b5  3e 00        ld a,00h
  08b7  9c           sbc a,h
  08b8  67           ld h,a
  08b9  c1           pop bc
  08ba  7d           ld a,l
  08bb  02           ld (bc),a
  08bc  7c           ld a,h
  08bd  03           inc bc
  08be  02           ld (bc),a
  08bf  c3 5b 0d     jp 0d5bh
  08c2  21 00 00     ld hl,0000h
  08c5  e5           push hl
  08c6  2a 00 00     ld hl,(0000h)
  08c9  01 08 00     ld bc,0008h
  08cc  09           add hl,bc
  08cd  4e           ld c,(hl)
  08ce  23           inc hl
  08cf  46           ld b,(hl)
  08d0  c5           push bc
  08d1  2a 00 00     ld hl,(0000h)
  08d4  01 06 00     ld bc,0006h
  08d7  09           add hl,bc
  08d8  4e           ld c,(hl)
  08d9  23           inc hl
  08da  46           ld b,(hl)
  08db  c5           push bc
  08dc  2a 00 00     ld hl,(0000h)
  08df  01 05 00     ld bc,0005h
  08e2  09           add hl,bc
  08e3  7e           ld a,(hl)
  08e4  4f           ld c,a
  08e5  97           sub a
  08e6  47           ld b,a
  08e7  c5           push bc
  08e8  21 f4 ff     ld hl,fff4h
  08eb  19           add hl,de
  08ec  4e           ld c,(hl)
  08ed  23           inc hl
  08ee  46           ld b,(hl)
  08ef  c5           push bc
  08f0  cd 00 00     call 0000h
  08f3  21 0a 00     ld hl,000ah
  08f6  39           add hl,sp
  08f7  f9           ld sp,hl
  08f8  69           ld l,c
  08f9  60           ld h,b
  08fa  22 00 00     ld (0000h),hl
  08fd  21 00 00     ld hl,0000h
  0900  e5           push hl
  0901  2a 00 00     ld hl,(0000h)
  0904  01 08 00     ld bc,0008h
  0907  09           add hl,bc
  0908  4e           ld c,(hl)
  0909  23           inc hl
  090a  46           ld b,(hl)
  090b  c5           push bc
  090c  2a 00 00     ld hl,(0000h)
  090f  01 06 00     ld bc,0006h
  0912  09           add hl,bc
  0913  4e           ld c,(hl)
  0914  23           inc hl
  0915  46           ld b,(hl)
  0916  c5           push bc
  0917  2a 00 00     ld hl,(0000h)
  091a  01 05 00     ld bc,0005h
  091d  09           add hl,bc
  091e  7e           ld a,(hl)
  091f  4f           ld c,a
  0920  97           sub a
  0921  47           ld b,a
  0922  c5           push bc
  0923  21 f2 ff     ld hl,fff2h
  0926  19           add hl,de
  0927  4e           ld c,(hl)
  0928  23           inc hl
  0929  46           ld b,(hl)
  092a  c5           push bc
  092b  cd 00 00     call 0000h
  092e  21 0a 00     ld hl,000ah
  0931  39           add hl,sp
  0932  f9           ld sp,hl
  0933  69           ld l,c
  0934  60           ld h,b
  0935  22 00 00     ld (0000h),hl
  0938  2a 00 00     ld hl,(0000h)
  093b  01 0a 00     ld bc,000ah
  093e  09           add hl,bc
  093f  7e           ld a,(hl)
  0940  23           inc hl
  0941  b6           or (hl)
  0942  c2 71 09     jp nz,0971h
  0945  2a 00 00     ld hl,(0000h)
  0948  01 0c 00     ld bc,000ch
  094b  09           add hl,bc
  094c  97           sub a
  094d  96           sub (hl)
  094e  3e 00        ld a,00h
  0950  23           inc hl
  0951  9e           sbc a,(hl)
  0952  f2 15 0a     jp p,0a15h
  0955  c3 71 09     jp 0971h
  0958  21 f4 ff     ld hl,fff4h
  095b  19           add hl,de
  095c  7e           ld a,(hl)
  095d  23           inc hl
  095e  66           ld h,(hl)
  095f  6f           ld l,a
  0960  22 00 00     ld (0000h),hl
  0963  21 f2 ff     ld hl,fff2h
  0966  19           add hl,de
  0967  7e           ld a,(hl)
  0968  23           inc hl
  0969  66           ld h,(hl)
  096a  6f           ld l,a
  096b  22 00 00     ld (0000h),hl
  096e  c3 38 09     jp 0938h
  0971  21 f0 ff     ld hl,fff0h
  0974  19           add hl,de
  0975  e5           push hl
  0976  21 01 00     ld hl,0001h
  0979  e5           push hl
  097a  2a 00 00     ld hl,(0000h)
  097d  01 0c 00     ld bc,000ch
  0980  09           add hl,bc
  0981  4e           ld c,(hl)
  0982  23           inc hl
  0983  46           ld b,(hl)
  0984  c5           push bc
  0985  2a 00 00     ld hl,(0000h)
  0988  01 0a 00     ld bc,000ah
  098b  09           add hl,bc
  098c  4e           ld c,(hl)
  098d  23           inc hl
  098e  46           ld b,(hl)
  098f  c5           push bc
  0990  2a 00 00     ld hl,(0000h)
  0993  01 05 00     ld bc,0005h
  0996  09           add hl,bc
  0997  7e           ld a,(hl)
  0998  4f           ld c,a
  0999  97           sub a
  099a  47           ld b,a
  099b  c5           push bc
  099c  21 f4 ff     ld hl,fff4h
  099f  19           add hl,de
  09a0  4e           ld c,(hl)
  09a1  23           inc hl
  09a2  46           ld b,(hl)
  09a3  c5           push bc
  09a4  cd 00 00     call 0000h
  09a7  21 0a 00     ld hl,000ah
  09aa  39           add hl,sp
  09ab  f9           ld sp,hl
  09ac  e1           pop hl
  09ad  79           ld a,c
  09ae  77           ld (hl),a
  09af  78           ld a,b
  09b0  23           inc hl
  09b1  77           ld (hl),a
  09b2  21 ee ff     ld hl,ffeeh
  09b5  19           add hl,de
  09b6  e5           push hl
  09b7  21 01 00     ld hl,0001h
  09ba  e5           push hl
  09bb  2a 00 00     ld hl,(0000h)
  09be  01 0c 00     ld bc,000ch
  09c1  09           add hl,bc
  09c2  4e           ld c,(hl)
  09c3  23           inc hl
  09c4  46           ld b,(hl)
  09c5  c5           push bc
  09c6  2a 00 00     ld hl,(0000h)
  09c9  01 0a 00     ld bc,000ah
  09cc  09           add hl,bc
  09cd  4e           ld c,(hl)
  09ce  23           inc hl
  09cf  46           ld b,(hl)
  09d0  c5           push bc
  09d1  2a 00 00     ld hl,(0000h)
  09d4  01 05 00     ld bc,0005h
  09d7  09           add hl,bc
  09d8  7e           ld a,(hl)
  09d9  4f           ld c,a
  09da  97           sub a
  09db  47           ld b,a
  09dc  c5           push bc
  09dd  21 f2 ff     ld hl,fff2h
  09e0  19           add hl,de
  09e1  4e           ld c,(hl)
  09e2  23           inc hl
  09e3  46           ld b,(hl)
  09e4  c5           push bc
  09e5  cd 00 00     call 0000h
  09e8  21 0a 00     ld hl,000ah
  09eb  39           add hl,sp
  09ec  f9           ld sp,hl
  09ed  e1           pop hl
  09ee  79           ld a,c
  09ef  77           ld (hl),a
  09f0  78           ld a,b
  09f1  23           inc hl
  09f2  77           ld (hl),a
  09f3  2a 00 00     ld hl,(0000h)
  09f6  01 02 00     ld bc,0002h
  09f9  09           add hl,bc
  09fa  7e           ld a,(hl)
  09fb  23           inc hl
  09fc  b6           or (hl)
  09fd  ca 90 0a     jp z,0a90h
  0a00  2a 00 00     ld hl,(0000h)
  0a03  3e 20        ld a,20h
  0a05  be           cp (hl)
  0a06  d2 a1 0a     jp nc,0aa1h
  0a09  2a 00 00     ld hl,(0000h)
  0a0c  7e           ld a,(hl)
  0a0d  fe 7f        cp 7fh
  0a0f  da bb 0a     jp c,0abbh
  0a12  c3 a1 0a     jp 0aa1h
  0a15  21 f0 ff     ld hl,fff0h
  0a18  19           add hl,de
  0a19  e5           push hl
  0a1a  21 04 00     ld hl,0004h
  0a1d  19           add hl,de
  0a1e  7e           ld a,(hl)
  0a1f  23           inc hl
  0a20  66           ld h,(hl)
  0a21  6f           ld l,a
  0a22  29           add hl,hl
  0a23  e5           push hl
  0a24  21 08 00     ld hl,0008h
  0a27  19           add hl,de
  0a28  7e           ld a,(hl)
  0a29  23           inc hl
  0a2a  66           ld h,(hl)
  0a2b  6f           ld l,a
  0a2c  7e           ld a,(hl)
  0a2d  23           inc hl
  0a2e  66           ld h,(hl)
  0a2f  6f           ld l,a
  0a30  e3           ex (sp),hl
  0a31  c1           pop bc
  0a32  09           add hl,bc
  0a33  7e           ld a,(hl)
  0a34  23           inc hl
  0a35  66           ld h,(hl)
  0a36  6f           ld l,a
  0a37  7e           ld a,(hl)
  0a38  23           inc hl
  0a39  66           ld h,(hl)
  0a3a  6f           ld l,a
  0a3b  e5           push hl
  0a3c  21 f4 ff     ld hl,fff4h
  0a3f  19           add hl,de
  0a40  7e           ld a,(hl)
  0a41  23           inc hl
  0a42  66           ld h,(hl)
  0a43  6f           ld l,a
  0a44  e3           ex (sp),hl
  0a45  c1           pop bc
  0a46  09           add hl,bc
  0a47  01 ff ff     ld bc,ffffh
  0a4a  09           add hl,bc
  0a4b  c1           pop bc
  0a4c  7d           ld a,l
  0a4d  02           ld (bc),a
  0a4e  7c           ld a,h
  0a4f  03           inc bc
  0a50  02           ld (bc),a
  0a51  21 ee ff     ld hl,ffeeh
  0a54  19           add hl,de
  0a55  e5           push hl
  0a56  21 06 00     ld hl,0006h
  0a59  19           add hl,de
  0a5a  7e           ld a,(hl)
  0a5b  23           inc hl
  0a5c  66           ld h,(hl)
  0a5d  6f           ld l,a
  0a5e  29           add hl,hl
  0a5f  e5           push hl
  0a60  21 08 00     ld hl,0008h
  0a63  19           add hl,de
  0a64  7e           ld a,(hl)
  0a65  23           inc hl
  0a66  66           ld h,(hl)
  0a67  6f           ld l,a
  0a68  7e           ld a,(hl)
  0a69  23           inc hl
  0a6a  66           ld h,(hl)
  0a6b  6f           ld l,a
  0a6c  e3           ex (sp),hl
  0a6d  c1           pop bc
  0a6e  09           add hl,bc
  0a6f  7e           ld a,(hl)
  0a70  23           inc hl
  0a71  66           ld h,(hl)
  0a72  6f           ld l,a
  0a73  7e           ld a,(hl)
  0a74  23           inc hl
  0a75  66           ld h,(hl)
  0a76  6f           ld l,a
  0a77  e5           push hl
  0a78  21 f2 ff     ld hl,fff2h
  0a7b  19           add hl,de
  0a7c  7e           ld a,(hl)
  0a7d  23           inc hl
  0a7e  66           ld h,(hl)
  0a7f  6f           ld l,a
  0a80  e3           ex (sp),hl
  0a81  c1           pop bc
  0a82  09           add hl,bc
  0a83  01 ff ff     ld bc,ffffh
  0a86  09           add hl,bc
  0a87  c1           pop bc
  0a88  7d           ld a,l
  0a89  02           ld (bc),a
  0a8a  7c           ld a,h
  0a8b  03           inc bc
  0a8c  02           ld (bc),a
  0a8d  c3 f3 09     jp 09f3h
  0a90  2a 00 00     ld hl,(0000h)
  0a93  01 04 00     ld bc,0004h
  0a96  09           add hl,bc
  0a97  7e           ld a,(hl)
  0a98  4f           ld c,a
  0a99  97           sub a
  0a9a  47           ld b,a
  0a9b  21 a3 07     ld hl,07a3h
  0a9e  c3 00 00     jp 0000h
  0aa1  21 f0 ff     ld hl,fff0h
  0aa4  19           add hl,de
  0aa5  3a 00 00     ld a,(0000h)
  0aa8  96           sub (hl)
  0aa9  3a 01 00     ld a,(0001h)
  0aac  23           inc hl
  0aad  9e           sbc a,(hl)
  0aae  d2 bb 0a     jp nc,0abbh
  0ab1  2a 00 00     ld hl,(0000h)
  0ab4  23           inc hl
  0ab5  22 00 00     ld (0000h),hl
  0ab8  c3 00 0a     jp 0a00h
  0abb  2a 00 00     ld hl,(0000h)
  0abe  3e 20        ld a,20h
  0ac0  be           cp (hl)
  0ac1  d2 cd 0a     jp nc,0acdh
  0ac4  2a 00 00     ld hl,(0000h)
  0ac7  7e           ld a,(hl)
  0ac8  fe 7f        cp 7fh
  0aca  da 90 0a     jp c,0a90h
  0acd  21 ee ff     ld hl,ffeeh
  0ad0  19           add hl,de
  0ad1  3a 00 00     ld a,(0000h)
  0ad4  96           sub (hl)
  0ad5  3a 01 00     ld a,(0001h)
  0ad8  23           inc hl
  0ad9  9e           sbc a,(hl)
  0ada  d2 90 0a     jp nc,0a90h
  0add  2a 00 00     ld hl,(0000h)
  0ae0  23           inc hl
  0ae1  22 00 00     ld (0000h),hl
  0ae4  c3 bb 0a     jp 0abbh
  0ae7  21 f6 ff     ld hl,fff6h
  0aea  19           add hl,de
  0aeb  e5           push hl
  0aec  21 ee ff     ld hl,ffeeh
  0aef  19           add hl,de
  0af0  4e           ld c,(hl)
  0af1  23           inc hl
  0af2  46           ld b,(hl)
  0af3  c5           push bc
  0af4  21 f0 ff     ld hl,fff0h
  0af7  19           add hl,de
  0af8  4e           ld c,(hl)
  0af9  23           inc hl
  0afa  46           ld b,(hl)
  0afb  c5           push bc
  0afc  2a 00 00     ld hl,(0000h)
  0aff  e5           push hl
  0b00  2a 00 00     ld hl,(0000h)
  0b03  e5           push hl
  0b04  cd 6a 03     call 036ah
  0b07  f1           pop af
  0b08  f1           pop af
  0b09  f1           pop af
  0b0a  f1           pop af
  0b0b  e1           pop hl
  0b0c  79           ld a,c
  0b0d  77           ld (hl),a
  0b0e  78           ld a,b
  0b0f  23           inc hl
  0b10  77           ld (hl),a
  0b11  2a 00 00     ld hl,(0000h)
  0b14  7d           ld a,l
  0b15  c6 0e        add a,0eh
  0b17  6f           ld l,a
  0b18  7c           ld a,h
  0b19  ce 00        adc a,00h
  0b1b  67           ld h,a
  0b1c  22 00 00     ld (0000h),hl
  0b1f  c3 58 08     jp 0858h
  0b22  c3 11 0b     jp 0b11h
  0b25  21 f6 ff     ld hl,fff6h
  0b28  19           add hl,de
  0b29  e5           push hl
  0b2a  21 ee ff     ld hl,ffeeh
  0b2d  19           add hl,de
  0b2e  4e           ld c,(hl)
  0b2f  23           inc hl
  0b30  46           ld b,(hl)
  0b31  c5           push bc
  0b32  21 f0 ff     ld hl,fff0h
  0b35  19           add hl,de
  0b36  4e           ld c,(hl)
  0b37  23           inc hl
  0b38  46           ld b,(hl)
  0b39  c5           push bc
  0b3a  2a 00 00     ld hl,(0000h)
  0b3d  e5           push hl
  0b3e  2a 00 00     ld hl,(0000h)
  0b41  e5           push hl
  0b42  cd 36 01     call 0136h
  0b45  f1           pop af
  0b46  f1           pop af
  0b47  f1           pop af
  0b48  f1           pop af
  0b49  e1           pop hl
  0b4a  79           ld a,c
  0b4b  77           ld (hl),a
  0b4c  78           ld a,b
  0b4d  23           inc hl
  0b4e  77           ld (hl),a
  0b4f  c3 11 0b     jp 0b11h
  0b52  21 f0 ff     ld hl,fff0h
  0b55  19           add hl,de
  0b56  3a 00 00     ld a,(0000h)
  0b59  96           sub (hl)
  0b5a  3a 01 00     ld a,(0001h)
  0b5d  23           inc hl
  0b5e  9e           sbc a,(hl)
  0b5f  d2 92 0b     jp nc,0b92h
  0b62  21 ee ff     ld hl,ffeeh
  0b65  19           add hl,de
  0b66  3a 00 00     ld a,(0000h)
  0b69  96           sub (hl)
  0b6a  3a 01 00     ld a,(0001h)
  0b6d  23           inc hl
  0b6e  9e           sbc a,(hl)
  0b6f  d2 92 0b     jp nc,0b92h
  0b72  2a 00 00     ld hl,(0000h)
  0b75  01 04 00     ld bc,0004h
  0b78  09           add hl,bc
  0b79  7e           ld a,(hl)
  0b7a  fe 61        cp 61h
  0b7c  c2 d8 0b     jp nz,0bd8h
  0b7f  2a 00 00     ld hl,(0000h)
  0b82  e5           push hl
  0b83  2a 00 00     ld hl,(0000h)
  0b86  c1           pop bc
  0b87  0a           ld a,(bc)
  0b88  be           cp (hl)
  0b89  ca c7 0b     jp z,0bc7h
  0b8c  c3 92 0b     jp 0b92h
  0b8f  c3 52 0b     jp 0b52h
  0b92  21 f0 ff     ld hl,fff0h
  0b95  19           add hl,de
  0b96  e5           push hl
  0b97  21 00 00     ld hl,0000h
  0b9a  c1           pop bc
  0b9b  0a           ld a,(bc)
  0b9c  be           cp (hl)
  0b9d  c2 a4 0b     jp nz,0ba4h
  0ba0  03           inc bc
  0ba1  0a           ld a,(bc)
  0ba2  23           inc hl
  0ba3  be           cp (hl)
  0ba4  c2 39 0c     jp nz,0c39h
  0ba7  21 ee ff     ld hl,ffeeh
  0baa  19           add hl,de
  0bab  e5           push hl
  0bac  21 00 00     ld hl,0000h
  0baf  c1           pop bc
  0bb0  0a           ld a,(bc)
  0bb1  be           cp (hl)
  0bb2  c2 b9 0b     jp nz,0bb9h
  0bb5  03           inc bc
  0bb6  0a           ld a,(bc)
  0bb7  23           inc hl
  0bb8  be           cp (hl)
  0bb9  c2 39 0c     jp nz,0c39h
  0bbc  21 f6 ff     ld hl,fff6h
  0bbf  19           add hl,de
  0bc0  97           sub a
  0bc1  77           ld (hl),a
  0bc2  23           inc hl
  0bc3  77           ld (hl),a
  0bc4  c3 11 0b     jp 0b11h
  0bc7  2a 00 00     ld hl,(0000h)
  0bca  23           inc hl
  0bcb  22 00 00     ld (0000h),hl
  0bce  2a 00 00     ld hl,(0000h)
  0bd1  23           inc hl
  0bd2  22 00 00     ld (0000h),hl
  0bd5  c3 52 0b     jp 0b52h
  0bd8  2a 00 00     ld hl,(0000h)
  0bdb  7e           ld a,(hl)
  0bdc  fe 41        cp 41h
  0bde  da fa 0b     jp c,0bfah
  0be1  2a 00 00     ld hl,(0000h)
  0be4  3e 5a        ld a,5ah
  0be6  be           cp (hl)
  0be7  da fa 0b     jp c,0bfah
  0bea  2a 00 00     ld hl,(0000h)
  0bed  7e           ld a,(hl)
  0bee  4f           ld c,a
  0bef  97           sub a
  0bf0  47           ld b,a
  0bf1  21 20 00     ld hl,0020h
  0bf4  09           add hl,bc
  0bf5  4d           ld c,l
  0bf6  44           ld b,h
  0bf7  c3 01 0c     jp 0c01h
  0bfa  2a 00 00     ld hl,(0000h)
  0bfd  7e           ld a,(hl)
  0bfe  4f           ld c,a
  0bff  97           sub a
  0c00  47           ld b,a
  0c01  c5           push bc
  0c02  2a 00 00     ld hl,(0000h)
  0c05  7e           ld a,(hl)
  0c06  fe 41        cp 41h
  0c08  da 24 0c     jp c,0c24h
  0c0b  2a 00 00     ld hl,(0000h)
  0c0e  3e 5a        ld a,5ah
  0c10  be           cp (hl)
  0c11  da 24 0c     jp c,0c24h
  0c14  2a 00 00     ld hl,(0000h)
  0c17  7e           ld a,(hl)
  0c18  4f           ld c,a
  0c19  97           sub a
  0c1a  47           ld b,a
  0c1b  21 20 00     ld hl,0020h
  0c1e  09           add hl,bc
  0c1f  4d           ld c,l
  0c20  44           ld b,h
  0c21  c3 2b 0c     jp 0c2bh
  0c24  2a 00 00     ld hl,(0000h)
  0c27  7e           ld a,(hl)
  0c28  4f           ld c,a
  0c29  97           sub a
  0c2a  47           ld b,a
  0c2b  e1           pop hl
  0c2c  7d           ld a,l
  0c2d  b9           cp c
  0c2e  c2 33 0c     jp nz,0c33h
  0c31  7c           ld a,h
  0c32  b8           cp b
  0c33  ca c7 0b     jp z,0bc7h
  0c36  c3 92 0b     jp 0b92h
  0c39  21 f0 ff     ld hl,fff0h
  0c3c  19           add hl,de
  0c3d  e5           push hl
  0c3e  21 00 00     ld hl,0000h
  0c41  c1           pop bc
  0c42  0a           ld a,(bc)
  0c43  be           cp (hl)
  0c44  c2 4b 0c     jp nz,0c4bh
  0c47  03           inc bc
  0c48  0a           ld a,(bc)
  0c49  23           inc hl
  0c4a  be           cp (hl)
  0c4b  c2 6c 0c     jp nz,0c6ch
  0c4e  21 ee ff     ld hl,ffeeh
  0c51  19           add hl,de
  0c52  3a 00 00     ld a,(0000h)
  0c55  96           sub (hl)
  0c56  3a 01 00     ld a,(0001h)
  0c59  23           inc hl
  0c5a  9e           sbc a,(hl)
  0c5b  d2 6c 0c     jp nc,0c6ch
  0c5e  21 f6 ff     ld hl,fff6h
  0c61  19           add hl,de
  0c62  3e ff        ld a,ffh
  0c64  77           ld (hl),a
  0c65  3e ff        ld a,ffh
  0c67  23           inc hl
  0c68  77           ld (hl),a
  0c69  c3 11 0b     jp 0b11h
  0c6c  21 f0 ff     ld hl,fff0h
  0c6f  19           add hl,de
  0c70  3a 00 00     ld a,(0000h)
  0c73  96           sub (hl)
  0c74  3a 01 00     ld a,(0001h)
  0c77  23           inc hl
  0c78  9e           sbc a,(hl)
  0c79  d2 9f 0c     jp nc,0c9fh
  0c7c  21 ee ff     ld hl,ffeeh
  0c7f  19           add hl,de
  0c80  e5           push hl
  0c81  21 00 00     ld hl,0000h
  0c84  c1           pop bc
  0c85  0a           ld a,(bc)
  0c86  be           cp (hl)
  0c87  c2 8e 0c     jp nz,0c8eh
  0c8a  03           inc bc
  0c8b  0a           ld a,(bc)
  0c8c  23           inc hl
  0c8d  be           cp (hl)
  0c8e  c2 9f 0c     jp nz,0c9fh
  0c91  21 f6 ff     ld hl,fff6h
  0c94  19           add hl,de
  0c95  3e 01        ld a,01h
  0c97  77           ld (hl),a
  0c98  87           add a,a
  0c99  9f           sbc a,a
  0c9a  23           inc hl
  0c9b  77           ld (hl),a
  0c9c  c3 11 0b     jp 0b11h
  0c9f  2a 00 00     ld hl,(0000h)
  0ca2  01 04 00     ld bc,0004h
  0ca5  09           add hl,bc
  0ca6  7e           ld a,(hl)
  0ca7  fe 61        cp 61h
  0ca9  c2 c7 0c     jp nz,0cc7h
  0cac  2a 00 00     ld hl,(0000h)
  0caf  e5           push hl
  0cb0  2a 00 00     ld hl,(0000h)
  0cb3  c1           pop bc
  0cb4  0a           ld a,(bc)
  0cb5  be           cp (hl)
  0cb6  d2 c7 0c     jp nc,0cc7h
  0cb9  21 f6 ff     ld hl,fff6h
  0cbc  19           add hl,de
  0cbd  3e ff        ld a,ffh
  0cbf  77           ld (hl),a
  0cc0  3e ff        ld a,ffh
  0cc2  23           inc hl
  0cc3  77           ld (hl),a
  0cc4  c3 11 0b     jp 0b11h
  0cc7  2a 00 00     ld hl,(0000h)
  0cca  01 04 00     ld bc,0004h
  0ccd  09           add hl,bc
  0cce  7e           ld a,(hl)
  0ccf  fe 6c        cp 6ch
  0cd1  c2 3d 0d     jp nz,0d3dh
  0cd4  2a 00 00     ld hl,(0000h)
  0cd7  7e           ld a,(hl)
  0cd8  fe 41        cp 41h
  0cda  da f6 0c     jp c,0cf6h
  0cdd  2a 00 00     ld hl,(0000h)
  0ce0  3e 5a        ld a,5ah
  0ce2  be           cp (hl)
  0ce3  da f6 0c     jp c,0cf6h
  0ce6  2a 00 00     ld hl,(0000h)
  0ce9  7e           ld a,(hl)
  0cea  4f           ld c,a
  0ceb  97           sub a
  0cec  47           ld b,a
  0ced  21 20 00     ld hl,0020h
  0cf0  09           add hl,bc
  0cf1  4d           ld c,l
  0cf2  44           ld b,h
  0cf3  c3 fd 0c     jp 0cfdh
  0cf6  2a 00 00     ld hl,(0000h)
  0cf9  7e           ld a,(hl)
  0cfa  4f           ld c,a
  0cfb  97           sub a
  0cfc  47           ld b,a
  0cfd  c5           push bc
  0cfe  2a 00 00     ld hl,(0000h)
  0d01  7e           ld a,(hl)
  0d02  fe 41        cp 41h
  0d04  da 20 0d     jp c,0d20h
  0d07  2a 00 00     ld hl,(0000h)
  0d0a  3e 5a        ld a,5ah
  0d0c  be           cp (hl)
  0d0d  da 20 0d     jp c,0d20h
  0d10  2a 00 00     ld hl,(0000h)
  0d13  7e           ld a,(hl)
  0d14  4f           ld c,a
  0d15  97           sub a
  0d16  47           ld b,a
  0d17  21 20 00     ld hl,0020h
  0d1a  09           add hl,bc
  0d1b  4d           ld c,l
  0d1c  44           ld b,h
  0d1d  c3 27 0d     jp 0d27h
  0d20  2a 00 00     ld hl,(0000h)
  0d23  7e           ld a,(hl)
  0d24  4f           ld c,a
  0d25  97           sub a
  0d26  47           ld b,a
  0d27  e1           pop hl
  0d28  7d           ld a,l
  0d29  91           sub c
  0d2a  7c           ld a,h
  0d2b  98           sbc a,b
  0d2c  f2 3d 0d     jp p,0d3dh
  0d2f  21 f6 ff     ld hl,fff6h
  0d32  19           add hl,de
  0d33  3e ff        ld a,ffh
  0d35  77           ld (hl),a
  0d36  3e ff        ld a,ffh
  0d38  23           inc hl
  0d39  77           ld (hl),a
  0d3a  c3 11 0b     jp 0b11h
  0d3d  21 f6 ff     ld hl,fff6h
  0d40  19           add hl,de
  0d41  3e 01        ld a,01h
  0d43  77           ld (hl),a
  0d44  87           add a,a
  0d45  9f           sbc a,a
  0d46  23           inc hl
  0d47  77           ld (hl),a
  0d48  c3 11 0b     jp 0b11h
  0d4b  21 00 00     ld hl,0000h
  0d4e  e5           push hl
  0d4f  21 b7 07     ld hl,07b7h
  0d52  e5           push hl
  0d53  cd 00 00     call 0000h
  0d56  f1           pop af
  0d57  f1           pop af
  0d58  c3 11 0b     jp 0b11h
  0d5b  21 f6 ff     ld hl,fff6h
  0d5e  19           add hl,de
  0d5f  7e           ld a,(hl)
  0d60  23           inc hl
  0d61  66           ld h,(hl)
  0d62  6f           ld l,a
  0d63  4d           ld c,l
  0d64  44           ld b,h
  0d65  c3 00 00     jp 0000h
  0d68  bf           cp a
  0d69  0e 74        ld c,74h
  0d6b  00           nop
  0d6c  b2           or d
  0d6d  0e 72        ld c,72h
  0d6f  00           nop
  0d70  a6           and (hl)
  0d71  0e 6e        ld c,6eh
  0d73  00           nop
  0d74  9a           sbc a,d
  0d75  0e 6c        ld c,6ch
  0d77  00           nop
  0d78  8e           adc a,(hl)
  0d79  0e 64        ld c,64h
  0d7b  00           nop
  0d7c  7d           ld a,l
  0d7d  0e 62        ld c,62h
  0d7f  00           nop
  0d80  67           ld h,a
  0d81  0e 61        ld c,61h
  0d83  00           nop
  0d84  00           nop
  0d85  00           nop
  0d86  d7           rst 10h
  0d87  0e cd        ld c,cdh
  0d89  00           nop
  0d8a  00           nop
  0d8b  f5           push af
  0d8c  f5           push af
  0d8d  f5           push af
  0d8e  21 04 00     ld hl,0004h
  0d91  19           add hl,de
  0d92  7e           ld a,(hl)
  0d93  23           inc hl
  0d94  66           ld h,(hl)
  0d95  6f           ld l,a
  0d96  22 00 00     ld (0000h),hl
  0d99  21 06 00     ld hl,0006h
  0d9c  19           add hl,de
  0d9d  7e           ld a,(hl)
  0d9e  23           inc hl
  0d9f  66           ld h,(hl)
  0da0  6f           ld l,a
  0da1  22 00 00     ld (0000h),hl
  0da4  21 f4 ff     ld hl,fff4h
  0da7  19           add hl,de
  0da8  3a 00 00     ld a,(0000h)
  0dab  77           ld (hl),a
  0dac  3a 01 00     ld a,(0001h)
  0daf  23           inc hl
  0db0  77           ld (hl),a
  0db1  21 0e 00     ld hl,000eh
  0db4  e5           push hl
  0db5  21 08 00     ld hl,0008h
  0db8  19           add hl,de
  0db9  4e           ld c,(hl)
  0dba  23           inc hl
  0dbb  46           ld b,(hl)
  0dbc  c5           push bc
  0dbd  2a 00 00     ld hl,(0000h)
  0dc0  e5           push hl
  0dc1  cd 00 00     call 0000h
  0dc4  f1           pop af
  0dc5  f1           pop af
  0dc6  f1           pop af
  0dc7  2a 00 00     ld hl,(0000h)
  0dca  7e           ld a,(hl)
  0dcb  b7           or a
  0dcc  c2 d5 0d     jp nz,0dd5h
  0dcf  01 01 00     ld bc,0001h
  0dd2  c3 00 00     jp 0000h
  0dd5  2a 00 00     ld hl,(0000h)
  0dd8  7e           ld a,(hl)
  0dd9  fe 61        cp 61h
  0ddb  da e7 0d     jp c,0de7h
  0dde  2a 00 00     ld hl,(0000h)
  0de1  3e 7a        ld a,7ah
  0de3  be           cp (hl)
  0de4  d2 f9 0d     jp nc,0df9h
  0de7  2a 00 00     ld hl,(0000h)
  0dea  7e           ld a,(hl)
  0deb  fe 41        cp 41h
  0ded  da 06 0e     jp c,0e06h
  0df0  2a 00 00     ld hl,(0000h)
  0df3  3e 5a        ld a,5ah
  0df5  be           cp (hl)
  0df6  da 06 0e     jp c,0e06h
  0df9  2a 00 00     ld hl,(0000h)
  0dfc  7e           ld a,(hl)
  0dfd  4f           ld c,a
  0dfe  97           sub a
  0dff  47           ld b,a
  0e00  21 68 0d     ld hl,0d68h
  0e03  c3 00 00     jp 0000h
  0e06  21 f8 ff     ld hl,fff8h
  0e09  19           add hl,de
  0e0a  e5           push hl
  0e0b  2a 00 00     ld hl,(0000h)
  0e0e  01 06 00     ld bc,0006h
  0e11  09           add hl,bc
  0e12  c1           pop bc
  0e13  7d           ld a,l
  0e14  02           ld (bc),a
  0e15  7c           ld a,h
  0e16  03           inc bc
  0e17  02           ld (bc),a
  0e18  21 f6 ff     ld hl,fff6h
  0e1b  19           add hl,de
  0e1c  e5           push hl
  0e1d  2a 00 00     ld hl,(0000h)
  0e20  01 08 00     ld bc,0008h
  0e23  09           add hl,bc
  0e24  c1           pop bc
  0e25  7d           ld a,l
  0e26  02           ld (bc),a
  0e27  7c           ld a,h
  0e28  03           inc bc
  0e29  02           ld (bc),a
  0e2a  2a 00 00     ld hl,(0000h)
  0e2d  7e           ld a,(hl)
  0e2e  fe 30        cp 30h
  0e30  da dd 0e     jp c,0eddh
  0e33  2a 00 00     ld hl,(0000h)
  0e36  3e 39        ld a,39h
  0e38  be           cp (hl)
  0e39  da dd 0e     jp c,0eddh
  0e3c  2a 00 00     ld hl,(0000h)
  0e3f  e5           push hl
  0e40  2a 00 00     ld hl,(0000h)
  0e43  23           inc hl
  0e44  22 00 00     ld (0000h),hl
  0e47  e1           pop hl
  0e48  22 00 00     ld (0000h),hl
  0e4b  2a 00 00     ld hl,(0000h)
  0e4e  7e           ld a,(hl)
  0e4f  fe 30        cp 30h
  0e51  da 0f 0f     jp c,0f0fh
  0e54  2a 00 00     ld hl,(0000h)
  0e57  3e 39        ld a,39h
  0e59  be           cp (hl)
  0e5a  da 0f 0f     jp c,0f0fh
  0e5d  2a 00 00     ld hl,(0000h)
  0e60  23           inc hl
  0e61  22 00 00     ld (0000h),hl
  0e64  c3 4b 0e     jp 0e4bh
  0e67  2a 00 00     ld hl,(0000h)
  0e6a  01 04 00     ld bc,0004h
  0e6d  09           add hl,bc
  0e6e  36 61        ld (hl),61h
  0e70  2a 00 00     ld hl,(0000h)
  0e73  23           inc hl
  0e74  22 00 00     ld (0000h),hl
  0e77  c3 d5 0d     jp 0dd5h
  0e7a  c3 70 0e     jp 0e70h
  0e7d  2a 00 00     ld hl,(0000h)
  0e80  01 02 00     ld bc,0002h
  0e83  09           add hl,bc
  0e84  3e 01        ld a,01h
  0e86  77           ld (hl),a
  0e87  87           add a,a
  0e88  9f           sbc a,a
  0e89  23           inc hl
  0e8a  77           ld (hl),a
  0e8b  c3 70 0e     jp 0e70h
  0e8e  2a 00 00     ld hl,(0000h)
  0e91  01 04 00     ld bc,0004h
  0e94  09           add hl,bc
  0e95  36 64        ld (hl),64h
  0e97  c3 70 0e     jp 0e70h
  0e9a  2a 00 00     ld hl,(0000h)
  0e9d  01 04 00     ld bc,0004h
  0ea0  09           add hl,bc
  0ea1  36 6c        ld (hl),6ch
  0ea3  c3 70 0e     jp 0e70h
  0ea6  2a 00 00     ld hl,(0000h)
  0ea9  01 04 00     ld bc,0004h
  0eac  09           add hl,bc
  0ead  36 6e        ld (hl),6eh
  0eaf  c3 70 0e     jp 0e70h
  0eb2  2a 00 00     ld hl,(0000h)
  0eb5  3e 01        ld a,01h
  0eb7  77           ld (hl),a
  0eb8  87           add a,a
  0eb9  9f           sbc a,a
  0eba  23           inc hl
  0ebb  77           ld (hl),a
  0ebc  c3 70 0e     jp 0e70h
  0ebf  2a 00 00     ld hl,(0000h)
  0ec2  01 05 00     ld bc,0005h
  0ec5  09           add hl,bc
  0ec6  e5           push hl
  0ec7  2a 00 00     ld hl,(0000h)
  0eca  23           inc hl
  0ecb  22 00 00     ld (0000h),hl
  0ece  2a 00 00     ld hl,(0000h)
  0ed1  c1           pop bc
  0ed2  7e           ld a,(hl)
  0ed3  02           ld (bc),a
  0ed4  c3 70 0e     jp 0e70h
  0ed7  01 00 00     ld bc,0000h
  0eda  c3 00 00     jp 0000h
  0edd  2a 00 00     ld hl,(0000h)
  0ee0  7e           ld a,(hl)
  0ee1  fe 2e        cp 2eh
  0ee3  c2 39 0f     jp nz,0f39h
  0ee6  2a 00 00     ld hl,(0000h)
  0ee9  23           inc hl
  0eea  22 00 00     ld (0000h),hl
  0eed  2a 00 00     ld hl,(0000h)
  0ef0  22 00 00     ld (0000h),hl
  0ef3  2a 00 00     ld hl,(0000h)
  0ef6  7e           ld a,(hl)
  0ef7  fe 30        cp 30h
  0ef9  da 48 0f     jp c,0f48h
  0efc  2a 00 00     ld hl,(0000h)
  0eff  3e 39        ld a,39h
  0f01  be           cp (hl)
  0f02  da 48 0f     jp c,0f48h
  0f05  2a 00 00     ld hl,(0000h)
  0f08  23           inc hl
  0f09  22 00 00     ld (0000h),hl
  0f0c  c3 f3 0e     jp 0ef3h
  0f0f  21 0a 00     ld hl,000ah
  0f12  e5           push hl
  0f13  21 f8 ff     ld hl,fff8h
  0f16  19           add hl,de
  0f17  4e           ld c,(hl)
  0f18  23           inc hl
  0f19  46           ld b,(hl)
  0f1a  c5           push bc
  0f1b  2a 00 00     ld hl,(0000h)
  0f1e  e5           push hl
  0f1f  21 00 00     ld hl,0000h
  0f22  c1           pop bc
  0f23  79           ld a,c
  0f24  96           sub (hl)
  0f25  4f           ld c,a
  0f26  78           ld a,b
  0f27  23           inc hl
  0f28  9e           sbc a,(hl)
  0f29  47           ld b,a
  0f2a  c5           push bc
  0f2b  2a 00 00     ld hl,(0000h)
  0f2e  e5           push hl
  0f2f  cd 00 00     call 0000h
  0f32  f1           pop af
  0f33  f1           pop af
  0f34  f1           pop af
  0f35  f1           pop af
  0f36  c3 dd 0e     jp 0eddh
  0f39  2a 00 00     ld hl,(0000h)
  0f3c  7e           ld a,(hl)
  0f3d  fe 2d        cp 2dh
  0f3f  ca 72 0f     jp z,0f72h
  0f42  01 01 00     ld bc,0001h
  0f45  c3 00 00     jp 0000h
  0f48  21 0a 00     ld hl,000ah
  0f4b  e5           push hl
  0f4c  21 f6 ff     ld hl,fff6h
  0f4f  19           add hl,de
  0f50  4e           ld c,(hl)
  0f51  23           inc hl
  0f52  46           ld b,(hl)
  0f53  c5           push bc
  0f54  2a 00 00     ld hl,(0000h)
  0f57  e5           push hl
  0f58  21 00 00     ld hl,0000h
  0f5b  c1           pop bc
  0f5c  79           ld a,c
  0f5d  96           sub (hl)
  0f5e  4f           ld c,a
  0f5f  78           ld a,b
  0f60  23           inc hl
  0f61  9e           sbc a,(hl)
  0f62  47           ld b,a
  0f63  c5           push bc
  0f64  2a 00 00     ld hl,(0000h)
  0f67  e5           push hl
  0f68  cd 00 00     call 0000h
  0f6b  f1           pop af
  0f6c  f1           pop af
  0f6d  f1           pop af
  0f6e  f1           pop af
  0f6f  c3 39 0f     jp 0f39h
  0f72  2a 00 00     ld hl,(0000h)
  0f75  01 0a 00     ld bc,000ah
  0f78  09           add hl,bc
  0f79  e5           push hl
  0f7a  2a 00 00     ld hl,(0000h)
  0f7d  01 0c 00     ld bc,000ch
  0f80  09           add hl,bc
  0f81  97           sub a
  0f82  77           ld (hl),a
  0f83  23           inc hl
  0f84  77           ld (hl),a
  0f85  c1           pop bc
  0f86  7e           ld a,(hl)
  0f87  02           ld (bc),a
  0f88  23           inc hl
  0f89  7e           ld a,(hl)
  0f8a  03           inc bc
  0f8b  02           ld (bc),a
  0f8c  21 f8 ff     ld hl,fff8h
  0f8f  19           add hl,de
  0f90  e5           push hl
  0f91  2a 00 00     ld hl,(0000h)
  0f94  01 0a 00     ld bc,000ah
  0f97  09           add hl,bc
  0f98  c1           pop bc
  0f99  7d           ld a,l
  0f9a  02           ld (bc),a
  0f9b  7c           ld a,h
  0f9c  03           inc bc
  0f9d  02           ld (bc),a
  0f9e  21 f6 ff     ld hl,fff6h
  0fa1  19           add hl,de
  0fa2  e5           push hl
  0fa3  2a 00 00     ld hl,(0000h)
  0fa6  01 0c 00     ld bc,000ch
  0fa9  09           add hl,bc
  0faa  c1           pop bc
  0fab  7d           ld a,l
  0fac  02           ld (bc),a
  0fad  7c           ld a,h
  0fae  03           inc bc
  0faf  02           ld (bc),a
  0fb0  2a 00 00     ld hl,(0000h)
  0fb3  23           inc hl
  0fb4  22 00 00     ld (0000h),hl
  0fb7  c3 2a 0e     jp 0e2ah

Data segment: 312 bytes
  0000: 0b 00 00 00 00 00 00 00  00 00 00 00 00 00 00 00  |................|
  0010: 00 00 00 00 00 00 00 00  00 00 00 00 00 00 00 00  |................|
  0020: 00 00 00 00 00 00 00 00  00 00 00 00 00 00 00 00  |................|
  0030: 00 00 00 00 00 00 00 00  00 00 00 00 00 00 00 00  |................|
  0040: 00 00 00 00 00 00 00 00  00 00 00 00 00 00 00 00  |................|
  0050: 00 00 00 00 00 00 00 00  00 00 00 00 00 00 00 00  |................|
  0060: 00 00 00 00 00 00 00 00  00 00 00 00 00 00 00 00  |................|
  0070: 00 00 00 00 00 00 00 00  00 00 00 00 00 00 00 00  |................|
  0080: 00 00 00 00 00 00 00 00  00 00 00 00 00 00 00 00  |................|
  0090: 00 00 00 00 00 00 00 00  00 00 00 00 00 00 00 00  |................|
  00a0: 00 00 00 00 00 00 00 00  00 00 01 01 01 01 01 01  |................|
  00b0: 01 01 01 00 00 01 01 01  01 01 01 01 01 01 01 01  |................|
  00c0: 01 01 01 01 01 01 01 01  01 01 00 01 01 01 01 01  |................|
  00d0: 01 01 01 01 01 01 01 01  01 01 00 00 00 00 00 00  |................|
  00e0: 00 00 00 00 01 01 01 01  01 01 01 00 00 00 00 00  |................|
  00f0: 00 00 00 00 00 00 00 00  00 00 00 00 00 00 00 00  |................|
  0100: 00 00 00 00 00 01 01 01  01 01 01 00 00 00 00 00  |................|
  0110: 00 00 00 00 00 00 00 00  00 00 00 00 00 00 00 00  |................|
  0120: 00 00 00 00 00 01 01 01  01 01 00 00 00 00 61 00  |..............a.|
  0130: 00 00 00 00 00 00 ff ff                           |........|

Symbol table: 13 symbols (9-char names)
  Index  Value  Type Seg    Global  Name
  -----  -----  ---- -----  ------  ----
  [  0]  0000   08   ext    yes      c.r4
  [  1]  0000   08   ext    yes      c.r3
  [  2]  0000   08   ext    yes      c.r2
  [  3]  0000   08   ext    yes      _cpybuf
  [  4]  0000   08   ext    yes      c.switch
  [  5]  0000   08   ext    yes      c.ret
  [  6]  0000   08   ext    yes      c.ent
  [  7]  0000   08   ext    yes      _btos
  [  8]  0000   08   ext    yes      c.rets
  [  9]  0000   08   ext    yes      c.ents
  [ 10]  0000   08   ext    yes      _error
  [ 11]  0000   08   ext    yes      c.imul
  [ 12]  0283   0d   text   yes      _mkord

Text relocations:
  Offset  Type        Target
  ------  ----        ------
  0001    word        symbol[9]
  000d    word        symbol[0]
  0018    word        symbol[2]
  001f    word        symbol[0]
  0023    word        symbol[0]
  0028    word        symbol[2]
  002e    word        text segment
  0031    word        symbol[0]
  0037    word        text segment
  0041    word        text segment
  0044    word        symbol[0]
  0051    word        text segment
  0057    word        text segment
  005a    word        symbol[2]
  005f    word        symbol[2]
  0062    word        symbol[2]
  0067    word        symbol[2]
  006a    word        text segment
  006d    word        symbol[0]
  0073    word        text segment
  0076    word        symbol[0]
  007a    word        symbol[0]
  007d    word        text segment
  0080    word        symbol[0]
  0086    word        text segment
  0089    word        symbol[0]
  008f    word        text segment
  0092    word        symbol[0]
  0096    word        symbol[0]
  0099    word        text segment
  009c    word        symbol[2]
  00a1    word        symbol[2]
  00a4    word        symbol[2]
  00a9    word        symbol[2]
  00ac    word        symbol[0]
  00b2    word        text segment
  00b5    word        symbol[0]
  00ba    word        symbol[0]
  00bd    word        symbol[0]
  00c2    word        symbol[0]
  00c5    word        symbol[0]
  00c9    word        symbol[0]
  00cc    word        text segment
  00d6    word        text segment
  00d9    word        symbol[0]
  00df    word        text segment
  00e2    word        symbol[0]
  00e6    word        symbol[0]
  00f6    word        text segment
  0100    word        text segment
  0103    word        symbol[0]
  0109    word        text segment
  0110    word        symbol[0]
  0114    word        text segment
  0117    word        symbol[0]
  011c    word        text segment
  011f    word        symbol[0]
  0124    word        symbol[0]
  0127    word        symbol[0]
  012c    word        symbol[0]
  012f    word        symbol[0]
  0134    word        symbol[8]
  0137    word        symbol[9]
  0142    word        symbol[0]
  014d    word        symbol[2]
  0154    word        symbol[0]
  0158    word        symbol[0]
  015d    word        text segment
  0160    word        symbol[0]
  016a    word        text segment
  016d    word        symbol[0]
  0174    word        data segment
  017a    word        text segment
  017d    word        text segment
  0180    word        symbol[0]
  0184    word        symbol[0]
  0187    word        symbol[2]
  018b    word        symbol[2]
  018e    word        text segment
  0191    word        symbol[0]
  0195    word        symbol[0]
  0198    word        text segment
  019f    word        symbol[2]
  01a3    word        symbol[2]
  01a8    word        text segment
  01ab    word        symbol[2]
  01b5    word        text segment
  01b8    word        symbol[2]
  01bf    word        data segment
  01c5    word        text segment
  01cd    word        symbol[0]
  01d3    word        text segment
  01da    word        text segment
  01e2    word        symbol[2]
  01e8    word        text segment
  01ef    word        text segment
  01f5    word        symbol[8]
  01f8    word        symbol[2]
  01fc    word        symbol[2]
  01ff    word        text segment
  0207    word        symbol[0]
  020d    word        text segment
  0214    word        text segment
  021b    word        symbol[2]
  021f    word        symbol[2]
  0224    word        text segment
  022a    word        symbol[8]
  0231    word        symbol[0]
  0235    word        symbol[0]
  023a    word        text segment
  0242    word        symbol[2]
  0248    word        text segment
  024f    word        text segment
  0255    word        symbol[8]
  0258    word        symbol[0]
  0262    word        symbol[2]
  0270    word        symbol[1]
  0273    word        symbol[1]
  0279    word        text segment
  027c    word        symbol[1]
  0281    word        symbol[8]
  0284    word        symbol[6]
  028e    word        text segment
  0291    word        data segment
  029d    word        data segment
  02a1    word        text segment
  02b2    word        text segment
  02b5    word        data segment
  02bb    word        text segment
  02be    word        data segment
  02ce    word        data segment
  02d3    word        data segment
  02d6    word        data segment
  02db    word        data segment
  02de    word        data segment
  02e6    word        symbol[11]
  02ea    word        data segment
  02ef    word        text segment
  02f7    word        text segment
  02fd    word        symbol[5]
  030b    word        text segment
  0311    word        symbol[5]
  0321    word        text segment
  0324    word        data segment
  0329    word        text segment
  032c    word        data segment
  0331    word        text segment
  0338    word        data segment
  033c    word        data segment
  0341    word        data segment
  0344    word        data segment
  0349    word        data segment
  034c    word        data segment
  0354    word        symbol[11]
  0358    word        data segment
  035d    word        symbol[3]
  0363    word        text segment
  0368    word        symbol[5]
  036b    word        symbol[9]
  037b    word        symbol[0]
  0386    word        symbol[2]
  0389    word        symbol[0]
  038f    word        text segment
  0392    word        symbol[0]
  0398    word        text segment
  039f    word        symbol[0]
  03a3    word        symbol[0]
  03a8    word        text segment
  03ab    word        symbol[0]
  03af    word        symbol[0]
  03b2    word        text segment
  03b5    word        symbol[2]
  03bb    word        text segment
  03be    word        symbol[2]
  03c4    word        text segment
  03cb    word        symbol[2]
  03cf    word        symbol[2]
  03d4    word        text segment
  03d7    word        symbol[2]
  03db    word        symbol[2]
  03de    word        text segment
  03f9    word        symbol[0]
  03ff    word        text segment
  0402    word        symbol[0]
  0406    word        symbol[0]
  0424    word        symbol[2]
  042a    word        text segment
  042d    word        symbol[2]
  0431    word        symbol[2]
  045b    word        text segment
  0462    word        text segment
  046f    word        symbol[8]
  0472    word        symbol[0]
  0478    word        text segment
  047f    word        symbol[0]
  0483    word        symbol[0]
  0488    word        text segment
  048b    word        symbol[0]
  048f    word        symbol[0]
  0492    word        text segment
  0495    word        symbol[2]
  049b    word        text segment
  04a2    word        symbol[2]
  04a6    word        symbol[2]
  04ab    word        text segment
  04ae    word        symbol[2]
  04b2    word        symbol[2]
  04b5    word        text segment
  04bc    word        symbol[0]
  04c0    word        symbol[0]
  04c9    word        symbol[0]
  04cd    word        symbol[0]
  04d2    word        text segment
  04d5    word        symbol[0]
  04db    word        text segment
  04de    word        symbol[0]
  04e4    word        text segment
  04e7    word        symbol[0]
  04eb    word        symbol[0]
  04ee    word        text segment
  04f5    word        symbol[2]
  04f9    word        symbol[2]
  0502    word        symbol[2]
  0506    word        symbol[2]
  050b    word        text segment
  050e    word        symbol[2]
  0514    word        text segment
  0517    word        symbol[2]
  051d    word        text segment
  0520    word        symbol[2]
  0524    word        symbol[2]
  0527    word        text segment
  052e    word        symbol[0]
  0532    word        symbol[0]
  053b    word        symbol[2]
  053f    word        symbol[2]
  054c    word        symbol[0]
  0557    word        symbol[2]
  0568    word        symbol[0]
  057d    word        symbol[2]
  059b    word        text segment
  05a5    word        text segment
  05b7    word        text segment
  05c1    word        symbol[8]
  05c8    word        symbol[0]
  05cc    word        symbol[0]
  05d1    word        text segment
  05d9    word        symbol[0]
  05e1    word        symbol[2]
  05fb    word        text segment
  0605    word        text segment
  0617    word        text segment
  0621    word        symbol[8]
  062c    word        symbol[0]
  062f    word        symbol[0]
  0635    word        text segment
  0638    word        symbol[0]
  063c    word        symbol[0]
  063f    word        text segment
  0642    word        symbol[0]
  0646    word        symbol[0]
  0649    word        symbol[2]
  064d    word        symbol[2]
  0650    word        text segment
  065b    word        symbol[2]
  065e    word        symbol[2]
  0664    word        text segment
  0667    word        symbol[2]
  066b    word        symbol[2]
  0672    word        symbol[0]
  0676    word        symbol[0]
  067b    word        text segment
  067e    word        symbol[0]
  0684    word        text segment
  0687    word        symbol[0]
  068d    word        text segment
  0694    word        symbol[2]
  0698    word        symbol[2]
  069d    word        text segment
  06a0    word        symbol[2]
  06a6    word        text segment
  06a9    word        symbol[2]
  06af    word        text segment
  06b7    word        symbol[0]
  06bb    word        symbol[0]
  06bf    word        symbol[0]
  06c8    word        symbol[2]
  06cc    word        symbol[2]
  06d0    word        symbol[2]
  06eb    word        text segment
  06f5    word        text segment
  0707    word        text segment
  0711    word        symbol[8]
  0718    word        symbol[0]
  071c    word        symbol[0]
  0721    word        text segment
  0724    word        symbol[0]
  072a    word        text segment
  072d    word        symbol[0]
  0733    word        text segment
  0736    word        symbol[0]
  073a    word        symbol[0]
  073e    word        symbol[0]
  0745    word        text segment
  0752    word        symbol[8]
  0759    word        symbol[2]
  075d    word        symbol[2]
  0762    word        text segment
  0765    word        symbol[2]
  076b    word        text segment
  076e    word        symbol[2]
  0774    word        text segment
  0777    word        symbol[2]
  077b    word        symbol[2]
  077f    word        symbol[2]
  0786    word        text segment
  079b    word        symbol[8]
  07a1    word        symbol[8]
  07a3    word        text segment
  07a7    word        text segment
  07ab    word        text segment
  07af    word        text segment
  07b5    word        text segment
  07d8    word        symbol[9]
  07e0    word        data segment
  07e8    word        symbol[11]
  07ec    word        data segment
  07f0    word        symbol[0]
  0812    word        symbol[2]
  0834    word        symbol[1]
  083b    word        symbol[2]
  083f    word        symbol[2]
  0848    word        symbol[1]
  084c    word        symbol[1]
  0859    word        symbol[0]
  0862    word        text segment
  086c    word        text segment
  0874    word        symbol[0]
  087e    word        symbol[0]
  0888    word        text segment
  088b    word        symbol[0]
  0895    word        text segment
  0898    word        text segment
  08a2    word        text segment
  08c0    word        text segment
  08c7    word        symbol[0]
  08d2    word        symbol[0]
  08dd    word        symbol[0]
  08f1    word        text segment
  08fb    word        symbol[2]
  0902    word        symbol[0]
  090d    word        symbol[0]
  0918    word        symbol[0]
  092c    word        text segment
  0936    word        symbol[1]
  0939    word        symbol[0]
  0943    word        text segment
  0946    word        symbol[0]
  0953    word        text segment
  0956    word        text segment
  0961    word        symbol[2]
  096c    word        symbol[1]
  096f    word        text segment
  097b    word        symbol[0]
  0986    word        symbol[0]
  0991    word        symbol[0]
  09a5    word        text segment
  09bc    word        symbol[0]
  09c7    word        symbol[0]
  09d2    word        symbol[0]
  09e6    word        text segment
  09f4    word        symbol[0]
  09fe    word        text segment
  0a01    word        symbol[2]
  0a07    word        text segment
  0a0a    word        symbol[2]
  0a10    word        text segment
  0a13    word        text segment
  0a8e    word        text segment
  0a91    word        symbol[0]
  0a9c    word        text segment
  0a9f    word        symbol[4]
  0aa6    word        symbol[2]
  0aaa    word        symbol[2]
  0aaf    word        text segment
  0ab2    word        symbol[2]
  0ab6    word        symbol[2]
  0ab9    word        text segment
  0abc    word        symbol[1]
  0ac2    word        text segment
  0ac5    word        symbol[1]
  0acb    word        text segment
  0ad2    word        symbol[1]
  0ad6    word        symbol[1]
  0adb    word        text segment
  0ade    word        symbol[1]
  0ae2    word        symbol[1]
  0ae5    word        text segment
  0afd    word        symbol[1]
  0b01    word        symbol[2]
  0b05    word        text segment
  0b12    word        symbol[0]
  0b1d    word        symbol[0]
  0b20    word        text segment
  0b23    word        text segment
  0b3b    word        symbol[1]
  0b3f    word        symbol[2]
  0b43    word        text segment
  0b50    word        text segment
  0b57    word        symbol[2]
  0b5b    word        symbol[2]
  0b60    word        text segment
  0b67    word        symbol[1]
  0b6b    word        symbol[1]
  0b70    word        text segment
  0b73    word        symbol[0]
  0b7d    word        text segment
  0b80    word        symbol[2]
  0b84    word        symbol[1]
  0b8a    word        text segment
  0b8d    word        text segment
  0b90    word        text segment
  0b98    word        symbol[2]
  0b9e    word        text segment
  0ba5    word        text segment
  0bad    word        symbol[1]
  0bb3    word        text segment
  0bba    word        text segment
  0bc5    word        text segment
  0bc8    word        symbol[2]
  0bcc    word        symbol[2]
  0bcf    word        symbol[1]
  0bd3    word        symbol[1]
  0bd6    word        text segment
  0bd9    word        symbol[2]
  0bdf    word        text segment
  0be2    word        symbol[2]
  0be8    word        text segment
  0beb    word        symbol[2]
  0bf8    word        text segment
  0bfb    word        symbol[2]
  0c03    word        symbol[1]
  0c09    word        text segment
  0c0c    word        symbol[1]
  0c12    word        text segment
  0c15    word        symbol[1]
  0c22    word        text segment
  0c25    word        symbol[1]
  0c2f    word        text segment
  0c34    word        text segment
  0c37    word        text segment
  0c3f    word        symbol[2]
  0c45    word        text segment
  0c4c    word        text segment
  0c53    word        symbol[1]
  0c57    word        symbol[1]
  0c5c    word        text segment
  0c6a    word        text segment
  0c71    word        symbol[2]
  0c75    word        symbol[2]
  0c7a    word        text segment
  0c82    word        symbol[1]
  0c88    word        text segment
  0c8f    word        text segment
  0c9d    word        text segment
  0ca0    word        symbol[0]
  0caa    word        text segment
  0cad    word        symbol[2]
  0cb1    word        symbol[1]
  0cb7    word        text segment
  0cc5    word        text segment
  0cc8    word        symbol[0]
  0cd2    word        text segment
  0cd5    word        symbol[2]
  0cdb    word        text segment
  0cde    word        symbol[2]
  0ce4    word        text segment
  0ce7    word        symbol[2]
  0cf4    word        text segment
  0cf7    word        symbol[2]
  0cff    word        symbol[1]
  0d05    word        text segment
  0d08    word        symbol[1]
  0d0e    word        text segment
  0d11    word        symbol[1]
  0d1e    word        text segment
  0d21    word        symbol[1]
  0d2d    word        text segment
  0d3b    word        text segment
  0d49    word        text segment
  0d50    word        text segment
  0d54    word        symbol[10]
  0d59    word        text segment
  0d66    word        symbol[8]
  0d68    word        text segment
  0d6c    word        text segment
  0d70    word        text segment
  0d74    word        text segment
  0d78    word        text segment
  0d7c    word        text segment
  0d80    word        text segment
  0d86    word        text segment
  0d89    word        symbol[9]
  0d97    word        symbol[0]
  0da2    word        symbol[2]
  0da9    word        symbol[2]
  0dad    word        symbol[2]
  0dbe    word        symbol[0]
  0dc2    word        symbol[3]
  0dc8    word        symbol[2]
  0dcd    word        text segment
  0dd3    word        symbol[8]
  0dd6    word        symbol[2]
  0ddc    word        text segment
  0ddf    word        symbol[2]
  0de5    word        text segment
  0de8    word        symbol[2]
  0dee    word        text segment
  0df1    word        symbol[2]
  0df7    word        text segment
  0dfa    word        symbol[2]
  0e01    word        text segment
  0e04    word        symbol[4]
  0e0c    word        symbol[0]
  0e1e    word        symbol[0]
  0e2b    word        symbol[2]
  0e31    word        text segment
  0e34    word        symbol[2]
  0e3a    word        text segment
  0e3d    word        symbol[2]
  0e41    word        symbol[2]
  0e45    word        symbol[2]
  0e49    word        symbol[1]
  0e4c    word        symbol[2]
  0e52    word        text segment
  0e55    word        symbol[2]
  0e5b    word        text segment
  0e5e    word        symbol[2]
  0e62    word        symbol[2]
  0e65    word        text segment
  0e68    word        symbol[0]
  0e71    word        symbol[2]
  0e75    word        symbol[2]
  0e78    word        text segment
  0e7b    word        text segment
  0e7e    word        symbol[0]
  0e8c    word        text segment
  0e8f    word        symbol[0]
  0e98    word        text segment
  0e9b    word        symbol[0]
  0ea4    word        text segment
  0ea7    word        symbol[0]
  0eb0    word        text segment
  0eb3    word        symbol[0]
  0ebd    word        text segment
  0ec0    word        symbol[0]
  0ec8    word        symbol[2]
  0ecc    word        symbol[2]
  0ecf    word        symbol[2]
  0ed5    word        text segment
  0edb    word        symbol[8]
  0ede    word        symbol[2]
  0ee4    word        text segment
  0ee7    word        symbol[2]
  0eeb    word        symbol[2]
  0eee    word        symbol[2]
  0ef1    word        symbol[1]
  0ef4    word        symbol[2]
  0efa    word        text segment
  0efd    word        symbol[2]
  0f03    word        text segment
  0f06    word        symbol[2]
  0f0a    word        symbol[2]
  0f0d    word        text segment
  0f1c    word        symbol[2]
  0f20    word        symbol[1]
  0f2c    word        symbol[1]
  0f30    word        symbol[7]
  0f37    word        text segment
  0f3a    word        symbol[2]
  0f40    word        text segment
  0f46    word        symbol[8]
  0f55    word        symbol[2]
  0f59    word        symbol[1]
  0f65    word        symbol[1]
  0f69    word        symbol[7]
  0f70    word        text segment
  0f73    word        symbol[0]
  0f7b    word        symbol[0]
  0f92    word        symbol[0]
  0fa4    word        symbol[0]
  0fb1    word        symbol[2]
  0fb5    word        symbol[2]
  0fb8    word        text segment

Data relocations:
  Offset  Type        Target
  ------  ----        ------
  (none)

