=== lib/libwsc/pat.o ===

Header:
  Magic:       0x99
  Config:      0x14 little-endian
  Symlen:      9 chars
  Symtab:      96 bytes (8 symbols)
  Text:        1516 bytes
  Data:        0 bytes
  BSS:         0 bytes
  Heap:        0 bytes
  Text offset: 0x0000
  Data offset: 0x05ec

Disassembly: 1516 bytes
  0000  3e 01        ld a,01h
  0002  2d           dec l
  0003  00           nop
  0004  ff           rst 38h
  0005  00           nop
  0006  5c           ld e,h
  0007  00           nop
  0008  00           nop
  0009  00           nop
  000a  c3 01 00     jp 0001h
  000d  00           nop
  000e  cd 00 00     call 0000h
  0011  f5           push af
  0012  f5           push af
  0013  f5           push af
  0014  21 04 00     ld hl,0004h
  0017  19           add hl,de
  0018  7e           ld a,(hl)
  0019  23           inc hl
  001a  66           ld h,(hl)
  001b  6f           ld l,a
  001c  22 00 00     ld (0000h),hl
  001f  21 06 00     ld hl,0006h
  0022  19           add hl,de
  0023  7e           ld a,(hl)
  0024  23           inc hl
  0025  66           ld h,(hl)
  0026  6f           ld l,a
  0027  22 00 00     ld (0000h),hl
  002a  21 f6 ff     ld hl,fff6h
  002d  19           add hl,de
  002e  e5           push hl
  002f  2a 00 00     ld hl,(0000h)
  0032  c1           pop bc
  0033  7e           ld a,(hl)
  0034  02           ld (bc),a
  0035  23           inc hl
  0036  7e           ld a,(hl)
  0037  03           inc bc
  0038  02           ld (bc),a
  0039  21 f6 ff     ld hl,fff6h
  003c  19           add hl,de
  003d  7e           ld a,(hl)
  003e  c6 01        add a,01h
  0040  77           ld (hl),a
  0041  23           inc hl
  0042  7e           ld a,(hl)
  0043  ce 00        adc a,00h
  0045  77           ld (hl),a
  0046  2b           dec hl
  0047  7e           ld a,(hl)
  0048  23           inc hl
  0049  66           ld h,(hl)
  004a  6f           ld l,a
  004b  7e           ld a,(hl)
  004c  fe 21        cp 21h
  004e  c2 6f 00     jp nz,006fh
  0051  2a 00 00     ld hl,(0000h)
  0054  e5           push hl
  0055  2a 00 00     ld hl,(0000h)
  0058  23           inc hl
  0059  22 00 00     ld (0000h),hl
  005c  e1           pop hl
  005d  36 07        ld (hl),07h
  005f  21 f6 ff     ld hl,fff6h
  0062  19           add hl,de
  0063  7e           ld a,(hl)
  0064  c6 01        add a,01h
  0066  77           ld (hl),a
  0067  23           inc hl
  0068  7e           ld a,(hl)
  0069  ce 00        adc a,00h
  006b  77           ld (hl),a
  006c  c3 7d 00     jp 007dh
  006f  2a 00 00     ld hl,(0000h)
  0072  e5           push hl
  0073  2a 00 00     ld hl,(0000h)
  0076  23           inc hl
  0077  22 00 00     ld (0000h),hl
  007a  e1           pop hl
  007b  36 06        ld (hl),06h
  007d  21 f4 ff     ld hl,fff4h
  0080  19           add hl,de
  0081  e5           push hl
  0082  21 f6 ff     ld hl,fff6h
  0085  19           add hl,de
  0086  c1           pop bc
  0087  7e           ld a,(hl)
  0088  02           ld (bc),a
  0089  23           inc hl
  008a  7e           ld a,(hl)
  008b  03           inc bc
  008c  02           ld (bc),a
  008d  21 f6 ff     ld hl,fff6h
  0090  19           add hl,de
  0091  7e           ld a,(hl)
  0092  23           inc hl
  0093  66           ld h,(hl)
  0094  6f           ld l,a
  0095  7e           ld a,(hl)
  0096  fe 5d        cp 5dh
  0098  ca ba 00     jp z,00bah
  009b  21 f6 ff     ld hl,fff6h
  009e  19           add hl,de
  009f  7e           ld a,(hl)
  00a0  23           inc hl
  00a1  66           ld h,(hl)
  00a2  6f           ld l,a
  00a3  7e           ld a,(hl)
  00a4  b7           or a
  00a5  ca ba 00     jp z,00bah
  00a8  21 f6 ff     ld hl,fff6h
  00ab  19           add hl,de
  00ac  7e           ld a,(hl)
  00ad  23           inc hl
  00ae  66           ld h,(hl)
  00af  6f           ld l,a
  00b0  7e           ld a,(hl)
  00b1  4f           ld c,a
  00b2  97           sub a
  00b3  47           ld b,a
  00b4  21 00 00     ld hl,0000h
  00b7  c3 00 00     jp 0000h
  00ba  2a 00 00     ld hl,(0000h)
  00bd  e5           push hl
  00be  2a 00 00     ld hl,(0000h)
  00c1  23           inc hl
  00c2  22 00 00     ld (0000h),hl
  00c5  e1           pop hl
  00c6  36 09        ld (hl),09h
  00c8  2a 00 00     ld hl,(0000h)
  00cb  e5           push hl
  00cc  21 f6 ff     ld hl,fff6h
  00cf  19           add hl,de
  00d0  7e           ld a,(hl)
  00d1  23           inc hl
  00d2  b6           or (hl)
  00d3  c2 ea 00     jp nz,00eah
  00d6  21 f6 ff     ld hl,fff6h
  00d9  19           add hl,de
  00da  7e           ld a,(hl)
  00db  d6 01        sub 01h
  00dd  77           ld (hl),a
  00de  23           inc hl
  00df  7e           ld a,(hl)
  00e0  de 00        sbc a,00h
  00e2  77           ld (hl),a
  00e3  2b           dec hl
  00e4  4e           ld c,(hl)
  00e5  23           inc hl
  00e6  46           ld b,(hl)
  00e7  c3 f1 00     jp 00f1h
  00ea  21 f6 ff     ld hl,fff6h
  00ed  19           add hl,de
  00ee  4e           ld c,(hl)
  00ef  23           inc hl
  00f0  46           ld b,(hl)
  00f1  e1           pop hl
  00f2  79           ld a,c
  00f3  77           ld (hl),a
  00f4  78           ld a,b
  00f5  23           inc hl
  00f6  77           ld (hl),a
  00f7  2a 00 00     ld hl,(0000h)
  00fa  4d           ld c,l
  00fb  44           ld b,h
  00fc  c3 00 00     jp 0000h
  00ff  2a 00 00     ld hl,(0000h)
  0102  e5           push hl
  0103  2a 00 00     ld hl,(0000h)
  0106  23           inc hl
  0107  22 00 00     ld (0000h),hl
  010a  e1           pop hl
  010b  36 01        ld (hl),01h
  010d  2a 00 00     ld hl,(0000h)
  0110  e5           push hl
  0111  2a 00 00     ld hl,(0000h)
  0114  23           inc hl
  0115  22 00 00     ld (0000h),hl
  0118  e1           pop hl
  0119  e5           push hl
  011a  21 0d 00     ld hl,000dh
  011d  e5           push hl
  011e  21 f6 ff     ld hl,fff6h
  0121  19           add hl,de
  0122  e5           push hl
  0123  cd 00 00     call 0000h
  0126  f1           pop af
  0127  f1           pop af
  0128  e1           pop hl
  0129  79           ld a,c
  012a  77           ld (hl),a
  012b  21 f6 ff     ld hl,fff6h
  012e  19           add hl,de
  012f  7e           ld a,(hl)
  0130  c6 01        add a,01h
  0132  77           ld (hl),a
  0133  23           inc hl
  0134  7e           ld a,(hl)
  0135  ce 00        adc a,00h
  0137  77           ld (hl),a
  0138  c3 8d 00     jp 008dh
  013b  c3 2b 01     jp 012bh
  013e  21 f6 ff     ld hl,fff6h
  0141  19           add hl,de
  0142  e5           push hl
  0143  21 f4 ff     ld hl,fff4h
  0146  19           add hl,de
  0147  c1           pop bc
  0148  0a           ld a,(bc)
  0149  be           cp (hl)
  014a  c2 51 01     jp nz,0151h
  014d  03           inc bc
  014e  0a           ld a,(bc)
  014f  23           inc hl
  0150  be           cp (hl)
  0151  ca c3 01     jp z,01c3h
  0154  21 f6 ff     ld hl,fff6h
  0157  19           add hl,de
  0158  7e           ld a,(hl)
  0159  23           inc hl
  015a  66           ld h,(hl)
  015b  6f           ld l,a
  015c  23           inc hl
  015d  7e           ld a,(hl)
  015e  fe 5d        cp 5dh
  0160  ca c3 01     jp z,01c3h
  0163  21 f8 ff     ld hl,fff8h
  0166  19           add hl,de
  0167  e5           push hl
  0168  21 f6 ff     ld hl,fff6h
  016b  19           add hl,de
  016c  7e           ld a,(hl)
  016d  c6 01        add a,01h
  016f  77           ld (hl),a
  0170  23           inc hl
  0171  7e           ld a,(hl)
  0172  ce 00        adc a,00h
  0174  77           ld (hl),a
  0175  2b           dec hl
  0176  7e           ld a,(hl)
  0177  23           inc hl
  0178  66           ld h,(hl)
  0179  6f           ld l,a
  017a  7e           ld a,(hl)
  017b  fe 5c        cp 5ch
  017d  c2 91 01     jp nz,0191h
  0180  21 0c 00     ld hl,000ch
  0183  e5           push hl
  0184  21 f6 ff     ld hl,fff6h
  0187  19           add hl,de
  0188  e5           push hl
  0189  cd 00 00     call 0000h
  018c  f1           pop af
  018d  f1           pop af
  018e  c3 9d 01     jp 019dh
  0191  21 f6 ff     ld hl,fff6h
  0194  19           add hl,de
  0195  7e           ld a,(hl)
  0196  23           inc hl
  0197  66           ld h,(hl)
  0198  6f           ld l,a
  0199  7e           ld a,(hl)
  019a  4f           ld c,a
  019b  97           sub a
  019c  47           ld b,a
  019d  e1           pop hl
  019e  79           ld a,c
  019f  77           ld (hl),a
  01a0  78           ld a,b
  01a1  23           inc hl
  01a2  77           ld (hl),a
  01a3  2a 00 00     ld hl,(0000h)
  01a6  01 fe ff     ld bc,fffeh
  01a9  09           add hl,bc
  01aa  36 08        ld (hl),08h
  01ac  2a 00 00     ld hl,(0000h)
  01af  e5           push hl
  01b0  2a 00 00     ld hl,(0000h)
  01b3  23           inc hl
  01b4  22 00 00     ld (0000h),hl
  01b7  e1           pop hl
  01b8  e5           push hl
  01b9  21 f8 ff     ld hl,fff8h
  01bc  19           add hl,de
  01bd  c1           pop bc
  01be  7e           ld a,(hl)
  01bf  02           ld (bc),a
  01c0  c3 2b 01     jp 012bh
  01c3  2a 00 00     ld hl,(0000h)
  01c6  e5           push hl
  01c7  2a 00 00     ld hl,(0000h)
  01ca  23           inc hl
  01cb  22 00 00     ld (0000h),hl
  01ce  e1           pop hl
  01cf  36 01        ld (hl),01h
  01d1  2a 00 00     ld hl,(0000h)
  01d4  e5           push hl
  01d5  2a 00 00     ld hl,(0000h)
  01d8  23           inc hl
  01d9  22 00 00     ld (0000h),hl
  01dc  e1           pop hl
  01dd  e5           push hl
  01de  21 f6 ff     ld hl,fff6h
  01e1  19           add hl,de
  01e2  7e           ld a,(hl)
  01e3  23           inc hl
  01e4  66           ld h,(hl)
  01e5  6f           ld l,a
  01e6  c1           pop bc
  01e7  7e           ld a,(hl)
  01e8  02           ld (bc),a
  01e9  c3 2b 01     jp 012bh
  01ec  a4           and h
  01ed  04           inc b
  01ee  5c           ld e,h
  01ef  00           nop
  01f0  8e           adc a,(hl)
  01f1  04           inc b
  01f2  5b           ld e,e
  01f3  00           nop
  01f4  e3           ex (sp),hl
  01f5  03           inc bc
  01f6  5e           ld e,(hl)
  01f7  00           nop
  01f8  89           adc a,c
  01f9  03           inc bc
  01fa  24           inc h
  01fb  00           nop
  01fc  6a           ld l,d
  01fd  03           inc bc
  01fe  2a 00 49     ld hl,(4900h)
  0201  03           inc bc
  0202  3f           ccf
  0203  00           nop
  0204  00           nop
  0205  00           nop
  0206  c3 05 28     jp 2805h
  0209  29           add hl,hl
  020a  00           nop
_pattern:
  020b  cd 00 00     call 0000h
  020e  21 e6 ff     ld hl,ffe6h
  0211  39           add hl,sp
  0212  f9           ld sp,hl
  0213  21 04 00     ld hl,0004h
  0216  19           add hl,de
  0217  7e           ld a,(hl)
  0218  23           inc hl
  0219  66           ld h,(hl)
  021a  6f           ld l,a
  021b  22 00 00     ld (0000h),hl
  021e  21 f8 ff     ld hl,fff8h
  0221  19           add hl,de
  0222  97           sub a
  0223  77           ld (hl),a
  0224  23           inc hl
  0225  77           ld (hl),a
  0226  21 e2 ff     ld hl,ffe2h
  0229  19           add hl,de
  022a  e5           push hl
  022b  21 e4 ff     ld hl,ffe4h
  022e  19           add hl,de
  022f  c1           pop bc
  0230  7d           ld a,l
  0231  02           ld (bc),a
  0232  7c           ld a,h
  0233  03           inc bc
  0234  02           ld (bc),a
  0235  21 08 00     ld hl,0008h
  0238  19           add hl,de
  0239  7e           ld a,(hl)
  023a  23           inc hl
  023b  66           ld h,(hl)
  023c  6f           ld l,a
  023d  7e           ld a,(hl)
  023e  fe 5e        cp 5eh
  0240  c2 5e 02     jp nz,025eh
  0243  21 08 00     ld hl,0008h
  0246  19           add hl,de
  0247  7e           ld a,(hl)
  0248  c6 01        add a,01h
  024a  77           ld (hl),a
  024b  23           inc hl
  024c  7e           ld a,(hl)
  024d  ce 00        adc a,00h
  024f  77           ld (hl),a
  0250  2a 00 00     ld hl,(0000h)
  0253  e5           push hl
  0254  2a 00 00     ld hl,(0000h)
  0257  23           inc hl
  0258  22 00 00     ld (0000h),hl
  025b  e1           pop hl
  025c  36 03        ld (hl),03h
  025e  2a 00 00     ld hl,(0000h)
  0261  e5           push hl
  0262  2a 00 00     ld hl,(0000h)
  0265  23           inc hl
  0266  22 00 00     ld (0000h),hl
  0269  e1           pop hl
  026a  36 14        ld (hl),14h
  026c  2a 00 00     ld hl,(0000h)
  026f  e5           push hl
  0270  2a 00 00     ld hl,(0000h)
  0273  23           inc hl
  0274  22 00 00     ld (0000h),hl
  0277  e1           pop hl
  0278  36 00        ld (hl),00h
  027a  21 e0 ff     ld hl,ffe0h
  027d  19           add hl,de
  027e  97           sub a
  027f  77           ld (hl),a
  0280  23           inc hl
  0281  77           ld (hl),a
  0282  21 08 00     ld hl,0008h
  0285  19           add hl,de
  0286  7e           ld a,(hl)
  0287  23           inc hl
  0288  66           ld h,(hl)
  0289  6f           ld l,a
  028a  7e           ld a,(hl)
  028b  b7           or a
  028c  ca c8 02     jp z,02c8h
  028f  21 08 00     ld hl,0008h
  0292  19           add hl,de
  0293  7e           ld a,(hl)
  0294  23           inc hl
  0295  66           ld h,(hl)
  0296  6f           ld l,a
  0297  7e           ld a,(hl)
  0298  4f           ld c,a
  0299  97           sub a
  029a  47           ld b,a
  029b  21 06 00     ld hl,0006h
  029e  19           add hl,de
  029f  79           ld a,c
  02a0  be           cp (hl)
  02a1  c2 a7 02     jp nz,02a7h
  02a4  78           ld a,b
  02a5  23           inc hl
  02a6  be           cp (hl)
  02a7  ca c8 02     jp z,02c8h
  02aa  21 08 00     ld hl,0008h
  02ad  19           add hl,de
  02ae  7e           ld a,(hl)
  02af  23           inc hl
  02b0  66           ld h,(hl)
  02b1  6f           ld l,a
  02b2  7e           ld a,(hl)
  02b3  fe 5e        cp 5eh
  02b5  ca 37 03     jp z,0337h
  02b8  21 e0 ff     ld hl,ffe0h
  02bb  19           add hl,de
  02bc  3a 00 00     ld a,(0000h)
  02bf  77           ld (hl),a
  02c0  3a 01 00     ld a,(0001h)
  02c3  23           inc hl
  02c4  77           ld (hl),a
  02c5  c3 37 03     jp 0337h
  02c8  2a 00 00     ld hl,(0000h)
  02cb  e5           push hl
  02cc  2a 00 00     ld hl,(0000h)
  02cf  23           inc hl
  02d0  22 00 00     ld (0000h),hl
  02d3  e1           pop hl
  02d4  36 13        ld (hl),13h
  02d6  2a 00 00     ld hl,(0000h)
  02d9  e5           push hl
  02da  2a 00 00     ld hl,(0000h)
  02dd  23           inc hl
  02de  22 00 00     ld (0000h),hl
  02e1  e1           pop hl
  02e2  36 00        ld (hl),00h
  02e4  2a 00 00     ld hl,(0000h)
  02e7  e5           push hl
  02e8  2a 00 00     ld hl,(0000h)
  02eb  23           inc hl
  02ec  22 00 00     ld (0000h),hl
  02ef  e1           pop hl
  02f0  36 0a        ld (hl),0ah
  02f2  2a 00 00     ld hl,(0000h)
  02f5  36 00        ld (hl),00h
  02f7  21 08 00     ld hl,0008h
  02fa  19           add hl,de
  02fb  7e           ld a,(hl)
  02fc  23           inc hl
  02fd  66           ld h,(hl)
  02fe  6f           ld l,a
  02ff  7e           ld a,(hl)
  0300  4f           ld c,a
  0301  97           sub a
  0302  47           ld b,a
  0303  21 06 00     ld hl,0006h
  0306  19           add hl,de
  0307  79           ld a,c
  0308  be           cp (hl)
  0309  c2 0f 03     jp nz,030fh
  030c  78           ld a,b
  030d  23           inc hl
  030e  be           cp (hl)
  030f  c2 31 03     jp nz,0331h
  0312  21 e4 ff     ld hl,ffe4h
  0315  19           add hl,de
  0316  e5           push hl
  0317  21 e2 ff     ld hl,ffe2h
  031a  19           add hl,de
  031b  c1           pop bc
  031c  79           ld a,c
  031d  be           cp (hl)
  031e  c2 24 03     jp nz,0324h
  0321  78           ld a,b
  0322  23           inc hl
  0323  be           cp (hl)
  0324  c2 31 03     jp nz,0331h
  0327  21 08 00     ld hl,0008h
  032a  19           add hl,de
  032b  4e           ld c,(hl)
  032c  23           inc hl
  032d  46           ld b,(hl)
  032e  c3 34 03     jp 0334h
  0331  01 00 00     ld bc,0000h
  0334  c3 00 00     jp 0000h
  0337  21 08 00     ld hl,0008h
  033a  19           add hl,de
  033b  7e           ld a,(hl)
  033c  23           inc hl
  033d  66           ld h,(hl)
  033e  6f           ld l,a
  033f  7e           ld a,(hl)
  0340  4f           ld c,a
  0341  97           sub a
  0342  47           ld b,a
  0343  21 ec 01     ld hl,01ech
  0346  c3 00 00     jp 0000h
  0349  2a 00 00     ld hl,(0000h)
  034c  e5           push hl
  034d  2a 00 00     ld hl,(0000h)
  0350  23           inc hl
  0351  22 00 00     ld (0000h),hl
  0354  e1           pop hl
  0355  36 02        ld (hl),02h
  0357  21 08 00     ld hl,0008h
  035a  19           add hl,de
  035b  7e           ld a,(hl)
  035c  c6 01        add a,01h
  035e  77           ld (hl),a
  035f  23           inc hl
  0360  7e           ld a,(hl)
  0361  ce 00        adc a,00h
  0363  77           ld (hl),a
  0364  c3 82 02     jp 0282h
  0367  c3 57 03     jp 0357h
  036a  2a 00 00     ld hl,(0000h)
  036d  e5           push hl
  036e  2a 00 00     ld hl,(0000h)
  0371  23           inc hl
  0372  22 00 00     ld (0000h),hl
  0375  e1           pop hl
  0376  36 05        ld (hl),05h
  0378  2a 00 00     ld hl,(0000h)
  037b  e5           push hl
  037c  2a 00 00     ld hl,(0000h)
  037f  23           inc hl
  0380  22 00 00     ld (0000h),hl
  0383  e1           pop hl
  0384  36 02        ld (hl),02h
  0386  c3 57 03     jp 0357h
  0389  21 08 00     ld hl,0008h
  038c  19           add hl,de
  038d  7e           ld a,(hl)
  038e  23           inc hl
  038f  66           ld h,(hl)
  0390  6f           ld l,a
  0391  23           inc hl
  0392  7e           ld a,(hl)
  0393  4f           ld c,a
  0394  97           sub a
  0395  47           ld b,a
  0396  21 06 00     ld hl,0006h
  0399  19           add hl,de
  039a  79           ld a,c
  039b  be           cp (hl)
  039c  c2 a2 03     jp nz,03a2h
  039f  78           ld a,b
  03a0  23           inc hl
  03a1  be           cp (hl)
  03a2  ca b3 03     jp z,03b3h
  03a5  21 08 00     ld hl,0008h
  03a8  19           add hl,de
  03a9  7e           ld a,(hl)
  03aa  23           inc hl
  03ab  66           ld h,(hl)
  03ac  6f           ld l,a
  03ad  23           inc hl
  03ae  7e           ld a,(hl)
  03af  b7           or a
  03b0  c2 c4 03     jp nz,03c4h
  03b3  2a 00 00     ld hl,(0000h)
  03b6  e5           push hl
  03b7  2a 00 00     ld hl,(0000h)
  03ba  23           inc hl
  03bb  22 00 00     ld (0000h),hl
  03be  e1           pop hl
  03bf  36 04        ld (hl),04h
  03c1  c3 57 03     jp 0357h
  03c4  2a 00 00     ld hl,(0000h)
  03c7  e5           push hl
  03c8  2a 00 00     ld hl,(0000h)
  03cb  23           inc hl
  03cc  22 00 00     ld (0000h),hl
  03cf  e1           pop hl
  03d0  36 01        ld (hl),01h
  03d2  2a 00 00     ld hl,(0000h)
  03d5  e5           push hl
  03d6  2a 00 00     ld hl,(0000h)
  03d9  23           inc hl
  03da  22 00 00     ld (0000h),hl
  03dd  e1           pop hl
  03de  36 24        ld (hl),24h
  03e0  c3 57 03     jp 0357h
  03e3  21 e0 ff     ld hl,ffe0h
  03e6  19           add hl,de
  03e7  7e           ld a,(hl)
  03e8  23           inc hl
  03e9  b6           or (hl)
  03ea  ca 17 04     jp z,0417h
  03ed  21 e0 ff     ld hl,ffe0h
  03f0  19           add hl,de
  03f1  7e           ld a,(hl)
  03f2  23           inc hl
  03f3  66           ld h,(hl)
  03f4  6f           ld l,a
  03f5  7e           ld a,(hl)
  03f6  fe 14        cp 14h
  03f8  ca 17 04     jp z,0417h
  03fb  21 e0 ff     ld hl,ffe0h
  03fe  19           add hl,de
  03ff  7e           ld a,(hl)
  0400  23           inc hl
  0401  66           ld h,(hl)
  0402  6f           ld l,a
  0403  7e           ld a,(hl)
  0404  fe 13        cp 13h
  0406  ca 17 04     jp z,0417h
  0409  21 e0 ff     ld hl,ffe0h
  040c  19           add hl,de
  040d  7e           ld a,(hl)
  040e  23           inc hl
  040f  66           ld h,(hl)
  0410  6f           ld l,a
  0411  7e           ld a,(hl)
  0412  fe 05        cp 05h
  0414  c2 40 04     jp nz,0440h
  0417  2a 00 00     ld hl,(0000h)
  041a  e5           push hl
  041b  2a 00 00     ld hl,(0000h)
  041e  23           inc hl
  041f  22 00 00     ld (0000h),hl
  0422  e1           pop hl
  0423  36 01        ld (hl),01h
  0425  2a 00 00     ld hl,(0000h)
  0428  e5           push hl
  0429  2a 00 00     ld hl,(0000h)
  042c  23           inc hl
  042d  22 00 00     ld (0000h),hl
  0430  e1           pop hl
  0431  e5           push hl
  0432  21 08 00     ld hl,0008h
  0435  19           add hl,de
  0436  7e           ld a,(hl)
  0437  23           inc hl
  0438  66           ld h,(hl)
  0439  6f           ld l,a
  043a  c1           pop bc
  043b  7e           ld a,(hl)
  043c  02           ld (bc),a
  043d  c3 57 03     jp 0357h
  0440  2a 00 00     ld hl,(0000h)
  0443  23           inc hl
  0444  22 00 00     ld (0000h),hl
  0447  2a 00 00     ld hl,(0000h)
  044a  22 00 00     ld (0000h),hl
  044d  21 e0 ff     ld hl,ffe0h
  0450  19           add hl,de
  0451  3a 00 00     ld a,(0000h)
  0454  be           cp (hl)
  0455  c2 5d 04     jp nz,045dh
  0458  3a 01 00     ld a,(0001h)
  045b  23           inc hl
  045c  be           cp (hl)
  045d  ca 81 04     jp z,0481h
  0460  2a 00 00     ld hl,(0000h)
  0463  e5           push hl
  0464  2a 00 00     ld hl,(0000h)
  0467  01 ff ff     ld bc,ffffh
  046a  09           add hl,bc
  046b  c1           pop bc
  046c  7e           ld a,(hl)
  046d  02           ld (bc),a
  046e  3a 00 00     ld a,(0000h)
  0471  d6 01        sub 01h
  0473  32 00 00     ld (0000h),a
  0476  3a 01 00     ld a,(0001h)
  0479  de 00        sbc a,00h
  047b  32 01 00     ld (0001h),a
  047e  c3 4d 04     jp 044dh
  0481  21 e0 ff     ld hl,ffe0h
  0484  19           add hl,de
  0485  7e           ld a,(hl)
  0486  23           inc hl
  0487  66           ld h,(hl)
  0488  6f           ld l,a
  0489  36 05        ld (hl),05h
  048b  c3 57 03     jp 0357h
  048e  2a 00 00     ld hl,(0000h)
  0491  e5           push hl
  0492  21 08 00     ld hl,0008h
  0495  19           add hl,de
  0496  e5           push hl
  0497  cd 0e 00     call 000eh
  049a  f1           pop af
  049b  f1           pop af
  049c  69           ld l,c
  049d  60           ld h,b
  049e  22 00 00     ld (0000h),hl
  04a1  c3 57 03     jp 0357h
  04a4  21 08 02     ld hl,0208h
  04a7  e5           push hl
  04a8  21 08 00     ld hl,0008h
  04ab  19           add hl,de
  04ac  e5           push hl
  04ad  cd 00 00     call 0000h
  04b0  f1           pop af
  04b1  f1           pop af
  04b2  69           ld l,c
  04b3  60           ld h,b
  04b4  22 00 00     ld (0000h),hl
  04b7  3a 01 00     ld a,(0001h)
  04ba  b7           or a
  04bb  fa df 04     jp m,04dfh
  04be  2a 00 00     ld hl,(0000h)
  04c1  e5           push hl
  04c2  2a 00 00     ld hl,(0000h)
  04c5  23           inc hl
  04c6  22 00 00     ld (0000h),hl
  04c9  e1           pop hl
  04ca  36 01        ld (hl),01h
  04cc  2a 00 00     ld hl,(0000h)
  04cf  e5           push hl
  04d0  2a 00 00     ld hl,(0000h)
  04d3  23           inc hl
  04d4  22 00 00     ld (0000h),hl
  04d7  e1           pop hl
  04d8  3a 00 00     ld a,(0000h)
  04db  77           ld (hl),a
  04dc  c3 57 03     jp 0357h
  04df  3a 00 00     ld a,(0000h)
  04e2  fe ff        cp ffh
  04e4  c2 ec 04     jp nz,04ech
  04e7  3a 01 00     ld a,(0001h)
  04ea  fe ff        cp ffh
  04ec  c2 55 05     jp nz,0555h
  04ef  21 f8 ff     ld hl,fff8h
  04f2  19           add hl,de
  04f3  7e           ld a,(hl)
  04f4  c6 01        add a,01h
  04f6  77           ld (hl),a
  04f7  23           inc hl
  04f8  7e           ld a,(hl)
  04f9  ce 00        adc a,00h
  04fb  77           ld (hl),a
  04fc  2b           dec hl
  04fd  fa 57 03     jp m,0357h
  0500  21 f8 ff     ld hl,fff8h
  0503  19           add hl,de
  0504  7e           ld a,(hl)
  0505  d6 0a        sub 0ah
  0507  23           inc hl
  0508  7e           ld a,(hl)
  0509  de 00        sbc a,00h
  050b  f2 57 03     jp p,0357h
  050e  21 e2 ff     ld hl,ffe2h
  0511  19           add hl,de
  0512  4e           ld c,(hl)
  0513  23           inc hl
  0514  46           ld b,(hl)
  0515  c5           push bc
  0516  21 e2 ff     ld hl,ffe2h
  0519  19           add hl,de
  051a  7e           ld a,(hl)
  051b  c6 02        add a,02h
  051d  77           ld (hl),a
  051e  23           inc hl
  051f  7e           ld a,(hl)
  0520  ce 00        adc a,00h
  0522  77           ld (hl),a
  0523  e1           pop hl
  0524  e5           push hl
  0525  21 f8 ff     ld hl,fff8h
  0528  19           add hl,de
  0529  c1           pop bc
  052a  7e           ld a,(hl)
  052b  02           ld (bc),a
  052c  23           inc hl
  052d  7e           ld a,(hl)
  052e  03           inc bc
  052f  02           ld (bc),a
  0530  2a 00 00     ld hl,(0000h)
  0533  e5           push hl
  0534  2a 00 00     ld hl,(0000h)
  0537  23           inc hl
  0538  22 00 00     ld (0000h),hl
  053b  e1           pop hl
  053c  36 14        ld (hl),14h
  053e  2a 00 00     ld hl,(0000h)
  0541  e5           push hl
  0542  2a 00 00     ld hl,(0000h)
  0545  23           inc hl
  0546  22 00 00     ld (0000h),hl
  0549  e1           pop hl
  054a  e5           push hl
  054b  21 f8 ff     ld hl,fff8h
  054e  19           add hl,de
  054f  c1           pop bc
  0550  7e           ld a,(hl)
  0551  02           ld (bc),a
  0552  c3 57 03     jp 0357h
  0555  3a 00 00     ld a,(0000h)
  0558  fe fe        cp feh
  055a  c2 62 05     jp nz,0562h
  055d  3a 01 00     ld a,(0001h)
  0560  fe ff        cp ffh
  0562  c2 57 03     jp nz,0357h
  0565  21 f8 ff     ld hl,fff8h
  0568  19           add hl,de
  0569  7e           ld a,(hl)
  056a  d6 0a        sub 0ah
  056c  23           inc hl
  056d  7e           ld a,(hl)
  056e  de 00        sbc a,00h
  0570  fa 83 05     jp m,0583h
  0573  21 f8 ff     ld hl,fff8h
  0576  19           add hl,de
  0577  7e           ld a,(hl)
  0578  d6 01        sub 01h
  057a  77           ld (hl),a
  057b  23           inc hl
  057c  7e           ld a,(hl)
  057d  de 00        sbc a,00h
  057f  77           ld (hl),a
  0580  c3 57 03     jp 0357h
  0583  21 f8 ff     ld hl,fff8h
  0586  19           add hl,de
  0587  23           inc hl
  0588  7e           ld a,(hl)
  0589  b7           or a
  058a  fa 57 03     jp m,0357h
  058d  21 e2 ff     ld hl,ffe2h
  0590  19           add hl,de
  0591  7e           ld a,(hl)
  0592  d6 02        sub 02h
  0594  77           ld (hl),a
  0595  23           inc hl
  0596  7e           ld a,(hl)
  0597  de 00        sbc a,00h
  0599  77           ld (hl),a
  059a  2a 00 00     ld hl,(0000h)
  059d  e5           push hl
  059e  2a 00 00     ld hl,(0000h)
  05a1  23           inc hl
  05a2  22 00 00     ld (0000h),hl
  05a5  e1           pop hl
  05a6  36 13        ld (hl),13h
  05a8  2a 00 00     ld hl,(0000h)
  05ab  e5           push hl
  05ac  2a 00 00     ld hl,(0000h)
  05af  23           inc hl
  05b0  22 00 00     ld (0000h),hl
  05b3  e1           pop hl
  05b4  e5           push hl
  05b5  21 e2 ff     ld hl,ffe2h
  05b8  19           add hl,de
  05b9  7e           ld a,(hl)
  05ba  23           inc hl
  05bb  66           ld h,(hl)
  05bc  6f           ld l,a
  05bd  c1           pop bc
  05be  7e           ld a,(hl)
  05bf  02           ld (bc),a
  05c0  c3 57 03     jp 0357h
  05c3  2a 00 00     ld hl,(0000h)
  05c6  e5           push hl
  05c7  2a 00 00     ld hl,(0000h)
  05ca  23           inc hl
  05cb  22 00 00     ld (0000h),hl
  05ce  e1           pop hl
  05cf  36 01        ld (hl),01h
  05d1  2a 00 00     ld hl,(0000h)
  05d4  e5           push hl
  05d5  2a 00 00     ld hl,(0000h)
  05d8  23           inc hl
  05d9  22 00 00     ld (0000h),hl
  05dc  e1           pop hl
  05dd  e5           push hl
  05de  21 08 00     ld hl,0008h
  05e1  19           add hl,de
  05e2  7e           ld a,(hl)
  05e3  23           inc hl
  05e4  66           ld h,(hl)
  05e5  6f           ld l,a
  05e6  c1           pop bc
  05e7  7e           ld a,(hl)
  05e8  02           ld (bc),a
  05e9  c3 57 03     jp 0357h

Data segment: (empty)

Symbol table: 8 symbols (9-char names)
  Index  Value  Type Seg    Global  Name
  -----  -----  ---- -----  ------  ----
  [  0]  0000   08   ext    yes      c.r4
  [  1]  0000   08   ext    yes      c.r3
  [  2]  0000   08   ext    yes      c.r2
  [  3]  0000   08   ext    yes      _doesc
  [  4]  0000   08   ext    yes      c.switch
  [  5]  0000   08   ext    yes      c.rets
  [  6]  0000   08   ext    yes      c.ents
  [  7]  020b   0d   text   yes      _pattern

Text relocations:
  Offset  Type        Target
  ------  ----        ------
  0000    word        text segment
  0004    word        text segment
  000a    word        text segment
  000f    word        symbol[6]
  001d    word        symbol[0]
  0028    word        symbol[2]
  0030    word        symbol[0]
  004f    word        text segment
  0052    word        symbol[2]
  0056    word        symbol[2]
  005a    word        symbol[2]
  006d    word        text segment
  0070    word        symbol[2]
  0074    word        symbol[2]
  0078    word        symbol[2]
  0099    word        text segment
  00a6    word        text segment
  00b5    word        text segment
  00b8    word        symbol[4]
  00bb    word        symbol[2]
  00bf    word        symbol[2]
  00c3    word        symbol[2]
  00c9    word        symbol[0]
  00d4    word        text segment
  00e8    word        text segment
  00f8    word        symbol[2]
  00fd    word        symbol[5]
  0100    word        symbol[2]
  0104    word        symbol[2]
  0108    word        symbol[2]
  010e    word        symbol[2]
  0112    word        symbol[2]
  0116    word        symbol[2]
  011b    word        text segment
  0124    word        symbol[3]
  0139    word        text segment
  013c    word        text segment
  014b    word        text segment
  0152    word        text segment
  0161    word        text segment
  017e    word        text segment
  0181    word        text segment
  018a    word        symbol[3]
  018f    word        text segment
  01a4    word        symbol[2]
  01ad    word        symbol[2]
  01b1    word        symbol[2]
  01b5    word        symbol[2]
  01c1    word        text segment
  01c4    word        symbol[2]
  01c8    word        symbol[2]
  01cc    word        symbol[2]
  01d2    word        symbol[2]
  01d6    word        symbol[2]
  01da    word        symbol[2]
  01ea    word        text segment
  01ec    word        text segment
  01f0    word        text segment
  01f4    word        text segment
  01f8    word        text segment
  01fc    word        text segment
  0200    word        text segment
  0206    word        text segment
  020c    word        symbol[6]
  021c    word        symbol[0]
  0241    word        text segment
  0251    word        symbol[0]
  0255    word        symbol[0]
  0259    word        symbol[0]
  025f    word        symbol[0]
  0263    word        symbol[0]
  0267    word        symbol[0]
  026d    word        symbol[0]
  0271    word        symbol[0]
  0275    word        symbol[0]
  028d    word        text segment
  02a2    word        text segment
  02a8    word        text segment
  02b6    word        text segment
  02bd    word        symbol[0]
  02c1    word        symbol[0]
  02c6    word        text segment
  02c9    word        symbol[0]
  02cd    word        symbol[0]
  02d1    word        symbol[0]
  02d7    word        symbol[0]
  02db    word        symbol[0]
  02df    word        symbol[0]
  02e5    word        symbol[0]
  02e9    word        symbol[0]
  02ed    word        symbol[0]
  02f3    word        symbol[0]
  030a    word        text segment
  0310    word        text segment
  031f    word        text segment
  0325    word        text segment
  032f    word        text segment
  0335    word        symbol[5]
  0344    word        text segment
  0347    word        symbol[4]
  034a    word        symbol[0]
  034e    word        symbol[0]
  0352    word        symbol[0]
  0365    word        text segment
  0368    word        text segment
  036b    word        symbol[0]
  036f    word        symbol[0]
  0373    word        symbol[0]
  0379    word        symbol[0]
  037d    word        symbol[0]
  0381    word        symbol[0]
  0387    word        text segment
  039d    word        text segment
  03a3    word        text segment
  03b1    word        text segment
  03b4    word        symbol[0]
  03b8    word        symbol[0]
  03bc    word        symbol[0]
  03c2    word        text segment
  03c5    word        symbol[0]
  03c9    word        symbol[0]
  03cd    word        symbol[0]
  03d3    word        symbol[0]
  03d7    word        symbol[0]
  03db    word        symbol[0]
  03e1    word        text segment
  03eb    word        text segment
  03f9    word        text segment
  0407    word        text segment
  0415    word        text segment
  0418    word        symbol[0]
  041c    word        symbol[0]
  0420    word        symbol[0]
  0426    word        symbol[0]
  042a    word        symbol[0]
  042e    word        symbol[0]
  043e    word        text segment
  0441    word        symbol[0]
  0445    word        symbol[0]
  0448    word        symbol[0]
  044b    word        symbol[1]
  0452    word        symbol[1]
  0456    word        text segment
  0459    word        symbol[1]
  045e    word        text segment
  0461    word        symbol[1]
  0465    word        symbol[1]
  046f    word        symbol[1]
  0474    word        symbol[1]
  0477    word        symbol[1]
  047c    word        symbol[1]
  047f    word        text segment
  048c    word        text segment
  048f    word        symbol[0]
  0498    word        text segment
  049f    word        symbol[0]
  04a2    word        text segment
  04a5    word        text segment
  04ae    word        symbol[3]
  04b5    word        symbol[2]
  04b8    word        symbol[2]
  04bc    word        text segment
  04bf    word        symbol[0]
  04c3    word        symbol[0]
  04c7    word        symbol[0]
  04cd    word        symbol[0]
  04d1    word        symbol[0]
  04d5    word        symbol[0]
  04d9    word        symbol[2]
  04dd    word        text segment
  04e0    word        symbol[2]
  04e5    word        text segment
  04e8    word        symbol[2]
  04ed    word        text segment
  04fe    word        text segment
  050c    word        text segment
  0531    word        symbol[0]
  0535    word        symbol[0]
  0539    word        symbol[0]
  053f    word        symbol[0]
  0543    word        symbol[0]
  0547    word        symbol[0]
  0553    word        text segment
  0556    word        symbol[2]
  055b    word        text segment
  055e    word        symbol[2]
  0563    word        text segment
  0571    word        text segment
  0581    word        text segment
  058b    word        text segment
  059b    word        symbol[0]
  059f    word        symbol[0]
  05a3    word        symbol[0]
  05a9    word        symbol[0]
  05ad    word        symbol[0]
  05b1    word        symbol[0]
  05c1    word        text segment
  05c4    word        symbol[0]
  05c8    word        symbol[0]
  05cc    word        symbol[0]
  05d2    word        symbol[0]
  05d6    word        symbol[0]
  05da    word        symbol[0]
  05ea    word        text segment

Data relocations:
  Offset  Type        Target
  ------  ----        ------
  (none)

