=== lib/libwsc/wblk.o ===

Header:
  Magic:       0x99
  Config:      0x14 little-endian
  Symlen:      9 chars
  Symtab:      180 bytes (15 symbols)
  Text:        1091 bytes
  Data:        0 bytes
  BSS:         0 bytes
  Heap:        0 bytes
  Text offset: 0x0000
  Data offset: 0x0443

Disassembly: 1091 bytes
  0000  df           rst 18h
  0001  01 02 00     ld bc,0002h
  0004  d9           exx
  0005  01 01 00     ld bc,0001h
  0008  00           nop
  0009  00           nop
  000a  f0           ret p
  000b  01 cd 00     ld bc,00cdh
  000e  00           nop
  000f  f5           push af
  0010  21 04 00     ld hl,0004h
  0013  19           add hl,de
  0014  7e           ld a,(hl)
  0015  23           inc hl
  0016  66           ld h,(hl)
  0017  6f           ld l,a
  0018  22 00 00     ld (0000h),hl
  001b  2a 00 00     ld hl,(0000h)
  001e  01 02 00     ld bc,0002h
  0021  09           add hl,bc
  0022  7e           ld a,(hl)
  0023  23           inc hl
  0024  66           ld h,(hl)
  0025  6f           ld l,a
  0026  22 00 00     ld (0000h),hl
  0029  21 f8 ff     ld hl,fff8h
  002c  19           add hl,de
  002d  e5           push hl
  002e  2a 00 00     ld hl,(0000h)
  0031  01 24 00     ld bc,0024h
  0034  09           add hl,bc
  0035  e5           push hl
  0036  e1           pop hl
  0037  01 00 00     ld bc,0000h
  003a  cd 00 00     call 0000h
  003d  21 00 00     ld hl,0000h
  0040  e5           push hl
  0041  21 07 00     ld hl,0007h
  0044  e5           push hl
  0045  cd 00 00     call 0000h
  0048  e1           pop hl
  0049  c1           pop bc
  004a  23           inc hl
  004b  23           inc hl
  004c  7e           ld a,(hl)
  004d  02           ld (bc),a
  004e  23           inc hl
  004f  7e           ld a,(hl)
  0050  03           inc bc
  0051  02           ld (bc),a
  0052  2a 00 00     ld hl,(0000h)
  0055  01 24 00     ld bc,0024h
  0058  09           add hl,bc
  0059  23           inc hl
  005a  23           inc hl
  005b  4e           ld c,(hl)
  005c  23           inc hl
  005d  46           ld b,(hl)
  005e  69           ld l,c
  005f  60           ld h,b
  0060  7d           ld a,l
  0061  e6 7f        and 7fh
  0063  6f           ld l,a
  0064  97           sub a
  0065  67           ld h,a
  0066  22 00 00     ld (0000h),hl
  0069  2a 00 00     ld hl,(0000h)
  006c  01 21 00     ld bc,0021h
  006f  09           add hl,bc
  0070  e5           push hl
  0071  21 80 00     ld hl,0080h
  0074  e5           push hl
  0075  21 00 00     ld hl,0000h
  0078  c1           pop bc
  0079  79           ld a,c
  007a  96           sub (hl)
  007b  4f           ld c,a
  007c  78           ld a,b
  007d  23           inc hl
  007e  9e           sbc a,(hl)
  007f  47           ld b,a
  0080  e1           pop hl
  0081  79           ld a,c
  0082  77           ld (hl),a
  0083  2a 00 00     ld hl,(0000h)
  0086  01 22 00     ld bc,0022h
  0089  09           add hl,bc
  008a  e5           push hl
  008b  2a 00 00     ld hl,(0000h)
  008e  01 2a 00     ld bc,002ah
  0091  09           add hl,bc
  0092  e5           push hl
  0093  2a 00 00     ld hl,(0000h)
  0096  e3           ex (sp),hl
  0097  c1           pop bc
  0098  09           add hl,bc
  0099  c1           pop bc
  009a  7d           ld a,l
  009b  02           ld (bc),a
  009c  7c           ld a,h
  009d  03           inc bc
  009e  02           ld (bc),a
  009f  21 06 00     ld hl,0006h
  00a2  19           add hl,de
  00a3  7e           ld a,(hl)
  00a4  23           inc hl
  00a5  b6           or (hl)
  00a6  c2 c8 00     jp nz,00c8h
  00a9  21 f8 ff     ld hl,fff8h
  00ac  19           add hl,de
  00ad  e5           push hl
  00ae  2a 00 00     ld hl,(0000h)
  00b1  01 28 00     ld bc,0028h
  00b4  09           add hl,bc
  00b5  c1           pop bc
  00b6  0a           ld a,(bc)
  00b7  be           cp (hl)
  00b8  c2 bf 00     jp nz,00bfh
  00bb  03           inc bc
  00bc  0a           ld a,(bc)
  00bd  23           inc hl
  00be  be           cp (hl)
  00bf  c2 c8 00     jp nz,00c8h
  00c2  01 00 00     ld bc,0000h
  00c5  c3 00 00     jp 0000h
  00c8  21 00 00     ld hl,0000h
  00cb  e5           push hl
  00cc  2a 00 00     ld hl,(0000h)
  00cf  e5           push hl
  00d0  cd f9 01     call __wblk
  00d3  f1           pop af
  00d4  f1           pop af
  00d5  78           ld a,b
  00d6  b7           or a
  00d7  fa f9 00     jp m,00f9h
  00da  21 06 00     ld hl,0006h
  00dd  19           add hl,de
  00de  4e           ld c,(hl)
  00df  23           inc hl
  00e0  46           ld b,(hl)
  00e1  c5           push bc
  00e2  21 f8 ff     ld hl,fff8h
  00e5  19           add hl,de
  00e6  4e           ld c,(hl)
  00e7  23           inc hl
  00e8  46           ld b,(hl)
  00e9  c5           push bc
  00ea  2a 00 00     ld hl,(0000h)
  00ed  e5           push hl
  00ee  cd ff 02     call __setex
  00f1  f1           pop af
  00f2  f1           pop af
  00f3  f1           pop af
  00f4  78           ld a,b
  00f5  b7           or a
  00f6  f2 ff 00     jp p,00ffh
  00f9  01 ff ff     ld bc,ffffh
  00fc  c3 00 00     jp 0000h
  00ff  2a 00 00     ld hl,(0000h)
  0102  01 20 00     ld bc,0020h
  0105  09           add hl,bc
  0106  7e           ld a,(hl)
  0107  4f           ld c,a
  0108  87           add a,a
  0109  9f           sbc a,a
  010a  47           ld b,a
  010b  c5           push bc
  010c  2a 00 00     ld hl,(0000h)
  010f  01 0f 00     ld bc,000fh
  0112  09           add hl,bc
  0113  7e           ld a,(hl)
  0114  4f           ld c,a
  0115  87           add a,a
  0116  9f           sbc a,a
  0117  47           ld b,a
  0118  79           ld a,c
  0119  e6 ff        and ffh
  011b  4f           ld c,a
  011c  97           sub a
  011d  47           ld b,a
  011e  e1           pop hl
  011f  7d           ld a,l
  0120  91           sub c
  0121  7c           ld a,h
  0122  98           sbc a,b
  0123  fa 2c 01     jp m,012ch
  0126  01 01 00     ld bc,0001h
  0129  c3 2f 01     jp 012fh
  012c  01 00 00     ld bc,0000h
  012f  69           ld l,c
  0130  60           ld h,b
  0131  22 00 00     ld (0000h),hl
  0134  21 f8 ff     ld hl,fff8h
  0137  19           add hl,de
  0138  e5           push hl
  0139  2a 00 00     ld hl,(0000h)
  013c  01 28 00     ld bc,0028h
  013f  09           add hl,bc
  0140  c1           pop bc
  0141  0a           ld a,(bc)
  0142  be           cp (hl)
  0143  c2 4a 01     jp nz,014ah
  0146  03           inc bc
  0147  0a           ld a,(bc)
  0148  23           inc hl
  0149  be           cp (hl)
  014a  c2 55 01     jp nz,0155h
  014d  2a 00 00     ld hl,(0000h)
  0150  4d           ld c,l
  0151  44           ld b,h
  0152  c3 00 00     jp 0000h
  0155  2a 00 00     ld hl,(0000h)
  0158  01 28 00     ld bc,0028h
  015b  09           add hl,bc
  015c  e5           push hl
  015d  21 f8 ff     ld hl,fff8h
  0160  19           add hl,de
  0161  c1           pop bc
  0162  7e           ld a,(hl)
  0163  02           ld (bc),a
  0164  23           inc hl
  0165  7e           ld a,(hl)
  0166  03           inc bc
  0167  02           ld (bc),a
  0168  21 00 00     ld hl,0000h
  016b  7e           ld a,(hl)
  016c  23           inc hl
  016d  b6           or (hl)
  016e  ca 88 01     jp z,0188h
  0171  21 80 00     ld hl,0080h
  0174  e5           push hl
  0175  2a 00 00     ld hl,(0000h)
  0178  01 2a 00     ld bc,002ah
  017b  09           add hl,bc
  017c  e5           push hl
  017d  cd 05 04     call __clrbuf
  0180  f1           pop af
  0181  f1           pop af
  0182  01 01 00     ld bc,0001h
  0185  c3 00 00     jp 0000h
  0188  2a 00 00     ld hl,(0000h)
  018b  01 01 00     ld bc,0001h
  018e  09           add hl,bc
  018f  7e           ld a,(hl)
  0190  4f           ld c,a
  0191  87           add a,a
  0192  9f           sbc a,a
  0193  47           ld b,a
  0194  c5           push bc
  0195  21 0e 00     ld hl,000eh
  0198  e5           push hl
  0199  cd 00 00     call 0000h
  019c  f1           pop af
  019d  f1           pop af
  019e  2a 00 00     ld hl,(0000h)
  01a1  01 2a 00     ld bc,002ah
  01a4  09           add hl,bc
  01a5  e5           push hl
  01a6  21 1a 00     ld hl,001ah
  01a9  e5           push hl
  01aa  cd 00 00     call 0000h
  01ad  f1           pop af
  01ae  f1           pop af
  01af  2a 00 00     ld hl,(0000h)
  01b2  e5           push hl
  01b3  21 14 00     ld hl,0014h
  01b6  e5           push hl
  01b7  cd 00 00     call 0000h
  01ba  f1           pop af
  01bb  f1           pop af
  01bc  69           ld l,c
  01bd  60           ld h,b
  01be  22 00 00     ld (0000h),hl
  01c1  21 80 00     ld hl,0080h
  01c4  e5           push hl
  01c5  21 1a 00     ld hl,001ah
  01c8  e5           push hl
  01c9  cd 00 00     call 0000h
  01cc  f1           pop af
  01cd  f1           pop af
  01ce  2a 00 00     ld hl,(0000h)
  01d1  4d           ld c,l
  01d2  44           ld b,h
  01d3  21 00 00     ld hl,0000h
  01d6  c3 00 00     jp 0000h
  01d9  01 01 00     ld bc,0001h
  01dc  c3 00 00     jp 0000h
  01df  21 80 00     ld hl,0080h
  01e2  e5           push hl
  01e3  2a 00 00     ld hl,(0000h)
  01e6  01 2a 00     ld bc,002ah
  01e9  09           add hl,bc
  01ea  e5           push hl
  01eb  cd 05 04     call __clrbuf
  01ee  f1           pop af
  01ef  f1           pop af
  01f0  01 00 00     ld bc,0000h
  01f3  c3 00 00     jp 0000h
  01f6  c3 00 00     jp 0000h
__wblk:
  01f9  cd 00 00     call 0000h
  01fc  21 04 00     ld hl,0004h
  01ff  19           add hl,de
  0200  7e           ld a,(hl)
  0201  23           inc hl
  0202  66           ld h,(hl)
  0203  6f           ld l,a
  0204  22 00 00     ld (0000h),hl
  0207  2a 00 00     ld hl,(0000h)
  020a  01 02 00     ld bc,0002h
  020d  09           add hl,bc
  020e  7e           ld a,(hl)
  020f  23           inc hl
  0210  66           ld h,(hl)
  0211  6f           ld l,a
  0212  22 00 00     ld (0000h),hl
  0215  2a 00 00     ld hl,(0000h)
  0218  7e           ld a,(hl)
  0219  4f           ld c,a
  021a  87           add a,a
  021b  9f           sbc a,a
  021c  47           ld b,a
  021d  79           ld a,c
  021e  e6 02        and 02h
  0220  ca 4e 02     jp z,024eh
  0223  21 00 00     ld hl,0000h
  0226  e5           push hl
  0227  2a 00 00     ld hl,(0000h)
  022a  01 28 00     ld bc,0028h
  022d  09           add hl,bc
  022e  4e           ld c,(hl)
  022f  23           inc hl
  0230  46           ld b,(hl)
  0231  c5           push bc
  0232  2a 00 00     ld hl,(0000h)
  0235  e5           push hl
  0236  cd ff 02     call __setex
  0239  f1           pop af
  023a  f1           pop af
  023b  f1           pop af
  023c  79           ld a,c
  023d  fe ff        cp ffh
  023f  c2 45 02     jp nz,0245h
  0242  78           ld a,b
  0243  fe ff        cp ffh
  0245  c2 93 02     jp nz,0293h
  0248  01 ff ff     ld bc,ffffh
  024b  c3 00 00     jp 0000h
  024e  21 06 00     ld hl,0006h
  0251  19           add hl,de
  0252  7e           ld a,(hl)
  0253  23           inc hl
  0254  b6           or (hl)
  0255  ca f9 02     jp z,02f9h
  0258  2a 00 00     ld hl,(0000h)
  025b  7e           ld a,(hl)
  025c  4f           ld c,a
  025d  87           add a,a
  025e  9f           sbc a,a
  025f  47           ld b,a
  0260  79           ld a,c
  0261  e6 10        and 10h
  0263  ca f9 02     jp z,02f9h
  0266  2a 00 00     ld hl,(0000h)
  0269  01 01 00     ld bc,0001h
  026c  09           add hl,bc
  026d  7e           ld a,(hl)
  026e  4f           ld c,a
  026f  87           add a,a
  0270  9f           sbc a,a
  0271  47           ld b,a
  0272  c5           push bc
  0273  21 0e 00     ld hl,000eh
  0276  e5           push hl
  0277  cd 00 00     call 0000h
  027a  f1           pop af
  027b  f1           pop af
  027c  2a 00 00     ld hl,(0000h)
  027f  e5           push hl
  0280  21 10 00     ld hl,0010h
  0283  e5           push hl
  0284  cd 00 00     call 0000h
  0287  f1           pop af
  0288  f1           pop af
  0289  2a 00 00     ld hl,(0000h)
  028c  7e           ld a,(hl)
  028d  e6 cf        and cfh
  028f  77           ld (hl),a
  0290  c3 f9 02     jp 02f9h
  0293  2a 00 00     ld hl,(0000h)
  0296  01 01 00     ld bc,0001h
  0299  09           add hl,bc
  029a  7e           ld a,(hl)
  029b  4f           ld c,a
  029c  87           add a,a
  029d  9f           sbc a,a
  029e  47           ld b,a
  029f  c5           push bc
  02a0  21 0e 00     ld hl,000eh
  02a3  e5           push hl
  02a4  cd 00 00     call 0000h
  02a7  f1           pop af
  02a8  f1           pop af
  02a9  2a 00 00     ld hl,(0000h)
  02ac  01 2a 00     ld bc,002ah
  02af  09           add hl,bc
  02b0  e5           push hl
  02b1  21 1a 00     ld hl,001ah
  02b4  e5           push hl
  02b5  cd 00 00     call 0000h
  02b8  f1           pop af
  02b9  f1           pop af
  02ba  2a 00 00     ld hl,(0000h)
  02bd  e5           push hl
  02be  21 15 00     ld hl,0015h
  02c1  e5           push hl
  02c2  cd 00 00     call 0000h
  02c5  f1           pop af
  02c6  f1           pop af
  02c7  69           ld l,c
  02c8  60           ld h,b
  02c9  22 00 00     ld (0000h),hl
  02cc  21 80 00     ld hl,0080h
  02cf  e5           push hl
  02d0  21 1a 00     ld hl,001ah
  02d3  e5           push hl
  02d4  cd 00 00     call 0000h
  02d7  f1           pop af
  02d8  f1           pop af
  02d9  21 00 00     ld hl,0000h
  02dc  7e           ld a,(hl)
  02dd  23           inc hl
  02de  b6           or (hl)
  02df  ca e8 02     jp z,02e8h
  02e2  01 ff ff     ld bc,ffffh
  02e5  c3 00 00     jp 0000h
  02e8  2a 00 00     ld hl,(0000h)
  02eb  7e           ld a,(hl)
  02ec  e6 fd        and fdh
  02ee  77           ld (hl),a
  02ef  2a 00 00     ld hl,(0000h)
  02f2  7e           ld a,(hl)
  02f3  f6 10        or 10h
  02f5  77           ld (hl),a
  02f6  c3 4e 02     jp 024eh
  02f9  01 00 00     ld bc,0000h
  02fc  c3 00 00     jp 0000h
__setex:
  02ff  cd 00 00     call 0000h
  0302  21 04 00     ld hl,0004h
  0305  19           add hl,de
  0306  7e           ld a,(hl)
  0307  23           inc hl
  0308  66           ld h,(hl)
  0309  6f           ld l,a
  030a  22 00 00     ld (0000h),hl
  030d  2a 00 00     ld hl,(0000h)
  0310  01 02 00     ld bc,0002h
  0313  09           add hl,bc
  0314  7e           ld a,(hl)
  0315  23           inc hl
  0316  66           ld h,(hl)
  0317  6f           ld l,a
  0318  22 00 00     ld (0000h),hl
  031b  21 06 00     ld hl,0006h
  031e  19           add hl,de
  031f  4e           ld c,(hl)
  0320  23           inc hl
  0321  46           ld b,(hl)
  0322  c5           push bc
  0323  21 07 00     ld hl,0007h
  0326  e5           push hl
  0327  cd 00 00     call 0000h
  032a  e1           pop hl
  032b  22 00 00     ld (0000h),hl
  032e  2a 00 00     ld hl,(0000h)
  0331  01 0c 00     ld bc,__rdwr
  0334  09           add hl,bc
  0335  7e           ld a,(hl)
  0336  4f           ld c,a
  0337  87           add a,a
  0338  9f           sbc a,a
  0339  47           ld b,a
  033a  3a 00 00     ld a,(0000h)
  033d  b9           cp c
  033e  c2 45 03     jp nz,0345h
  0341  3a 01 00     ld a,(0001h)
  0344  b8           cp b
  0345  c2 56 03     jp nz,0356h
  0348  2a 00 00     ld hl,(0000h)
  034b  7e           ld a,(hl)
  034c  4f           ld c,a
  034d  87           add a,a
  034e  9f           sbc a,a
  034f  47           ld b,a
  0350  79           ld a,c
  0351  e6 20        and 20h
  0353  c2 e6 03     jp nz,03e6h
  0356  2a 00 00     ld hl,(0000h)
  0359  01 01 00     ld bc,0001h
  035c  09           add hl,bc
  035d  7e           ld a,(hl)
  035e  4f           ld c,a
  035f  87           add a,a
  0360  9f           sbc a,a
  0361  47           ld b,a
  0362  c5           push bc
  0363  21 0e 00     ld hl,000eh
  0366  e5           push hl
  0367  cd 00 00     call 0000h
  036a  f1           pop af
  036b  f1           pop af
  036c  2a 00 00     ld hl,(0000h)
  036f  7e           ld a,(hl)
  0370  4f           ld c,a
  0371  87           add a,a
  0372  9f           sbc a,a
  0373  47           ld b,a
  0374  79           ld a,c
  0375  e6 10        and 10h
  0377  ca 92 03     jp z,0392h
  037a  2a 00 00     ld hl,(0000h)
  037d  e5           push hl
  037e  21 10 00     ld hl,0010h
  0381  e5           push hl
  0382  cd 00 00     call 0000h
  0385  f1           pop af
  0386  f1           pop af
  0387  78           ld a,b
  0388  b7           or a
  0389  f2 92 03     jp p,0392h
  038c  01 ff ff     ld bc,ffffh
  038f  c3 00 00     jp 0000h
  0392  2a 00 00     ld hl,(0000h)
  0395  7e           ld a,(hl)
  0396  e6 cf        and cfh
  0398  77           ld (hl),a
  0399  2a 00 00     ld hl,(0000h)
  039c  01 0c 00     ld bc,__rdwr
  039f  09           add hl,bc
  03a0  3a 00 00     ld a,(0000h)
  03a3  77           ld (hl),a
  03a4  2a 00 00     ld hl,(0000h)
  03a7  e5           push hl
  03a8  21 0f 00     ld hl,000fh
  03ab  e5           push hl
  03ac  cd 00 00     call 0000h
  03af  f1           pop af
  03b0  f1           pop af
  03b1  78           ld a,b
  03b2  b7           or a
  03b3  f2 df 03     jp p,03dfh
  03b6  21 08 00     ld hl,0008h
  03b9  19           add hl,de
  03ba  7e           ld a,(hl)
  03bb  23           inc hl
  03bc  b6           or (hl)
  03bd  c2 df 03     jp nz,03dfh
  03c0  2a 00 00     ld hl,(0000h)
  03c3  e5           push hl
  03c4  21 16 00     ld hl,0016h
  03c7  e5           push hl
  03c8  cd 00 00     call 0000h
  03cb  f1           pop af
  03cc  f1           pop af
  03cd  78           ld a,b
  03ce  b7           or a
  03cf  f2 df 03     jp p,03dfh
  03d2  2a 00 00     ld hl,(0000h)
  03d5  7e           ld a,(hl)
  03d6  f6 02        or 02h
  03d8  77           ld (hl),a
  03d9  01 ff ff     ld bc,ffffh
  03dc  c3 00 00     jp 0000h
  03df  2a 00 00     ld hl,(0000h)
  03e2  7e           ld a,(hl)
  03e3  f6 20        or 20h
  03e5  77           ld (hl),a
  03e6  2a 00 00     ld hl,(0000h)
  03e9  01 20 00     ld bc,0020h
  03ec  09           add hl,bc
  03ed  e5           push hl
  03ee  21 06 00     ld hl,0006h
  03f1  19           add hl,de
  03f2  7e           ld a,(hl)
  03f3  23           inc hl
  03f4  66           ld h,(hl)
  03f5  6f           ld l,a
  03f6  7d           ld a,l
  03f7  e6 7f        and 7fh
  03f9  6f           ld l,a
  03fa  97           sub a
  03fb  67           ld h,a
  03fc  c1           pop bc
  03fd  7d           ld a,l
  03fe  02           ld (bc),a
  03ff  01 00 00     ld bc,0000h
  0402  c3 00 00     jp 0000h
__clrbuf:
  0405  cd 00 00     call 0000h
  0408  21 04 00     ld hl,0004h
  040b  19           add hl,de
  040c  7e           ld a,(hl)
  040d  23           inc hl
  040e  66           ld h,(hl)
  040f  6f           ld l,a
  0410  22 00 00     ld (0000h),hl
  0413  21 06 00     ld hl,0006h
  0416  19           add hl,de
  0417  7e           ld a,(hl)
  0418  23           inc hl
  0419  66           ld h,(hl)
  041a  6f           ld l,a
  041b  22 00 00     ld (0000h),hl
  041e  3a 00 00     ld a,(0000h)
  0421  d6 01        sub 01h
  0423  32 00 00     ld (0000h),a
  0426  3a 01 00     ld a,(0001h)
  0429  de 00        sbc a,00h
  042b  32 01 00     ld (0001h),a
  042e  fa 40 04     jp m,0440h
  0431  2a 00 00     ld hl,(0000h)
  0434  36 00        ld (hl),00h
  0436  2a 00 00     ld hl,(0000h)
  0439  23           inc hl
  043a  22 00 00     ld (0000h),hl
  043d  c3 1e 04     jp 041eh
  0440  c3 00 00     jp 0000h

Data segment: (empty)

Symbol table: 15 symbols (9-char names)
  Index  Value  Type Seg    Global  Name
  -----  -----  ---- -----  ------  ----
  [  0]  0000   08   ext    yes      c.r4
  [  1]  0000   08   ext    yes      c.r3
  [  2]  0000   08   ext    yes      c.r2
  [  3]  0000   08   ext    yes      c.r0
  [  4]  0000   08   ext    yes      c.switch
  [  5]  0000   08   ext    yes      _cpm
  [  6]  0000   08   ext    yes      c.rets
  [  7]  0000   08   ext    yes      c.ents
  [  8]  0000   08   ext    yes      c.lrsh
  [  9]  0000   08   ext    yes      c.lcpy
  [ 10]  0000   08   ext    yes      c.irsh
  [ 11]  000c   0d   text   yes      __rdwr
  [ 12]  0405   0d   text   yes      __clrbuf
  [ 13]  01f9   0d   text   yes      __wblk
  [ 14]  02ff   0d   text   yes      __setex

Text relocations:
  Offset  Type        Target
  ------  ----        ------
  0000    word        text segment
  0004    word        text segment
  000a    word        text segment
  000d    word        symbol[7]
  0019    word        symbol[0]
  001c    word        symbol[0]
  0027    word        symbol[2]
  002f    word        symbol[2]
  0038    word        symbol[3]
  003b    word        symbol[9]
  003e    word        symbol[3]
  0046    word        symbol[8]
  0053    word        symbol[2]
  0067    word        symbol[1]
  006a    word        symbol[2]
  0076    word        symbol[1]
  0084    word        symbol[2]
  008c    word        symbol[2]
  0094    word        symbol[1]
  00a7    word        text segment
  00af    word        symbol[2]
  00b9    word        text segment
  00c0    word        text segment
  00c6    word        symbol[6]
  00cd    word        symbol[0]
  00d1    word        text segment
  00d8    word        text segment
  00eb    word        symbol[0]
  00ef    word        text segment
  00f7    word        text segment
  00fd    word        symbol[6]
  0100    word        symbol[2]
  010d    word        symbol[2]
  0124    word        text segment
  012a    word        text segment
  0132    word        symbol[1]
  013a    word        symbol[2]
  0144    word        text segment
  014b    word        text segment
  014e    word        symbol[1]
  0153    word        symbol[6]
  0156    word        symbol[2]
  0169    word        symbol[1]
  016f    word        text segment
  0176    word        symbol[2]
  017e    word        text segment
  0186    word        symbol[6]
  0189    word        symbol[0]
  019a    word        symbol[5]
  019f    word        symbol[2]
  01ab    word        symbol[5]
  01b0    word        symbol[2]
  01b8    word        symbol[5]
  01bf    word        symbol[1]
  01ca    word        symbol[5]
  01cf    word        symbol[1]
  01d4    word        text segment
  01d7    word        symbol[4]
  01dd    word        symbol[6]
  01e4    word        symbol[2]
  01ec    word        text segment
  01f4    word        symbol[6]
  01f7    word        symbol[6]
  01fa    word        symbol[7]
  0205    word        symbol[0]
  0208    word        symbol[0]
  0213    word        symbol[2]
  0216    word        symbol[0]
  0221    word        text segment
  0228    word        symbol[2]
  0233    word        symbol[0]
  0237    word        text segment
  0240    word        text segment
  0246    word        text segment
  024c    word        symbol[6]
  0256    word        text segment
  0259    word        symbol[0]
  0264    word        text segment
  0267    word        symbol[0]
  0278    word        symbol[5]
  027d    word        symbol[2]
  0285    word        symbol[5]
  028a    word        symbol[0]
  0291    word        text segment
  0294    word        symbol[0]
  02a5    word        symbol[5]
  02aa    word        symbol[2]
  02b6    word        symbol[5]
  02bb    word        symbol[2]
  02c3    word        symbol[5]
  02ca    word        symbol[1]
  02d5    word        symbol[5]
  02da    word        symbol[1]
  02e0    word        text segment
  02e6    word        symbol[6]
  02e9    word        symbol[0]
  02f0    word        symbol[0]
  02f7    word        text segment
  02fd    word        symbol[6]
  0300    word        symbol[7]
  030b    word        symbol[0]
  030e    word        symbol[0]
  0319    word        symbol[1]
  0328    word        symbol[10]
  032c    word        symbol[2]
  032f    word        symbol[1]
  033b    word        symbol[2]
  033f    word        text segment
  0342    word        symbol[2]
  0346    word        text segment
  0349    word        symbol[0]
  0354    word        text segment
  0357    word        symbol[0]
  0368    word        symbol[5]
  036d    word        symbol[0]
  0378    word        text segment
  037b    word        symbol[1]
  0383    word        symbol[5]
  038a    word        text segment
  0390    word        symbol[6]
  0393    word        symbol[0]
  039a    word        symbol[1]
  03a1    word        symbol[2]
  03a5    word        symbol[1]
  03ad    word        symbol[5]
  03b4    word        text segment
  03be    word        text segment
  03c1    word        symbol[1]
  03c9    word        symbol[5]
  03d0    word        text segment
  03d3    word        symbol[0]
  03dd    word        symbol[6]
  03e0    word        symbol[0]
  03e7    word        symbol[1]
  0403    word        symbol[6]
  0406    word        symbol[7]
  0411    word        symbol[0]
  041c    word        symbol[2]
  041f    word        symbol[2]
  0424    word        symbol[2]
  0427    word        symbol[2]
  042c    word        symbol[2]
  042f    word        text segment
  0432    word        symbol[0]
  0437    word        symbol[0]
  043b    word        symbol[0]
  043e    word        text segment
  0441    word        symbol[6]

Data relocations:
  Offset  Type        Target
  ------  ----        ------
  (none)

