=== lib/libp/pxcrop.o ===

Header:
  Magic:       0x99
  Config:      0x14 little-endian
  Symlen:      9 chars
  Symtab:      240 bytes (20 symbols)
  Text:        818 bytes
  Data:        16 bytes
  BSS:         0 bytes
  Heap:        0 bytes
  Text offset: 0x0000
  Data offset: 0x0332

Disassembly: 818 bytes
  0000  cd 00 00     call 0000h
  0003  21 ff ff     ld hl,ffffh
  0006  e5           push hl
  0007  21 00 00     ld hl,0000h
  000a  e5           push hl
  000b  cd 00 00     call 0000h
  000e  f1           pop af
  000f  f1           pop af
  0010  2a 32 03     ld hl,(0332h)
  0013  4d           ld c,l
  0014  44           ld b,h
  0015  c3 00 00     jp 0000h
  0018  63           ld h,e
  0019  61           ld h,c
  001a  6e           ld l,(hl)
  001b  27           daa
  001c  74           ld (hl),h
  001d  20 72        jr nz,0091h
  001f  65           ld h,l
  0020  61           ld h,c
  0021  64           ld h,h
  0022  20 66        jr nz,008ah
  0024  69           ld l,c
  0025  6c           ld l,h
  0026  65           ld h,l
  0027  00           nop
_p_rset:
  0028  cd 00 00     call 0000h
  002b  f5           push af
  002c  21 00 00     ld hl,0000h
  002f  e5           push hl
  0030  21 04 00     ld hl,0004h
  0033  19           add hl,de
  0034  4e           ld c,(hl)
  0035  23           inc hl
  0036  46           ld b,(hl)
  0037  c5           push bc
  0038  cd 00 00     call 0000h
  003b  f1           pop af
  003c  f1           pop af
  003d  69           ld l,c
  003e  60           ld h,b
  003f  22 00 00     ld (0000h),hl
  0042  21 00 00     ld hl,0000h
  0045  7e           ld a,(hl)
  0046  23           inc hl
  0047  b6           or (hl)
  0048  ca 6a 00     jp z,006ah
  004b  2a 00 00     ld hl,(0000h)
  004e  01 05 00     ld bc,0005h
  0051  09           add hl,bc
  0052  7e           ld a,(hl)
  0053  e6 7f        and 7fh
  0055  77           ld (hl),a
  0056  21 01 00     ld hl,0001h
  0059  e5           push hl
  005a  21 04 00     ld hl,0004h
  005d  19           add hl,de
  005e  4e           ld c,(hl)
  005f  23           inc hl
  0060  46           ld b,(hl)
  0061  c5           push bc
  0062  cd 00 00     call 0000h
  0065  f1           pop af
  0066  f1           pop af
  0067  c3 7c 00     jp 007ch
  006a  21 34 03     ld hl,0334h
  006d  e5           push hl
  006e  21 00 00     ld hl,0000h
  0071  e5           push hl
  0072  cd 00 00     call 0000h
  0075  f1           pop af
  0076  f1           pop af
  0077  69           ld l,c
  0078  60           ld h,b
  0079  22 00 00     ld (0000h),hl
  007c  2a 00 00     ld hl,(0000h)
  007f  e5           push hl
  0080  21 04 00     ld hl,0004h
  0083  19           add hl,de
  0084  c1           pop bc
  0085  7e           ld a,(hl)
  0086  02           ld (bc),a
  0087  23           inc hl
  0088  7e           ld a,(hl)
  0089  03           inc bc
  008a  02           ld (bc),a
  008b  2a 00 00     ld hl,(0000h)
  008e  01 02 00     ld bc,0002h
  0091  09           add hl,bc
  0092  e5           push hl
  0093  21 06 00     ld hl,0006h
  0096  19           add hl,de
  0097  c1           pop bc
  0098  7e           ld a,(hl)
  0099  02           ld (bc),a
  009a  23           inc hl
  009b  7e           ld a,(hl)
  009c  03           inc bc
  009d  02           ld (bc),a
  009e  97           sub a
  009f  32 00 00     ld (0000h),a
  00a2  32 01 00     ld (0001h),a
  00a5  21 f8 ff     ld hl,fff8h
  00a8  19           add hl,de
  00a9  e5           push hl
  00aa  21 04 00     ld hl,0004h
  00ad  19           add hl,de
  00ae  4e           ld c,(hl)
  00af  23           inc hl
  00b0  46           ld b,(hl)
  00b1  c5           push bc
  00b2  cd a1 02     call _p_pnam
  00b5  f1           pop af
  00b6  e1           pop hl
  00b7  79           ld a,c
  00b8  77           ld (hl),a
  00b9  78           ld a,b
  00ba  23           inc hl
  00bb  77           ld (hl),a
  00bc  2b           dec hl
  00bd  7e           ld a,(hl)
  00be  23           inc hl
  00bf  b6           or (hl)
  00c0  c2 dc 00     jp nz,00dch
  00c3  21 f8 ff     ld hl,fff8h
  00c6  19           add hl,de
  00c7  e5           push hl
  00c8  2a 00 00     ld hl,(0000h)
  00cb  e5           push hl
  00cc  cd 00 00     call 0000h
  00cf  f1           pop af
  00d0  e1           pop hl
  00d1  79           ld a,c
  00d2  77           ld (hl),a
  00d3  78           ld a,b
  00d4  23           inc hl
  00d5  77           ld (hl),a
  00d6  21 80 00     ld hl,0080h
  00d9  22 00 00     ld (0000h),hl
  00dc  2a 00 00     ld hl,(0000h)
  00df  01 02 00     ld bc,0002h
  00e2  09           add hl,bc
  00e3  4e           ld c,(hl)
  00e4  23           inc hl
  00e5  46           ld b,(hl)
  00e6  c5           push bc
  00e7  21 00 00     ld hl,0000h
  00ea  e5           push hl
  00eb  21 f8 ff     ld hl,fff8h
  00ee  19           add hl,de
  00ef  4e           ld c,(hl)
  00f0  23           inc hl
  00f1  46           ld b,(hl)
  00f2  c5           push bc
  00f3  cd 00 00     call 0000h
  00f6  f1           pop af
  00f7  f1           pop af
  00f8  f1           pop af
  00f9  69           ld l,c
  00fa  60           ld h,b
  00fb  22 00 00     ld (0000h),hl
  00fe  3a 01 00     ld a,(0001h)
  0101  b7           or a
  0102  fa 11 01     jp m,0111h
  0105  2a 00 00     ld hl,(0000h)
  0108  01 04 00     ld bc,0004h
  010b  09           add hl,bc
  010c  36 02        ld (hl),02h
  010e  c3 37 01     jp 0137h
  0111  21 00 00     ld hl,0000h
  0114  7e           ld a,(hl)
  0115  23           inc hl
  0116  b6           or (hl)
  0117  c2 2e 01     jp nz,012eh
  011a  21 18 00     ld hl,0018h
  011d  e5           push hl
  011e  21 f8 ff     ld hl,fff8h
  0121  19           add hl,de
  0122  4e           ld c,(hl)
  0123  23           inc hl
  0124  46           ld b,(hl)
  0125  c5           push bc
  0126  cd 00 00     call 0000h
  0129  f1           pop af
  012a  f1           pop af
  012b  c3 37 01     jp 0137h
  012e  2a 00 00     ld hl,(0000h)
  0131  01 04 00     ld bc,0004h
  0134  09           add hl,bc
  0135  36 00        ld (hl),00h
  0137  2a 00 00     ld hl,(0000h)
  013a  01 05 00     ld bc,0005h
  013d  09           add hl,bc
  013e  3a 00 00     ld a,(0000h)
  0141  77           ld (hl),a
  0142  21 00 00     ld hl,0000h
  0145  7e           ld a,(hl)
  0146  23           inc hl
  0147  b6           or (hl)
  0148  ca 56 01     jp z,0156h
  014b  2a 00 00     ld hl,(0000h)
  014e  01 05 00     ld bc,0005h
  0151  09           add hl,bc
  0152  7e           ld a,(hl)
  0153  f6 80        or 80h
  0155  77           ld (hl),a
  0156  21 32 03     ld hl,0332h
  0159  7e           ld a,(hl)
  015a  23           inc hl
  015b  b6           or (hl)
  015c  c2 6c 01     jp nz,016ch
  015f  21 00 00     ld hl,0000h
  0162  e5           push hl
  0163  cd 00 00     call 0000h
  0166  f1           pop af
  0167  69           ld l,c
  0168  60           ld h,b
  0169  22 32 03     ld (0332h),hl
  016c  c3 00 00     jp 0000h
  016f  63           ld h,e
  0170  61           ld h,c
  0171  6e           ld l,(hl)
  0172  27           daa
  0173  74           ld (hl),h
  0174  20 77        jr nz,01edh
  0176  72           ld (hl),d
  0177  69           ld l,c
  0178  74           ld (hl),h
  0179  65           ld h,l
  017a  20 66        jr nz,01e2h
  017c  69           ld l,c
  017d  6c           ld l,h
  017e  65           ld h,l
  017f  00           nop
_p_rwri:
  0180  cd 00 00     call 0000h
  0183  f5           push af
  0184  21 00 00     ld hl,0000h
  0187  e5           push hl
  0188  21 04 00     ld hl,0004h
  018b  19           add hl,de
  018c  4e           ld c,(hl)
  018d  23           inc hl
  018e  46           ld b,(hl)
  018f  c5           push bc
  0190  cd 00 00     call 0000h
  0193  f1           pop af
  0194  f1           pop af
  0195  69           ld l,c
  0196  60           ld h,b
  0197  22 00 00     ld (0000h),hl
  019a  21 00 00     ld hl,0000h
  019d  7e           ld a,(hl)
  019e  23           inc hl
  019f  b6           or (hl)
  01a0  ca b9 01     jp z,01b9h
  01a3  21 01 00     ld hl,0001h
  01a6  e5           push hl
  01a7  21 04 00     ld hl,0004h
  01aa  19           add hl,de
  01ab  4e           ld c,(hl)
  01ac  23           inc hl
  01ad  46           ld b,(hl)
  01ae  c5           push bc
  01af  cd 00 00     call 0000h
  01b2  f1           pop af
  01b3  f1           pop af
  01b4  69           ld l,c
  01b5  60           ld h,b
  01b6  22 00 00     ld (0000h),hl
  01b9  21 3a 03     ld hl,033ah
  01bc  e5           push hl
  01bd  21 00 00     ld hl,0000h
  01c0  e5           push hl
  01c1  cd 00 00     call 0000h
  01c4  f1           pop af
  01c5  f1           pop af
  01c6  69           ld l,c
  01c7  60           ld h,b
  01c8  22 00 00     ld (0000h),hl
  01cb  2a 00 00     ld hl,(0000h)
  01ce  e5           push hl
  01cf  21 04 00     ld hl,0004h
  01d2  19           add hl,de
  01d3  c1           pop bc
  01d4  7e           ld a,(hl)
  01d5  02           ld (bc),a
  01d6  23           inc hl
  01d7  7e           ld a,(hl)
  01d8  03           inc bc
  01d9  02           ld (bc),a
  01da  2a 00 00     ld hl,(0000h)
  01dd  01 02 00     ld bc,0002h
  01e0  09           add hl,bc
  01e1  e5           push hl
  01e2  21 06 00     ld hl,0006h
  01e5  19           add hl,de
  01e6  c1           pop bc
  01e7  7e           ld a,(hl)
  01e8  02           ld (bc),a
  01e9  23           inc hl
  01ea  7e           ld a,(hl)
  01eb  03           inc bc
  01ec  02           ld (bc),a
  01ed  97           sub a
  01ee  32 00 00     ld (0000h),a
  01f1  32 01 00     ld (0001h),a
  01f4  21 f8 ff     ld hl,fff8h
  01f7  19           add hl,de
  01f8  e5           push hl
  01f9  21 04 00     ld hl,0004h
  01fc  19           add hl,de
  01fd  4e           ld c,(hl)
  01fe  23           inc hl
  01ff  46           ld b,(hl)
  0200  c5           push bc
  0201  cd a1 02     call _p_pnam
  0204  f1           pop af
  0205  e1           pop hl
  0206  79           ld a,c
  0207  77           ld (hl),a
  0208  78           ld a,b
  0209  23           inc hl
  020a  77           ld (hl),a
  020b  2b           dec hl
  020c  7e           ld a,(hl)
  020d  23           inc hl
  020e  b6           or (hl)
  020f  c2 2b 02     jp nz,022bh
  0212  21 f8 ff     ld hl,fff8h
  0215  19           add hl,de
  0216  e5           push hl
  0217  2a 00 00     ld hl,(0000h)
  021a  e5           push hl
  021b  cd 00 00     call 0000h
  021e  f1           pop af
  021f  e1           pop hl
  0220  79           ld a,c
  0221  77           ld (hl),a
  0222  78           ld a,b
  0223  23           inc hl
  0224  77           ld (hl),a
  0225  21 80 00     ld hl,0080h
  0228  22 00 00     ld (0000h),hl
  022b  2a 00 00     ld hl,(0000h)
  022e  01 02 00     ld bc,0002h
  0231  09           add hl,bc
  0232  4e           ld c,(hl)
  0233  23           inc hl
  0234  46           ld b,(hl)
  0235  c5           push bc
  0236  21 01 00     ld hl,0001h
  0239  e5           push hl
  023a  21 f8 ff     ld hl,fff8h
  023d  19           add hl,de
  023e  4e           ld c,(hl)
  023f  23           inc hl
  0240  46           ld b,(hl)
  0241  c5           push bc
  0242  cd 00 00     call 0000h
  0245  f1           pop af
  0246  f1           pop af
  0247  f1           pop af
  0248  69           ld l,c
  0249  60           ld h,b
  024a  22 00 00     ld (0000h),hl
  024d  3a 01 00     ld a,(0001h)
  0250  b7           or a
  0251  f2 65 02     jp p,0265h
  0254  21 6f 01     ld hl,016fh
  0257  e5           push hl
  0258  21 f8 ff     ld hl,fff8h
  025b  19           add hl,de
  025c  4e           ld c,(hl)
  025d  23           inc hl
  025e  46           ld b,(hl)
  025f  c5           push bc
  0260  cd 00 00     call 0000h
  0263  f1           pop af
  0264  f1           pop af
  0265  2a 00 00     ld hl,(0000h)
  0268  01 05 00     ld bc,0005h
  026b  09           add hl,bc
  026c  e5           push hl
  026d  2a 00 00     ld hl,(0000h)
  0270  e5           push hl
  0271  21 00 00     ld hl,0000h
  0274  c1           pop bc
  0275  79           ld a,c
  0276  b6           or (hl)
  0277  4f           ld c,a
  0278  78           ld a,b
  0279  23           inc hl
  027a  b6           or (hl)
  027b  47           ld b,a
  027c  e1           pop hl
  027d  79           ld a,c
  027e  77           ld (hl),a
  027f  2a 00 00     ld hl,(0000h)
  0282  01 04 00     ld bc,0004h
  0285  09           add hl,bc
  0286  36 04        ld (hl),04h
  0288  21 32 03     ld hl,0332h
  028b  7e           ld a,(hl)
  028c  23           inc hl
  028d  b6           or (hl)
  028e  c2 9e 02     jp nz,029eh
  0291  21 00 00     ld hl,0000h
  0294  e5           push hl
  0295  cd 00 00     call 0000h
  0298  f1           pop af
  0299  69           ld l,c
  029a  60           ld h,b
  029b  22 32 03     ld (0332h),hl
  029e  c3 00 00     jp 0000h
_p_pnam:
  02a1  cd 00 00     call 0000h
  02a4  97           sub a
  02a5  32 00 00     ld (0000h),a
  02a8  32 01 00     ld (0001h),a
  02ab  2a 00 00     ld hl,(0000h)
  02ae  29           add hl,hl
  02af  29           add hl,hl
  02b0  01 00 00     ld bc,0000h
  02b3  09           add hl,bc
  02b4  7e           ld a,(hl)
  02b5  23           inc hl
  02b6  b6           or (hl)
  02b7  ca d5 02     jp z,02d5h
  02ba  2a 00 00     ld hl,(0000h)
  02bd  29           add hl,hl
  02be  29           add hl,hl
  02bf  01 00 00     ld bc,0000h
  02c2  09           add hl,bc
  02c3  e5           push hl
  02c4  21 04 00     ld hl,0004h
  02c7  19           add hl,de
  02c8  c1           pop bc
  02c9  0a           ld a,(bc)
  02ca  be           cp (hl)
  02cb  c2 d2 02     jp nz,02d2h
  02ce  03           inc bc
  02cf  0a           ld a,(bc)
  02d0  23           inc hl
  02d1  be           cp (hl)
  02d2  c2 ea 02     jp nz,02eah
  02d5  2a 00 00     ld hl,(0000h)
  02d8  29           add hl,hl
  02d9  29           add hl,hl
  02da  01 00 00     ld bc,0000h
  02dd  09           add hl,bc
  02de  7e           ld a,(hl)
  02df  23           inc hl
  02e0  b6           or (hl)
  02e1  c2 f4 02     jp nz,02f4h
  02e4  01 00 00     ld bc,0000h
  02e7  c3 00 00     jp 0000h
  02ea  2a 00 00     ld hl,(0000h)
  02ed  23           inc hl
  02ee  22 00 00     ld (0000h),hl
  02f1  c3 ab 02     jp 02abh
  02f4  2a 00 00     ld hl,(0000h)
  02f7  01 01 00     ld bc,0001h
  02fa  09           add hl,bc
  02fb  e5           push hl
  02fc  21 00 00     ld hl,0000h
  02ff  c1           pop bc
  0300  79           ld a,c
  0301  96           sub (hl)
  0302  78           ld a,b
  0303  23           inc hl
  0304  9e           sbc a,(hl)
  0305  d2 20 03     jp nc,0320h
  0308  2a 00 00     ld hl,(0000h)
  030b  01 01 00     ld bc,0001h
  030e  09           add hl,bc
  030f  29           add hl,hl
  0310  e5           push hl
  0311  2a 00 00     ld hl,(0000h)
  0314  e3           ex (sp),hl
  0315  c1           pop bc
  0316  09           add hl,bc
  0317  7e           ld a,(hl)
  0318  23           inc hl
  0319  66           ld h,(hl)
  031a  6f           ld l,a
  031b  4d           ld c,l
  031c  44           ld b,h
  031d  c3 00 00     jp 0000h
  0320  2a 00 00     ld hl,(0000h)
  0323  29           add hl,hl
  0324  29           add hl,hl
  0325  01 02 00     ld bc,0002h
  0328  09           add hl,bc
  0329  7e           ld a,(hl)
  032a  23           inc hl
  032b  66           ld h,(hl)
  032c  6f           ld l,a
  032d  4d           ld c,l
  032e  44           ld b,h
  032f  c3 00 00     jp 0000h

Data segment: 16 bytes
  0000: 00 00 72 65 73 65 74 00  72 65 77 72 69 74 65 00  |..reset.rewrite.|

Symbol table: 20 symbols (9-char names)
  Index  Value  Type Seg    Global  Name
  -----  -----  ---- -----  ------  ----
  [  0]  0000   08   ext    yes      _argc
  [  1]  0000   08   ext    yes      c.r4
  [  2]  0000   08   ext    yes      _onexit
  [  3]  0000   08   ext    yes      c.r3
  [  4]  0000   08   ext    yes      c.r2
  [  5]  0000   08   ext    yes      _p_unam
  [  6]  0000   08   ext    yes      c.ret
  [  7]  0000   08   ext    yes      __pargs
  [  8]  0000   08   ext    yes      c.ent
  [  9]  0000   08   ext    yes      _create
  [ 10]  0000   08   ext    yes      _open
  [ 11]  0000   08   ext    yes      _argv
  [ 12]  0000   08   ext    yes      c.rets
  [ 13]  0000   08   ext    yes      c.ents
  [ 14]  0000   08   ext    yes      _p_abort
  [ 15]  0000   08   ext    yes      _p_ckfd
  [ 16]  0000   08   ext    yes      _p_close
  [ 17]  0180   0d   text   yes      _p_rwri
  [ 18]  0028   0d   text   yes      _p_rset
  [ 19]  02a1   0d   text   yes      _p_pnam

Text relocations:
  Offset  Type        Target
  ------  ----        ------
  0001    word        symbol[8]
  000c    word        symbol[16]
  0011    word        data segment
  0016    word        symbol[6]
  0029    word        symbol[13]
  0039    word        symbol[15]
  0040    word        symbol[3]
  0043    word        symbol[3]
  0049    word        text segment
  004c    word        symbol[3]
  0063    word        symbol[16]
  0068    word        text segment
  006b    word        data segment
  0073    word        symbol[15]
  007a    word        symbol[3]
  007d    word        symbol[3]
  008c    word        symbol[3]
  00a0    word        symbol[1]
  00a3    word        symbol[1]
  00b3    word        text segment
  00c1    word        text segment
  00c9    word        symbol[3]
  00cd    word        symbol[5]
  00da    word        symbol[1]
  00dd    word        symbol[3]
  00f4    word        symbol[10]
  00fc    word        symbol[4]
  00ff    word        symbol[4]
  0103    word        text segment
  0106    word        symbol[3]
  010f    word        text segment
  0112    word        symbol[1]
  0118    word        text segment
  011b    word        text segment
  0127    word        symbol[14]
  012c    word        text segment
  012f    word        symbol[3]
  0138    word        symbol[3]
  013f    word        symbol[4]
  0143    word        symbol[1]
  0149    word        text segment
  014c    word        symbol[3]
  0157    word        data segment
  015d    word        text segment
  0160    word        text segment
  0164    word        symbol[2]
  016a    word        data segment
  016d    word        symbol[12]
  0181    word        symbol[13]
  0191    word        symbol[15]
  0198    word        symbol[3]
  019b    word        symbol[3]
  01a1    word        text segment
  01b0    word        symbol[16]
  01b7    word        symbol[3]
  01ba    word        data segment
  01c2    word        symbol[15]
  01c9    word        symbol[3]
  01cc    word        symbol[3]
  01db    word        symbol[3]
  01ef    word        symbol[1]
  01f2    word        symbol[1]
  0202    word        text segment
  0210    word        text segment
  0218    word        symbol[3]
  021c    word        symbol[5]
  0229    word        symbol[1]
  022c    word        symbol[3]
  0243    word        symbol[9]
  024b    word        symbol[4]
  024e    word        symbol[4]
  0252    word        text segment
  0255    word        text segment
  0261    word        symbol[14]
  0266    word        symbol[3]
  026e    word        symbol[4]
  0272    word        symbol[1]
  0280    word        symbol[3]
  0289    word        data segment
  028f    word        text segment
  0292    word        text segment
  0296    word        symbol[2]
  029c    word        data segment
  029f    word        symbol[12]
  02a2    word        symbol[13]
  02a6    word        symbol[1]
  02a9    word        symbol[1]
  02ac    word        symbol[1]
  02b1    word        symbol[7]
  02b8    word        text segment
  02bb    word        symbol[1]
  02c0    word        symbol[7]
  02cc    word        text segment
  02d3    word        text segment
  02d6    word        symbol[1]
  02db    word        symbol[7]
  02e2    word        text segment
  02e8    word        symbol[12]
  02eb    word        symbol[1]
  02ef    word        symbol[1]
  02f2    word        text segment
  02f5    word        symbol[1]
  02fd    word        symbol[0]
  0306    word        text segment
  0309    word        symbol[1]
  0312    word        symbol[11]
  031e    word        symbol[12]
  0321    word        symbol[1]
  0326    word        symbol[7]
  0330    word        symbol[12]

Data relocations:
  Offset  Type        Target
  ------  ----        ------
  (none)

