=== lib/libp/pxfill.o ===

Header:
  Magic:       0x99
  Config:      0x14 little-endian
  Symlen:      9 chars
  Symtab:      168 bytes (14 symbols)
  Text:        399 bytes
  Data:        6 bytes
  BSS:         0 bytes
  Heap:        0 bytes
  Text offset: 0x0000
  Data offset: 0x018f

Disassembly: 399 bytes
_p_fill:
  0000  cd 00 00     call _p_fill
  0003  21 8f 01     ld hl,018fh
  0006  e5           push hl
  0007  21 04 00     ld hl,0004h
  000a  19           add hl,de
  000b  4e           ld c,(hl)
  000c  23           inc hl
  000d  46           ld b,(hl)
  000e  c5           push bc
  000f  cd 00 00     call _p_fill
  0012  f1           pop af
  0013  f1           pop af
  0014  c5           push bc
  0015  cd 31 00     call _p_load
  0018  f1           pop af
  0019  21 04 00     ld hl,0004h
  001c  19           add hl,de
  001d  7e           ld a,(hl)
  001e  23           inc hl
  001f  66           ld h,(hl)
  0020  6f           ld l,a
  0021  4d           ld c,l
  0022  44           ld b,h
  0023  c3 00 00     jp _p_fill
  0026  72           ld (hl),d
  0027  65           ld h,l
  0028  61           ld h,c
  0029  64           ld h,h
  002a  20 65        jr nz,0091h
  002c  72           ld (hl),d
  002d  72           ld (hl),d
  002e  6f           ld l,a
  002f  72           ld (hl),d
  0030  00           nop
_p_load:
  0031  cd 00 00     call _p_fill
  0034  21 04 00     ld hl,0004h
  0037  19           add hl,de
  0038  7e           ld a,(hl)
  0039  23           inc hl
  003a  66           ld h,(hl)
  003b  6f           ld l,a
  003c  22 00 00     ld (_p_fill),hl
  003f  2a 00 00     ld hl,(_p_fill)
  0042  01 04 00     ld bc,0004h
  0045  09           add hl,bc
  0046  7e           ld a,(hl)
  0047  fe 02        cp 02h
  0049  c2 aa 00     jp nz,00aah
  004c  2a 00 00     ld hl,(_p_fill)
  004f  01 02 00     ld bc,0002h
  0052  09           add hl,bc
  0053  7e           ld a,(hl)
  0054  23           inc hl
  0055  b6           or (hl)
  0056  ca 66 00     jp z,0066h
  0059  2a 00 00     ld hl,(_p_fill)
  005c  01 02 00     ld bc,0002h
  005f  09           add hl,bc
  0060  4e           ld c,(hl)
  0061  23           inc hl
  0062  46           ld b,(hl)
  0063  c3 69 00     jp 0069h
  0066  01 01 00     ld bc,0001h
  0069  69           ld l,c
  006a  60           ld h,b
  006b  22 00 00     ld (_p_fill),hl
  006e  2a 00 00     ld hl,(_p_fill)
  0071  e5           push hl
  0072  2a 00 00     ld hl,(_p_fill)
  0075  4e           ld c,(hl)
  0076  23           inc hl
  0077  46           ld b,(hl)
  0078  c5           push bc
  0079  2a 00 00     ld hl,(_p_fill)
  007c  01 05 00     ld bc,0005h
  007f  09           add hl,bc
  0080  7e           ld a,(hl)
  0081  4f           ld c,a
  0082  97           sub a
  0083  47           ld b,a
  0084  79           ld a,c
  0085  e6 7f        and 7fh
  0087  4f           ld c,a
  0088  78           ld a,b
  0089  e6 ff        and ffh
  008b  47           ld b,a
  008c  c5           push bc
  008d  cd 00 00     call _p_fill
  0090  f1           pop af
  0091  f1           pop af
  0092  f1           pop af
  0093  69           ld l,c
  0094  60           ld h,b
  0095  22 00 00     ld (_p_fill),hl
  0098  21 00 00     ld hl,_p_fill
  009b  7e           ld a,(hl)
  009c  23           inc hl
  009d  b6           or (hl)
  009e  c2 ad 00     jp nz,00adh
  00a1  2a 00 00     ld hl,(_p_fill)
  00a4  01 04 00     ld bc,0004h
  00a7  09           add hl,bc
  00a8  36 00        ld (hl),00h
  00aa  c3 00 00     jp _p_fill
  00ad  21 00 00     ld hl,_p_fill
  00b0  3a 00 00     ld a,(_p_fill)
  00b3  be           cp (hl)
  00b4  c2 bc 00     jp nz,00bch
  00b7  3a 01 00     ld a,(0001h)
  00ba  23           inc hl
  00bb  be           cp (hl)
  00bc  ca cf 00     jp z,00cfh
  00bf  21 26 00     ld hl,0026h
  00c2  e5           push hl
  00c3  21 8f 01     ld hl,018fh
  00c6  e5           push hl
  00c7  cd 00 00     call _p_fill
  00ca  f1           pop af
  00cb  f1           pop af
  00cc  c3 aa 00     jp 00aah
  00cf  2a 00 00     ld hl,(_p_fill)
  00d2  01 02 00     ld bc,0002h
  00d5  09           add hl,bc
  00d6  7e           ld a,(hl)
  00d7  23           inc hl
  00d8  b6           or (hl)
  00d9  c2 e9 00     jp nz,00e9h
  00dc  2a 00 00     ld hl,(_p_fill)
  00df  7e           ld a,(hl)
  00e0  23           inc hl
  00e1  66           ld h,(hl)
  00e2  6f           ld l,a
  00e3  7e           ld a,(hl)
  00e4  fe 0a        cp 0ah
  00e6  ca f5 00     jp z,00f5h
  00e9  2a 00 00     ld hl,(_p_fill)
  00ec  01 04 00     ld bc,0004h
  00ef  09           add hl,bc
  00f0  36 03        ld (hl),03h
  00f2  c3 aa 00     jp 00aah
  00f5  2a 00 00     ld hl,(_p_fill)
  00f8  01 04 00     ld bc,0004h
  00fb  09           add hl,bc
  00fc  36 01        ld (hl),01h
  00fe  2a 00 00     ld hl,(_p_fill)
  0101  7e           ld a,(hl)
  0102  23           inc hl
  0103  66           ld h,(hl)
  0104  6f           ld l,a
  0105  36 20        ld (hl),20h
  0107  c3 aa 00     jp 00aah
  010a  75           ld (hl),l
  010b  01 02 00     ld bc,0002h
  010e  68           ld l,b
  010f  01 05 00     ld bc,0005h
  0112  68           ld l,b
  0113  01 04 00     ld bc,0004h
  0116  5b           ld e,e
  0117  01 00 00     ld bc,_p_fill
  011a  00           nop
  011b  00           nop
  011c  83           add a,e
  011d  01 6e 6f     ld bc,6f6eh
  0120  74           ld (hl),h
  0121  20 72        jr nz,0195h
  0123  65           ld h,l
  0124  61           ld h,c
  0125  64           ld h,h
  0126  61           ld h,c
  0127  62           ld h,d
  0128  6c           ld l,h
  0129  65           ld h,l
  012a  20 66        jr nz,0192h
  012c  69           ld l,c
  012d  6c           ld l,h
  012e  65           ld h,l
  012f  00           nop
  0130  65           ld h,l
  0131  6e           ld l,(hl)
  0132  64           ld h,h
  0133  20 6f        jr nz,01a4h
  0135  66           ld h,(hl)
  0136  20 66        jr nz,019eh
  0138  69           ld l,c
  0139  6c           ld l,h
  013a  65           ld h,l
  013b  00           nop
_p_read:
  013c  cd 00 00     call _p_fill
  013f  21 04 00     ld hl,0004h
  0142  19           add hl,de
  0143  7e           ld a,(hl)
  0144  23           inc hl
  0145  66           ld h,(hl)
  0146  6f           ld l,a
  0147  22 00 00     ld (_p_fill),hl
  014a  2a 00 00     ld hl,(_p_fill)
  014d  01 04 00     ld bc,0004h
  0150  09           add hl,bc
  0151  7e           ld a,(hl)
  0152  4f           ld c,a
  0153  97           sub a
  0154  47           ld b,a
  0155  21 0a 01     ld hl,010ah
  0158  c3 00 00     jp _p_fill
  015b  21 30 01     ld hl,0130h
  015e  e5           push hl
  015f  21 8f 01     ld hl,018fh
  0162  e5           push hl
  0163  cd 00 00     call _p_fill
  0166  f1           pop af
  0167  f1           pop af
  0168  21 1e 01     ld hl,011eh
  016b  e5           push hl
  016c  21 8f 01     ld hl,018fh
  016f  e5           push hl
  0170  cd 00 00     call _p_fill
  0173  f1           pop af
  0174  f1           pop af
  0175  2a 00 00     ld hl,(_p_fill)
  0178  e5           push hl
  0179  cd 31 00     call _p_load
  017c  f1           pop af
  017d  c3 4a 01     jp 014ah
  0180  c3 4a 01     jp 014ah
  0183  2a 00 00     ld hl,(_p_fill)
  0186  7e           ld a,(hl)
  0187  23           inc hl
  0188  66           ld h,(hl)
  0189  6f           ld l,a
  018a  4d           ld c,l
  018b  44           ld b,h
  018c  c3 00 00     jp _p_fill

Data segment: 6 bytes
  0000: 66 69 6c 65 5e 00                                 |file^.|

Symbol table: 14 symbols (9-char names)
  Index  Value  Type Seg    Global  Name
  -----  -----  ---- -----  ------  ----
  [  0]  0000   08   ext    yes      c.r4
  [  1]  0000   08   ext    yes      c.r3
  [  2]  0000   08   ext    yes      c.r2
  [  3]  0000   08   ext    yes      c.switch
  [  4]  0000   08   ext    yes      _fread
  [  5]  0000   08   ext    yes      c.ret
  [  6]  0000   08   ext    yes      c.ent
  [  7]  0000   08   ext    yes      c.rets
  [  8]  0000   08   ext    yes      c.ents
  [  9]  0000   08   ext    yes      _p_abort
  [ 10]  0000   08   ext    yes      _p_ckfd
  [ 11]  0000   0d   text   yes      _p_fill
  [ 12]  0031   0d   text   yes      _p_load
  [ 13]  013c   0d   text   yes      _p_read

Text relocations:
  Offset  Type        Target
  ------  ----        ------
  0001    word        symbol[6]
  0004    word        data segment
  0010    word        symbol[10]
  0016    word        text segment
  0024    word        symbol[5]
  0032    word        symbol[8]
  003d    word        symbol[0]
  0040    word        symbol[0]
  004a    word        text segment
  004d    word        symbol[0]
  0057    word        text segment
  005a    word        symbol[0]
  0064    word        text segment
  006c    word        symbol[1]
  006f    word        symbol[1]
  0073    word        symbol[0]
  007a    word        symbol[0]
  008e    word        symbol[4]
  0096    word        symbol[2]
  0099    word        symbol[2]
  009f    word        text segment
  00a2    word        symbol[0]
  00ab    word        symbol[7]
  00ae    word        symbol[1]
  00b1    word        symbol[2]
  00b5    word        text segment
  00b8    word        symbol[2]
  00bd    word        text segment
  00c0    word        text segment
  00c4    word        data segment
  00c8    word        symbol[9]
  00cd    word        text segment
  00d0    word        symbol[0]
  00da    word        text segment
  00dd    word        symbol[0]
  00e7    word        text segment
  00ea    word        symbol[0]
  00f3    word        text segment
  00f6    word        symbol[0]
  00ff    word        symbol[0]
  0108    word        text segment
  010a    word        text segment
  010e    word        text segment
  0112    word        text segment
  0116    word        text segment
  011c    word        text segment
  013d    word        symbol[8]
  0148    word        symbol[0]
  014b    word        symbol[0]
  0156    word        text segment
  0159    word        symbol[3]
  015c    word        text segment
  0160    word        data segment
  0164    word        symbol[9]
  0169    word        text segment
  016d    word        data segment
  0171    word        symbol[9]
  0176    word        symbol[0]
  017a    word        text segment
  017e    word        text segment
  0181    word        text segment
  0184    word        symbol[0]
  018d    word        symbol[7]

Data relocations:
  Offset  Type        Target
  ------  ----        ------
  (none)

