=== lib/libm/raise.o ===

Header:
  Magic:       0x99
  Config:      0x14 little-endian
  Symlen:      9 chars
  Symtab:      48 bytes (4 symbols)
  Text:        294 bytes
  Data:        86 bytes
  BSS:         0 bytes
  Heap:        0 bytes
  Text offset: 0x0000
  Data offset: 0x0126

Disassembly: 294 bytes
__raise:
  0000  f1           pop af
  0001  d1           pop de
  0002  c1           pop bc
  0003  c5           push bc
  0004  79           ld a,c
  0005  b0           or b
  0006  ca 0c 00     jp z,000ch
  0009  6b           ld l,e
  000a  62           ld h,d
  000b  e3           ex (sp),hl
  000c  78           ld a,b
  000d  3c           inc a
  000e  c2 17 00     jp nz,0017h
  0011  79           ld a,c
  0012  3c           inc a
  0013  c2 17 00     jp nz,0017h
  0016  03           inc bc
  0017  7a           ld a,d
  0018  b3           or e
  0019  ca 26 00     jp z,0026h
  001c  7a           ld a,d
  001d  3c           inc a
  001e  c2 2a 00     jp nz,002ah
  0021  7b           ld a,e
  0022  3c           inc a
  0023  c2 2a 00     jp nz,002ah
  0026  2a 64 01     ld hl,(0164h)
  0029  eb           ex de,hl
  002a  e1           pop hl
  002b  c5           push bc
  002c  e5           push hl
  002d  78           ld a,b
  002e  b1           or c
  002f  c2 6c 00     jp nz,006ch
  0032  01 00 00     ld bc,__raise
  0035  21 f4 ff     ld hl,fff4h
  0038  19           add hl,de
  0039  71           ld (hl),c
  003a  23           inc hl
  003b  70           ld (hl),b
  003c  e1           pop hl
  003d  7d           ld a,l
  003e  b4           or h
  003f  c2 fe 00     jp nz,00feh
  0042  21 04 00     ld hl,0004h
  0045  19           add hl,de
  0046  7e           ld a,(hl)
  0047  23           inc hl
  0048  66           ld h,(hl)
  0049  6f           ld l,a
  004a  7d           ld a,l
  004b  b4           or h
  004c  ca 53 00     jp z,0053h
  004f  c1           pop bc
  0050  71           ld (hl),c
  0051  23           inc hl
  0052  70           ld (hl),b
  0053  21 f4 ff     ld hl,fff4h
  0056  19           add hl,de
  0057  4e           ld c,(hl)
  0058  23           inc hl
  0059  46           ld b,(hl)
  005a  23           inc hl
  005b  7e           ld a,(hl)
  005c  23           inc hl
  005d  66           ld h,(hl)
  005e  6f           ld l,a
  005f  22 64 01     ld (0164h),hl
  0062  c3 00 00     jp __raise
  0065  21 f6 ff     ld hl,fff6h
  0068  19           add hl,de
  0069  5e           ld e,(hl)
  006a  23           inc hl
  006b  56           ld d,(hl)
  006c  21 06 00     ld hl,0006h
  006f  19           add hl,de
  0070  4e           ld c,(hl)
  0071  23           inc hl
  0072  46           ld b,(hl)
  0073  23           inc hl
  0074  78           ld a,b
  0075  3c           inc a
  0076  c2 7e 00     jp nz,007eh
  0079  79           ld a,c
  007a  3c           inc a
  007b  ca 65 00     jp z,0065h
  007e  78           ld a,b
  007f  b1           or c
  0080  c2 8b 00     jp nz,008bh
  0083  f1           pop af
  0084  01 00 00     ld bc,__raise
  0087  c5           push bc
  0088  c3 9c 00     jp 009ch
  008b  e5           push hl
  008c  21 04 00     ld hl,0004h
  008f  39           add hl,sp
  0090  79           ld a,c
  0091  be           cp (hl)
  0092  c2 98 00     jp nz,0098h
  0095  78           ld a,b
  0096  23           inc hl
  0097  be           cp (hl)
  0098  e1           pop hl
  0099  c2 70 00     jp nz,0070h
  009c  01 fa ff     ld bc,fffah
  009f  09           add hl,bc
  00a0  7d           ld a,l
  00a1  93           sub e
  00a2  4f           ld c,a
  00a3  7c           ld a,h
  00a4  9a           sbc a,d
  00a5  b7           or a
  00a6  1f           rra
  00a7  47           ld b,a
  00a8  79           ld a,c
  00a9  1f           rra
  00aa  4f           ld c,a
  00ab  c3 35 00     jp 0035h
  00ae  21 00 00     ld hl,__raise
  00b1  e5           push hl
  00b2  2a 62 01     ld hl,(0162h)
  00b5  7d           ld a,l
  00b6  b4           or h
  00b7  c2 bd 00     jp nz,00bdh
  00ba  21 66 01     ld hl,0166h
  00bd  e5           push hl
  00be  c3 be 00     jp 00beh
__when:
  00c1  cd 00 00     call __raise
  00c4  21 04 00     ld hl,0004h
  00c7  19           add hl,de
  00c8  7e           ld a,(hl)
  00c9  23           inc hl
  00ca  66           ld h,(hl)
  00cb  6f           ld l,a
  00cc  7d           ld a,l
  00cd  b4           or h
  00ce  ca d4 00     jp z,00d4h
  00d1  73           ld (hl),e
  00d2  23           inc hl
  00d3  72           ld (hl),d
  00d4  21 06 00     ld hl,0006h
  00d7  19           add hl,de
  00d8  4e           ld c,(hl)
  00d9  23           inc hl
  00da  46           ld b,(hl)
  00db  23           inc hl
  00dc  79           ld a,c
  00dd  b0           or b
  00de  ca eb 00     jp z,00ebh
  00e1  79           ld a,c
  00e2  3c           inc a
  00e3  c2 d8 00     jp nz,00d8h
  00e6  78           ld a,b
  00e7  3c           inc a
  00e8  c2 d8 00     jp nz,00d8h
  00eb  01 08 00     ld bc,0008h
  00ee  09           add hl,bc
  00ef  7b           ld a,e
  00f0  95           sub l
  00f1  6f           ld l,a
  00f2  7a           ld a,d
  00f3  9c           sbc a,h
  00f4  67           ld h,a
  00f5  e5           push hl
  00f6  2a 64 01     ld hl,(0164h)
  00f9  e5           push hl
  00fa  21 ff ff     ld hl,ffffh
  00fd  e5           push hl
  00fe  6b           ld l,e
  00ff  62           ld h,d
  0100  22 64 01     ld (0164h),hl
  0103  21 f8 ff     ld hl,fff8h
  0106  19           add hl,de
  0107  7e           ld a,(hl)
  0108  23           inc hl
  0109  66           ld h,(hl)
  010a  6f           ld l,a
  010b  19           add hl,de
  010c  f9           ld sp,hl
  010d  21 04 00     ld hl,0004h
  0110  19           add hl,de
  0111  1e 08        ld e,08h
  0113  2b           dec hl
  0114  46           ld b,(hl)
  0115  2b           dec hl
  0116  4e           ld c,(hl)
  0117  c5           push bc
  0118  1d           dec e
  0119  c2 13 01     jp nz,0113h
  011c  21 0c 00     ld hl,000ch
  011f  39           add hl,sp
  0120  5d           ld e,l
  0121  54           ld d,h
  0122  c1           pop bc
  0123  c3 00 00     jp __raise

Data segment: 86 bytes
  0000: 00 00 00 00 00 00 00 00  00 00 00 00 00 00 00 00  |................|
  0010: 00 00 00 00 00 00 00 00  00 00 00 00 00 00 00 00  |................|
  0020: 00 00 00 00 00 00 00 00  00 00 00 00 ec ff 00 00  |................|
  0030: 00 00 00 00 00 00 ae 00  62 01 00 00 00 00 5a 01  |........b.....Z.|
  0040: 68 01 75 6e 63 68 65 63  6b 65 64 20 63 6f 6e 64  |h.unchecked cond|
  0050: 69 74 69 6f 6e 00                                 |ition.|

Symbol table: 4 symbols (9-char names)
  Index  Value  Type Seg    Global  Name
  -----  -----  ---- -----  ------  ----
  [  0]  0000   08   ext    yes      c.rets
  [  1]  0000   08   ext    yes      c.ents
  [  2]  00c1   0d   text   yes      __when
  [  3]  0000   0d   text   yes      __raise

Text relocations:
  Offset  Type        Target
  ------  ----        ------
  0007    word        text segment
  000f    word        text segment
  0014    word        text segment
  001a    word        text segment
  001f    word        text segment
  0024    word        text segment
  0027    word        data segment
  0030    word        text segment
  0040    word        text segment
  004d    word        text segment
  0060    word        data segment
  0063    word        symbol[0]
  0077    word        text segment
  007c    word        text segment
  0081    word        text segment
  0089    word        text segment
  0093    word        text segment
  009a    word        text segment
  00ac    word        text segment
  00b3    word        data segment
  00b8    word        text segment
  00bb    word        data segment
  00bf    word        text segment
  00c2    word        symbol[1]
  00cf    word        text segment
  00df    word        text segment
  00e4    word        text segment
  00e9    word        text segment
  00f7    word        data segment
  0101    word        data segment
  011a    word        text segment
  0124    word        symbol[0]

Data relocations:
  Offset  Type        Target
  ------  ----        ------
  0036    word        text segment
  0038    word        data segment
  003e    word        data segment
  0040    word        data segment

