=== lib/libu/lseek.o ===

Header:
  Magic:       0x99
  Config:      0x14 little-endian
  Symlen:      9 chars
  Symtab:      108 bytes (9 symbols)
  Text:        244 bytes
  Data:        4 bytes
  BSS:         0 bytes
  Heap:        0 bytes
  Text offset: 0x0000
  Data offset: 0x00f4

Disassembly: 244 bytes
_lseek:
  0000  cd 00 00     call _lseek
  0003  21 0a 00     ld hl,000ah
  0006  19           add hl,de
  0007  7e           ld a,(hl)
  0008  d6 03        sub 03h
  000a  23           inc hl
  000b  7e           ld a,(hl)
  000c  de 00        sbc a,00h
  000e  f2 b6 00     jp p,00b6h
  0011  21 06 00     ld hl,0006h
  0014  19           add hl,de
  0015  e5           push hl
  0016  e1           pop hl
  0017  01 00 00     ld bc,_lseek
  001a  cd 00 00     call _lseek
  001d  21 00 00     ld hl,_lseek
  0020  e5           push hl
  0021  97           sub a
  0022  32 00 00     ld (_lseek),a
  0025  32 01 00     ld (0001h),a
  0028  32 02 00     ld (0002h),a
  002b  3e 02        ld a,02h
  002d  32 03 00     ld (0003h),a
  0030  21 00 00     ld hl,_lseek
  0033  e5           push hl
  0034  cd 00 00     call _lseek
  0037  e1           pop hl
  0038  23           inc hl
  0039  23           inc hl
  003a  7e           ld a,(hl)
  003b  32 f4 00     ld (00f4h),a
  003e  23           inc hl
  003f  7e           ld a,(hl)
  0040  32 f5 00     ld (00f5h),a
  0043  21 06 00     ld hl,0006h
  0046  19           add hl,de
  0047  e5           push hl
  0048  e1           pop hl
  0049  01 00 00     ld bc,_lseek
  004c  cd 00 00     call _lseek
  004f  21 00 00     ld hl,_lseek
  0052  e5           push hl
  0053  97           sub a
  0054  32 00 00     ld (_lseek),a
  0057  32 01 00     ld (0001h),a
  005a  32 02 00     ld (0002h),a
  005d  3e 02        ld a,02h
  005f  32 03 00     ld (0003h),a
  0062  21 00 00     ld hl,_lseek
  0065  e5           push hl
  0066  cd 00 00     call _lseek
  0069  e1           pop hl
  006a  23           inc hl
  006b  23           inc hl
  006c  7e           ld a,(hl)
  006d  32 f6 00     ld (00f6h),a
  0070  23           inc hl
  0071  7e           ld a,(hl)
  0072  32 f7 00     ld (00f7h),a
  0075  21 0a 00     ld hl,000ah
  0078  19           add hl,de
  0079  7e           ld a,(hl)
  007a  23           inc hl
  007b  66           ld h,(hl)
  007c  6f           ld l,a
  007d  23           inc hl
  007e  23           inc hl
  007f  23           inc hl
  0080  e5           push hl
  0081  2a f4 00     ld hl,(00f4h)
  0084  e5           push hl
  0085  21 04 00     ld hl,0004h
  0088  19           add hl,de
  0089  4e           ld c,(hl)
  008a  23           inc hl
  008b  46           ld b,(hl)
  008c  c5           push bc
  008d  cd 00 00     call _lseek
  0090  f1           pop af
  0091  f1           pop af
  0092  f1           pop af
  0093  78           ld a,b
  0094  b7           or a
  0095  fa e1 00     jp m,00e1h
  0098  21 01 00     ld hl,0001h
  009b  e5           push hl
  009c  2a f6 00     ld hl,(00f6h)
  009f  e5           push hl
  00a0  21 04 00     ld hl,0004h
  00a3  19           add hl,de
  00a4  4e           ld c,(hl)
  00a5  23           inc hl
  00a6  46           ld b,(hl)
  00a7  c5           push bc
  00a8  cd 00 00     call _lseek
  00ab  f1           pop af
  00ac  f1           pop af
  00ad  f1           pop af
  00ae  78           ld a,b
  00af  b7           or a
  00b0  f2 e7 00     jp p,00e7h
  00b3  c3 e1 00     jp 00e1h
  00b6  21 0a 00     ld hl,000ah
  00b9  19           add hl,de
  00ba  4e           ld c,(hl)
  00bb  23           inc hl
  00bc  46           ld b,(hl)
  00bd  c5           push bc
  00be  21 06 00     ld hl,0006h
  00c1  19           add hl,de
  00c2  23           inc hl
  00c3  23           inc hl
  00c4  4e           ld c,(hl)
  00c5  23           inc hl
  00c6  46           ld b,(hl)
  00c7  c5           push bc
  00c8  21 04 00     ld hl,0004h
  00cb  19           add hl,de
  00cc  4e           ld c,(hl)
  00cd  23           inc hl
  00ce  46           ld b,(hl)
  00cf  c5           push bc
  00d0  cd 00 00     call _lseek
  00d3  f1           pop af
  00d4  f1           pop af
  00d5  f1           pop af
  00d6  78           ld a,b
  00d7  b7           or a
  00d8  f2 e7 00     jp p,00e7h
  00db  01 ff ff     ld bc,ffffh
  00de  c3 00 00     jp _lseek
  00e1  01 ff ff     ld bc,ffffh
  00e4  c3 00 00     jp _lseek
  00e7  21 04 00     ld hl,0004h
  00ea  19           add hl,de
  00eb  7e           ld a,(hl)
  00ec  23           inc hl
  00ed  66           ld h,(hl)
  00ee  6f           ld l,a
  00ef  4d           ld c,l
  00f0  44           ld b,h
  00f1  c3 00 00     jp _lseek

Data segment: 4 bytes
  0000: 00 00 00 00                                       |....|

Symbol table: 9 symbols (9-char names)
  Index  Value  Type Seg    Global  Name
  -----  -----  ---- -----  ------  ----
  [  0]  0000   08   ext    yes      c.lmod
  [  1]  0000   08   ext    yes      c.r1
  [  2]  0000   08   ext    yes      c.r0
  [  3]  0000   08   ext    yes      c.ret
  [  4]  0000   08   ext    yes      c.ent
  [  5]  0000   08   ext    yes      c.lcpy
  [  6]  0000   08   ext    yes      _seek
  [  7]  0000   08   ext    yes      c.ldiv
  [  8]  0000   0d   text   yes      _lseek

Text relocations:
  Offset  Type        Target
  ------  ----        ------
  0001    word        symbol[4]
  000f    word        text segment
  0018    word        symbol[2]
  001b    word        symbol[5]
  001e    word        symbol[2]
  0023    word        symbol[1]
  0026    word        symbol[1]
  0029    word        symbol[1]
  002e    word        symbol[1]
  0031    word        symbol[1]
  0035    word        symbol[7]
  003c    word        data segment
  0041    word        data segment
  004a    word        symbol[2]
  004d    word        symbol[5]
  0050    word        symbol[2]
  0055    word        symbol[1]
  0058    word        symbol[1]
  005b    word        symbol[1]
  0060    word        symbol[1]
  0063    word        symbol[1]
  0067    word        symbol[0]
  006e    word        data segment
  0073    word        data segment
  0082    word        data segment
  008e    word        symbol[6]
  0096    word        text segment
  009d    word        data segment
  00a9    word        symbol[6]
  00b1    word        text segment
  00b4    word        text segment
  00d1    word        symbol[6]
  00d9    word        text segment
  00df    word        symbol[3]
  00e5    word        symbol[3]
  00f2    word        symbol[3]

Data relocations:
  Offset  Type        Target
  ------  ----        ------
  (none)

