=== lib/libS/alloc.o ===

Header:
  Magic:       0x99
  Config:      0x14 little-endian
  Symlen:      9 chars
  Symtab:      192 bytes (16 symbols)
  Text:        688 bytes
  Data:        14 bytes
  BSS:         0 bytes
  Heap:        0 bytes
  Text offset: 0x0000
  Data offset: 0x02b0

Disassembly: 688 bytes
__setall:
  0000  cd 00 00     call __setall
  0003  21 b4 02     ld hl,__allocp
  0006  7e           ld a,(hl)
  0007  23           inc hl
  0008  b6           or (hl)
  0009  c2 1f 00     jp nz,001fh
  000c  21 b0 02     ld hl,__albase
  000f  22 b2 02     ld (02b2h),hl
  0012  2a b2 02     ld hl,(02b2h)
  0015  22 b4 02     ld (__allocp),hl
  0018  97           sub a
  0019  32 b0 02     ld (__albase),a
  001c  32 b1 02     ld (02b1h),a
  001f  2a b4 02     ld hl,(__allocp)
  0022  4d           ld c,l
  0023  44           ld b,h
  0024  c3 00 00     jp __setall
__sizeal:
  0027  cd 00 00     call __setall
  002a  21 04 00     ld hl,0004h
  002d  19           add hl,de
  002e  7e           ld a,(hl)
  002f  23           inc hl
  0030  66           ld h,(hl)
  0031  6f           ld l,a
  0032  22 00 00     ld (__setall),hl
  0035  2a 00 00     ld hl,(__setall)
  0038  01 03 00     ld bc,0003h
  003b  09           add hl,bc
  003c  e5           push hl
  003d  21 04 00     ld hl,0004h
  0040  e5           push hl
  0041  cd 00 00     call __setall
  0044  e1           pop hl
  0045  23           inc hl
  0046  4d           ld c,l
  0047  44           ld b,h
  0048  c3 00 00     jp __setall
_alloc:
  004b  cd 00 00     call __setall
  004e  21 04 00     ld hl,0004h
  0051  19           add hl,de
  0052  7e           ld a,(hl)
  0053  23           inc hl
  0054  66           ld h,(hl)
  0055  6f           ld l,a
  0056  22 00 00     ld (__setall),hl
  0059  2a 00 00     ld hl,(__setall)
  005c  e5           push hl
  005d  cd 27 00     call __sizeal
  0060  f1           pop af
  0061  69           ld l,c
  0062  60           ld h,b
  0063  22 ba 02     ld (02bah),hl
  0066  cd 00 00     call __setall
  0069  69           ld l,c
  006a  60           ld h,b
  006b  22 b8 02     ld (02b8h),hl
  006e  2a b8 02     ld hl,(02b8h)
  0071  23           inc hl
  0072  23           inc hl
  0073  7e           ld a,(hl)
  0074  23           inc hl
  0075  66           ld h,(hl)
  0076  6f           ld l,a
  0077  22 b6 02     ld (02b6h),hl
  007a  2a b6 02     ld hl,(02b6h)
  007d  e5           push hl
  007e  21 ba 02     ld hl,02bah
  0081  c1           pop bc
  0082  0a           ld a,(bc)
  0083  96           sub (hl)
  0084  03           inc bc
  0085  0a           ld a,(bc)
  0086  23           inc hl
  0087  9e           sbc a,(hl)
  0088  da c9 00     jp c,00c9h
  008b  2a b6 02     ld hl,(02b6h)
  008e  e5           push hl
  008f  21 ba 02     ld hl,02bah
  0092  c1           pop bc
  0093  0a           ld a,(bc)
  0094  be           cp (hl)
  0095  c2 9c 00     jp nz,009ch
  0098  03           inc bc
  0099  0a           ld a,(bc)
  009a  23           inc hl
  009b  be           cp (hl)
  009c  c2 f7 00     jp nz,00f7h
  009f  2a b8 02     ld hl,(02b8h)
  00a2  23           inc hl
  00a3  23           inc hl
  00a4  e5           push hl
  00a5  2a b6 02     ld hl,(02b6h)
  00a8  23           inc hl
  00a9  23           inc hl
  00aa  c1           pop bc
  00ab  7e           ld a,(hl)
  00ac  02           ld (bc),a
  00ad  23           inc hl
  00ae  7e           ld a,(hl)
  00af  03           inc bc
  00b0  02           ld (bc),a
  00b1  c3 26 01     jp 0126h
  00b4  2a b6 02     ld hl,(02b6h)
  00b7  22 b8 02     ld (02b8h),hl
  00ba  2a b6 02     ld hl,(02b6h)
  00bd  23           inc hl
  00be  23           inc hl
  00bf  7e           ld a,(hl)
  00c0  23           inc hl
  00c1  66           ld h,(hl)
  00c2  6f           ld l,a
  00c3  22 b6 02     ld (02b6h),hl
  00c6  c3 7a 00     jp 007ah
  00c9  21 b4 02     ld hl,__allocp
  00cc  3a b6 02     ld a,(02b6h)
  00cf  be           cp (hl)
  00d0  c2 d8 00     jp nz,00d8h
  00d3  3a b7 02     ld a,(02b7h)
  00d6  23           inc hl
  00d7  be           cp (hl)
  00d8  c2 b4 00     jp nz,00b4h
  00db  21 80 00     ld hl,0080h
  00de  e5           push hl
  00df  cd 00 00     call __setall
  00e2  f1           pop af
  00e3  69           ld l,c
  00e4  60           ld h,b
  00e5  22 b6 02     ld (02b6h),hl
  00e8  21 b6 02     ld hl,02b6h
  00eb  7e           ld a,(hl)
  00ec  23           inc hl
  00ed  b6           or (hl)
  00ee  c2 38 01     jp nz,0138h
  00f1  01 00 00     ld bc,__setall
  00f4  c3 00 00     jp __setall
  00f7  2a b6 02     ld hl,(02b6h)
  00fa  e5           push hl
  00fb  21 ba 02     ld hl,02bah
  00fe  c1           pop bc
  00ff  0a           ld a,(bc)
  0100  96           sub (hl)
  0101  02           ld (bc),a
  0102  03           inc bc
  0103  0a           ld a,(bc)
  0104  23           inc hl
  0105  9e           sbc a,(hl)
  0106  02           ld (bc),a
  0107  2a b6 02     ld hl,(02b6h)
  010a  e5           push hl
  010b  2a b6 02     ld hl,(02b6h)
  010e  7e           ld a,(hl)
  010f  23           inc hl
  0110  66           ld h,(hl)
  0111  6f           ld l,a
  0112  29           add hl,hl
  0113  29           add hl,hl
  0114  e3           ex (sp),hl
  0115  c1           pop bc
  0116  09           add hl,bc
  0117  22 b6 02     ld (02b6h),hl
  011a  2a b6 02     ld hl,(02b6h)
  011d  3a ba 02     ld a,(02bah)
  0120  77           ld (hl),a
  0121  3a bb 02     ld a,(02bbh)
  0124  23           inc hl
  0125  77           ld (hl),a
  0126  2a b8 02     ld hl,(02b8h)
  0129  22 b4 02     ld (__allocp),hl
  012c  2a b6 02     ld hl,(02b6h)
  012f  23           inc hl
  0130  23           inc hl
  0131  23           inc hl
  0132  23           inc hl
  0133  4d           ld c,l
  0134  44           ld b,h
  0135  c3 00 00     jp __setall
  0138  2a b6 02     ld hl,(02b6h)
  013b  3e 20        ld a,20h
  013d  77           ld (hl),a
  013e  3e 00        ld a,00h
  0140  23           inc hl
  0141  77           ld (hl),a
  0142  2a b6 02     ld hl,(02b6h)
  0145  23           inc hl
  0146  23           inc hl
  0147  23           inc hl
  0148  23           inc hl
  0149  e5           push hl
  014a  cd 57 01     call _free
  014d  f1           pop af
  014e  2a b4 02     ld hl,(__allocp)
  0151  22 b6 02     ld (02b6h),hl
  0154  c3 b4 00     jp 00b4h
_free:
  0157  cd 00 00     call __setall
  015a  21 04 00     ld hl,0004h
  015d  19           add hl,de
  015e  7e           ld a,(hl)
  015f  23           inc hl
  0160  66           ld h,(hl)
  0161  6f           ld l,a
  0162  22 00 00     ld (__setall),hl
  0165  21 00 00     ld hl,__setall
  0168  7e           ld a,(hl)
  0169  23           inc hl
  016a  b6           or (hl)
  016b  c2 71 01     jp nz,0171h
  016e  c3 00 00     jp __setall
  0171  3a 00 00     ld a,(__setall)
  0174  d6 04        sub 04h
  0176  32 00 00     ld (__setall),a
  0179  3a 01 00     ld a,(0001h)
  017c  de 00        sbc a,00h
  017e  32 01 00     ld (0001h),a
  0181  cd 00 00     call __setall
  0184  69           ld l,c
  0185  60           ld h,b
  0186  22 bc 02     ld (02bch),hl
  0189  21 00 00     ld hl,__setall
  018c  3a bc 02     ld a,(02bch)
  018f  96           sub (hl)
  0190  3a bd 02     ld a,(02bdh)
  0193  23           inc hl
  0194  9e           sbc a,(hl)
  0195  d2 fe 01     jp nc,01feh
  0198  2a bc 02     ld hl,(02bch)
  019b  23           inc hl
  019c  23           inc hl
  019d  3a 00 00     ld a,(__setall)
  01a0  96           sub (hl)
  01a1  3a 01 00     ld a,(0001h)
  01a4  23           inc hl
  01a5  9e           sbc a,(hl)
  01a6  d2 fe 01     jp nc,01feh
  01a9  2a 00 00     ld hl,(__setall)
  01ac  7e           ld a,(hl)
  01ad  23           inc hl
  01ae  66           ld h,(hl)
  01af  6f           ld l,a
  01b0  29           add hl,hl
  01b1  29           add hl,hl
  01b2  e5           push hl
  01b3  2a 00 00     ld hl,(__setall)
  01b6  e3           ex (sp),hl
  01b7  c1           pop bc
  01b8  09           add hl,bc
  01b9  e5           push hl
  01ba  2a bc 02     ld hl,(02bch)
  01bd  23           inc hl
  01be  23           inc hl
  01bf  c1           pop bc
  01c0  79           ld a,c
  01c1  be           cp (hl)
  01c2  c2 c8 01     jp nz,01c8h
  01c5  78           ld a,b
  01c6  23           inc hl
  01c7  be           cp (hl)
  01c8  c2 3e 02     jp nz,023eh
  01cb  2a 00 00     ld hl,(__setall)
  01ce  e5           push hl
  01cf  2a bc 02     ld hl,(02bch)
  01d2  23           inc hl
  01d3  23           inc hl
  01d4  7e           ld a,(hl)
  01d5  23           inc hl
  01d6  66           ld h,(hl)
  01d7  6f           ld l,a
  01d8  c1           pop bc
  01d9  0a           ld a,(bc)
  01da  86           add a,(hl)
  01db  02           ld (bc),a
  01dc  03           inc bc
  01dd  0a           ld a,(bc)
  01de  23           inc hl
  01df  8e           adc a,(hl)
  01e0  02           ld (bc),a
  01e1  2a 00 00     ld hl,(__setall)
  01e4  01 02 00     ld bc,0002h
  01e7  09           add hl,bc
  01e8  e5           push hl
  01e9  2a bc 02     ld hl,(02bch)
  01ec  23           inc hl
  01ed  23           inc hl
  01ee  7e           ld a,(hl)
  01ef  23           inc hl
  01f0  66           ld h,(hl)
  01f1  6f           ld l,a
  01f2  23           inc hl
  01f3  23           inc hl
  01f4  c1           pop bc
  01f5  7e           ld a,(hl)
  01f6  02           ld (bc),a
  01f7  23           inc hl
  01f8  7e           ld a,(hl)
  01f9  03           inc bc
  01fa  02           ld (bc),a
  01fb  c3 52 02     jp 0252h
  01fe  2a bc 02     ld hl,(02bch)
  0201  23           inc hl
  0202  23           inc hl
  0203  3a bc 02     ld a,(02bch)
  0206  96           sub (hl)
  0207  3a bd 02     ld a,(02bdh)
  020a  23           inc hl
  020b  9e           sbc a,(hl)
  020c  da 2f 02     jp c,022fh
  020f  21 00 00     ld hl,__setall
  0212  3a bc 02     ld a,(02bch)
  0215  96           sub (hl)
  0216  3a bd 02     ld a,(02bdh)
  0219  23           inc hl
  021a  9e           sbc a,(hl)
  021b  da a9 01     jp c,01a9h
  021e  2a bc 02     ld hl,(02bch)
  0221  23           inc hl
  0222  23           inc hl
  0223  3a 00 00     ld a,(__setall)
  0226  96           sub (hl)
  0227  3a 01 00     ld a,(0001h)
  022a  23           inc hl
  022b  9e           sbc a,(hl)
  022c  da a9 01     jp c,01a9h
  022f  2a bc 02     ld hl,(02bch)
  0232  23           inc hl
  0233  23           inc hl
  0234  7e           ld a,(hl)
  0235  23           inc hl
  0236  66           ld h,(hl)
  0237  6f           ld l,a
  0238  22 bc 02     ld (02bch),hl
  023b  c3 89 01     jp 0189h
  023e  2a 00 00     ld hl,(__setall)
  0241  01 02 00     ld bc,0002h
  0244  09           add hl,bc
  0245  e5           push hl
  0246  2a bc 02     ld hl,(02bch)
  0249  23           inc hl
  024a  23           inc hl
  024b  c1           pop bc
  024c  7e           ld a,(hl)
  024d  02           ld (bc),a
  024e  23           inc hl
  024f  7e           ld a,(hl)
  0250  03           inc bc
  0251  02           ld (bc),a
  0252  2a bc 02     ld hl,(02bch)
  0255  7e           ld a,(hl)
  0256  23           inc hl
  0257  66           ld h,(hl)
  0258  6f           ld l,a
  0259  29           add hl,hl
  025a  29           add hl,hl
  025b  e5           push hl
  025c  2a bc 02     ld hl,(02bch)
  025f  e3           ex (sp),hl
  0260  c1           pop bc
  0261  09           add hl,bc
  0262  e5           push hl
  0263  21 00 00     ld hl,__setall
  0266  c1           pop bc
  0267  79           ld a,c
  0268  be           cp (hl)
  0269  c2 6f 02     jp nz,026fh
  026c  78           ld a,b
  026d  23           inc hl
  026e  be           cp (hl)
  026f  c2 99 02     jp nz,0299h
  0272  2a bc 02     ld hl,(02bch)
  0275  e5           push hl
  0276  2a 00 00     ld hl,(__setall)
  0279  c1           pop bc
  027a  0a           ld a,(bc)
  027b  86           add a,(hl)
  027c  02           ld (bc),a
  027d  03           inc bc
  027e  0a           ld a,(bc)
  027f  23           inc hl
  0280  8e           adc a,(hl)
  0281  02           ld (bc),a
  0282  2a bc 02     ld hl,(02bch)
  0285  23           inc hl
  0286  23           inc hl
  0287  e5           push hl
  0288  2a 00 00     ld hl,(__setall)
  028b  01 02 00     ld bc,0002h
  028e  09           add hl,bc
  028f  c1           pop bc
  0290  7e           ld a,(hl)
  0291  02           ld (bc),a
  0292  23           inc hl
  0293  7e           ld a,(hl)
  0294  03           inc bc
  0295  02           ld (bc),a
  0296  c3 a7 02     jp 02a7h
  0299  2a bc 02     ld hl,(02bch)
  029c  23           inc hl
  029d  23           inc hl
  029e  3a 00 00     ld a,(__setall)
  02a1  77           ld (hl),a
  02a2  3a 01 00     ld a,(0001h)
  02a5  23           inc hl
  02a6  77           ld (hl),a
  02a7  2a bc 02     ld hl,(02bch)
  02aa  22 b4 02     ld (__allocp),hl
  02ad  c3 00 00     jp __setall

Data segment: 14 bytes
  0000: 00 00 00 00 00 00 00 00  00 00 00 00 00 00        |..............|

Symbol table: 16 symbols (9-char names)
  Index  Value  Type Seg    Global  Name
  -----  -----  ---- -----  ------  ----
  [  0]  0000   08   ext    yes      __iob
  [  1]  0000   08   ext    yes      __exit
  [  2]  0000   08   ext    yes      c.r4
  [  3]  0000   08   ext    yes      c.ret
  [  4]  0000   08   ext    yes      _exit
  [  5]  0000   08   ext    yes      c.ent
  [  6]  0000   08   ext    yes      _sbreak
  [  7]  0000   08   ext    yes      c.rets
  [  8]  0000   08   ext    yes      c.ents
  [  9]  0000   08   ext    yes      c.udiv
  [ 10]  02b4   0e   data   yes      __allocp
  [ 11]  004b   0d   text   yes      _alloc
  [ 12]  02b0   0e   data   yes      __albase
  [ 13]  0027   0d   text   yes      __sizeal
  [ 14]  0000   0d   text   yes      __setall
  [ 15]  0157   0d   text   yes      _free

Text relocations:
  Offset  Type        Target
  ------  ----        ------
  0001    word        symbol[5]
  0004    word        data segment
  000a    word        text segment
  000d    word        data segment
  0010    word        data segment
  0013    word        data segment
  0016    word        data segment
  001a    word        data segment
  001d    word        data segment
  0020    word        data segment
  0025    word        symbol[3]
  0028    word        symbol[8]
  0033    word        symbol[2]
  0036    word        symbol[2]
  0042    word        symbol[9]
  0049    word        symbol[7]
  004c    word        symbol[8]
  0057    word        symbol[2]
  005a    word        symbol[2]
  005e    word        text segment
  0064    word        data segment
  0067    word        text segment
  006c    word        data segment
  006f    word        data segment
  0078    word        data segment
  007b    word        data segment
  007f    word        data segment
  0089    word        text segment
  008c    word        data segment
  0090    word        data segment
  0096    word        text segment
  009d    word        text segment
  00a0    word        data segment
  00a6    word        data segment
  00b2    word        text segment
  00b5    word        data segment
  00b8    word        data segment
  00bb    word        data segment
  00c4    word        data segment
  00c7    word        text segment
  00ca    word        data segment
  00cd    word        data segment
  00d1    word        text segment
  00d4    word        data segment
  00d9    word        text segment
  00e0    word        symbol[6]
  00e6    word        data segment
  00e9    word        data segment
  00ef    word        text segment
  00f5    word        symbol[7]
  00f8    word        data segment
  00fc    word        data segment
  0108    word        data segment
  010c    word        data segment
  0118    word        data segment
  011b    word        data segment
  011e    word        data segment
  0122    word        data segment
  0127    word        data segment
  012a    word        data segment
  012d    word        data segment
  0136    word        symbol[7]
  0139    word        data segment
  0143    word        data segment
  014b    word        text segment
  014f    word        data segment
  0152    word        data segment
  0155    word        text segment
  0158    word        symbol[8]
  0163    word        symbol[2]
  0166    word        symbol[2]
  016c    word        text segment
  016f    word        symbol[7]
  0172    word        symbol[2]
  0177    word        symbol[2]
  017a    word        symbol[2]
  017f    word        symbol[2]
  0182    word        text segment
  0187    word        data segment
  018a    word        symbol[2]
  018d    word        data segment
  0191    word        data segment
  0196    word        text segment
  0199    word        data segment
  019e    word        symbol[2]
  01a2    word        symbol[2]
  01a7    word        text segment
  01aa    word        symbol[2]
  01b4    word        symbol[2]
  01bb    word        data segment
  01c3    word        text segment
  01c9    word        text segment
  01cc    word        symbol[2]
  01d0    word        data segment
  01e2    word        symbol[2]
  01ea    word        data segment
  01fc    word        text segment
  01ff    word        data segment
  0204    word        data segment
  0208    word        data segment
  020d    word        text segment
  0210    word        symbol[2]
  0213    word        data segment
  0217    word        data segment
  021c    word        text segment
  021f    word        data segment
  0224    word        symbol[2]
  0228    word        symbol[2]
  022d    word        text segment
  0230    word        data segment
  0239    word        data segment
  023c    word        text segment
  023f    word        symbol[2]
  0247    word        data segment
  0253    word        data segment
  025d    word        data segment
  0264    word        symbol[2]
  026a    word        text segment
  0270    word        text segment
  0273    word        data segment
  0277    word        symbol[2]
  0283    word        data segment
  0289    word        symbol[2]
  0297    word        text segment
  029a    word        data segment
  029f    word        symbol[2]
  02a3    word        symbol[2]
  02a8    word        data segment
  02ab    word        data segment
  02ae    word        symbol[7]

Data relocations:
  Offset  Type        Target
  ------  ----        ------
  (none)

