=== lib/libS/exit.o ===

Header:
  Magic:       0x99
  Config:      0x14 little-endian
  Symlen:      9 chars
  Symtab:      96 bytes (8 symbols)
  Text:        233 bytes
  Data:        259 bytes
  BSS:         0 bytes
  Heap:        0 bytes
  Text offset: 0x0000
  Data offset: 0x00e9

Disassembly: 233 bytes
_exit:
  0000  cd 00 00     call _exit
  0003  21 04 00     ld hl,0004h
  0006  19           add hl,de
  0007  7e           ld a,(hl)
  0008  23           inc hl
  0009  66           ld h,(hl)
  000a  6f           ld l,a
  000b  22 00 00     ld (_exit),hl
  000e  3e 00        ld a,00h
  0010  32 e9 01     ld (01e9h),a
  0013  3a e9 01     ld a,(01e9h)
  0016  fe 10        cp 10h
  0018  f2 d3 00     jp p,00d3h
  001b  3a e9 01     ld a,(01e9h)
  001e  4f           ld c,a
  001f  87           add a,a
  0020  9f           sbc a,a
  0021  47           ld b,a
  0022  c5           push bc
  0023  21 10 00     ld hl,0010h
  0026  e5           push hl
  0027  cd 00 00     call _exit
  002a  e1           pop hl
  002b  01 e9 00     ld bc,__iob
  002e  09           add hl,bc
  002f  7e           ld a,(hl)
  0030  23           inc hl
  0031  66           ld h,(hl)
  0032  6f           ld l,a
  0033  e5           push hl
  0034  3a e9 01     ld a,(01e9h)
  0037  4f           ld c,a
  0038  87           add a,a
  0039  9f           sbc a,a
  003a  47           ld b,a
  003b  c5           push bc
  003c  21 10 00     ld hl,0010h
  003f  e5           push hl
  0040  cd 00 00     call _exit
  0043  e1           pop hl
  0044  01 ed 00     ld bc,00edh
  0047  09           add hl,bc
  0048  c1           pop bc
  0049  79           ld a,c
  004a  96           sub (hl)
  004b  4f           ld c,a
  004c  78           ld a,b
  004d  23           inc hl
  004e  9e           sbc a,(hl)
  004f  47           ld b,a
  0050  69           ld l,c
  0051  60           ld h,b
  0052  22 ea 01     ld (01eah),hl
  0055  21 ea 01     ld hl,01eah
  0058  7e           ld a,(hl)
  0059  23           inc hl
  005a  b6           or (hl)
  005b  ca de 00     jp z,00deh
  005e  3a e9 01     ld a,(01e9h)
  0061  4f           ld c,a
  0062  87           add a,a
  0063  9f           sbc a,a
  0064  47           ld b,a
  0065  c5           push bc
  0066  21 10 00     ld hl,0010h
  0069  e5           push hl
  006a  cd 00 00     call _exit
  006d  e1           pop hl
  006e  01 ef 00     ld bc,00efh
  0071  09           add hl,bc
  0072  7e           ld a,(hl)
  0073  23           inc hl
  0074  66           ld h,(hl)
  0075  6f           ld l,a
  0076  7d           ld a,l
  0077  e6 02        and 02h
  0079  ca de 00     jp z,00deh
  007c  3a e9 01     ld a,(01e9h)
  007f  4f           ld c,a
  0080  87           add a,a
  0081  9f           sbc a,a
  0082  47           ld b,a
  0083  c5           push bc
  0084  21 10 00     ld hl,0010h
  0087  e5           push hl
  0088  cd 00 00     call _exit
  008b  e1           pop hl
  008c  01 ed 00     ld bc,00edh
  008f  09           add hl,bc
  0090  7e           ld a,(hl)
  0091  23           inc hl
  0092  b6           or (hl)
  0093  ca de 00     jp z,00deh
  0096  2a ea 01     ld hl,(01eah)
  0099  e5           push hl
  009a  3a e9 01     ld a,(01e9h)
  009d  4f           ld c,a
  009e  87           add a,a
  009f  9f           sbc a,a
  00a0  47           ld b,a
  00a1  c5           push bc
  00a2  21 10 00     ld hl,0010h
  00a5  e5           push hl
  00a6  cd 00 00     call _exit
  00a9  e1           pop hl
  00aa  01 ed 00     ld bc,00edh
  00ad  09           add hl,bc
  00ae  4e           ld c,(hl)
  00af  23           inc hl
  00b0  46           ld b,(hl)
  00b1  c5           push bc
  00b2  3a e9 01     ld a,(01e9h)
  00b5  4f           ld c,a
  00b6  87           add a,a
  00b7  9f           sbc a,a
  00b8  47           ld b,a
  00b9  c5           push bc
  00ba  21 10 00     ld hl,0010h
  00bd  e5           push hl
  00be  cd 00 00     call _exit
  00c1  e1           pop hl
  00c2  01 f1 00     ld bc,00f1h
  00c5  09           add hl,bc
  00c6  4e           ld c,(hl)
  00c7  23           inc hl
  00c8  46           ld b,(hl)
  00c9  c5           push bc
  00ca  cd 00 00     call _exit
  00cd  f1           pop af
  00ce  f1           pop af
  00cf  f1           pop af
  00d0  c3 de 00     jp 00deh
  00d3  2a 00 00     ld hl,(_exit)
  00d6  e5           push hl
  00d7  cd 00 00     call _exit
  00da  f1           pop af
  00db  c3 00 00     jp _exit
  00de  3a e9 01     ld a,(01e9h)
  00e1  c6 01        add a,01h
  00e3  32 e9 01     ld (01e9h),a
  00e6  c3 13 00     jp 0013h

Data segment: 259 bytes
  0000: 00 00 00 00 00 00 01 00  00 00 00 00 00 00 00 00  |................|
  0010: 00 00 00 00 00 00 02 00  01 00 00 00 00 00 00 00  |................|
  0020: 00 00 00 00 00 00 06 00  02 00 00 00 00 00 00 00  |................|
  0030: 00 00 00 00 00 00 00 00  00 00 00 00 00 00 00 00  |................|
  0040: 00 00 00 00 00 00 00 00  00 00 00 00 00 00 00 00  |................|
  0050: 00 00 00 00 00 00 00 00  00 00 00 00 00 00 00 00  |................|
  0060: 00 00 00 00 00 00 00 00  00 00 00 00 00 00 00 00  |................|
  0070: 00 00 00 00 00 00 00 00  00 00 00 00 00 00 00 00  |................|
  0080: 00 00 00 00 00 00 00 00  00 00 00 00 00 00 00 00  |................|
  0090: 00 00 00 00 00 00 00 00  00 00 00 00 00 00 00 00  |................|
  00a0: 00 00 00 00 00 00 00 00  00 00 00 00 00 00 00 00  |................|
  00b0: 00 00 00 00 00 00 00 00  00 00 00 00 00 00 00 00  |................|
  00c0: 00 00 00 00 00 00 00 00  00 00 00 00 00 00 00 00  |................|
  00d0: 00 00 00 00 00 00 00 00  00 00 00 00 00 00 00 00  |................|
  00e0: 00 00 00 00 00 00 00 00  00 00 00 00 00 00 00 00  |................|
  00f0: 00 00 00 00 00 00 00 00  00 00 00 00 00 00 00 00  |................|
  0100: 00 00 00                                          |...|

Symbol table: 8 symbols (9-char names)
  Index  Value  Type Seg    Global  Name
  -----  -----  ---- -----  ------  ----
  [  0]  0000   08   ext    yes      __exit
  [  1]  0000   08   ext    yes      c.r4
  [  2]  0000   08   ext    yes      c.rets
  [  3]  0000   08   ext    yes      c.ents
  [  4]  0000   08   ext    yes      _write
  [  5]  0000   08   ext    yes      c.imul
  [  6]  00e9   0e   data   yes      __iob
  [  7]  0000   0d   text   yes      _exit

Text relocations:
  Offset  Type        Target
  ------  ----        ------
  0001    word        symbol[3]
  000c    word        symbol[1]
  0011    word        data segment
  0014    word        data segment
  0019    word        text segment
  001c    word        data segment
  0028    word        symbol[5]
  002c    word        data segment
  0035    word        data segment
  0041    word        symbol[5]
  0045    word        data segment
  0053    word        data segment
  0056    word        data segment
  005c    word        text segment
  005f    word        data segment
  006b    word        symbol[5]
  006f    word        data segment
  007a    word        text segment
  007d    word        data segment
  0089    word        symbol[5]
  008d    word        data segment
  0094    word        text segment
  0097    word        data segment
  009b    word        data segment
  00a7    word        symbol[5]
  00ab    word        data segment
  00b3    word        data segment
  00bf    word        symbol[5]
  00c3    word        data segment
  00cb    word        symbol[4]
  00d1    word        text segment
  00d4    word        symbol[1]
  00d8    word        symbol[0]
  00dc    word        symbol[2]
  00df    word        data segment
  00e4    word        data segment
  00e7    word        text segment

Data relocations:
  Offset  Type        Target
  ------  ----        ------
  (none)

