=== lib/libS/getpwent.o ===

Header:
  Magic:       0x99
  Config:      0x14 little-endian
  Symlen:      9 chars
  Symtab:      204 bytes (17 symbols)
  Text:        689 bytes
  Data:        276 bytes
  BSS:         0 bytes
  Heap:        0 bytes
  Text offset: 0x0000
  Data offset: 0x02b1

Disassembly: 689 bytes
  0000  0d           dec c
  0001  0a           ld a,(bc)
  0002  00           nop
_getpwen:
  0003  cd 00 00     call 0000h
  0006  21 b1 02     ld hl,02b1h
  0009  7e           ld a,(hl)
  000a  23           inc hl
  000b  b6           or (hl)
  000c  c2 1d 00     jp nz,001dh
  000f  cd 55 02     call _setpwen
  0012  79           ld a,c
  0013  b0           or b
  0014  c2 1d 00     jp nz,001dh
  0017  01 00 00     ld bc,0000h
  001a  c3 00 00     jp 0000h
  001d  2a b1 02     ld hl,(02b1h)
  0020  e5           push hl
  0021  21 00 01     ld hl,0100h
  0024  e5           push hl
  0025  21 b3 02     ld hl,02b3h
  0028  e5           push hl
  0029  cd 00 00     call 0000h
  002c  f1           pop af
  002d  f1           pop af
  002e  f1           pop af
  002f  2a b1 02     ld hl,(02b1h)
  0032  01 06 00     ld bc,0006h
  0035  09           add hl,bc
  0036  7e           ld a,(hl)
  0037  23           inc hl
  0038  66           ld h,(hl)
  0039  6f           ld l,a
  003a  7d           ld a,l
  003b  e6 30        and 30h
  003d  ca 46 00     jp z,0046h
  0040  01 00 00     ld bc,0000h
  0043  c3 00 00     jp 0000h
  0046  21 b3 02     ld hl,02b3h
  0049  22 b3 03     ld (03b3h),hl
  004c  2a b3 03     ld hl,(03b3h)
  004f  22 b5 03     ld (03b5h),hl
  0052  2a b3 03     ld hl,(03b3h)
  0055  e5           push hl
  0056  cd 2d 01     call 012dh
  0059  f1           pop af
  005a  69           ld l,c
  005b  60           ld h,b
  005c  22 b3 03     ld (03b3h),hl
  005f  2a b3 03     ld hl,(03b3h)
  0062  22 b7 03     ld (03b7h),hl
  0065  2a b3 03     ld hl,(03b3h)
  0068  e5           push hl
  0069  cd 2d 01     call 012dh
  006c  f1           pop af
  006d  69           ld l,c
  006e  60           ld h,b
  006f  22 b3 03     ld (03b3h),hl
  0072  21 b3 03     ld hl,03b3h
  0075  7e           ld a,(hl)
  0076  23           inc hl
  0077  b6           or (hl)
  0078  ca 1d 00     jp z,001dh
  007b  2a b3 03     ld hl,(03b3h)
  007e  e5           push hl
  007f  cd 00 00     call 0000h
  0082  f1           pop af
  0083  79           ld a,c
  0084  32 b9 03     ld (03b9h),a
  0087  2a b3 03     ld hl,(03b3h)
  008a  e5           push hl
  008b  cd 2d 01     call 012dh
  008e  f1           pop af
  008f  69           ld l,c
  0090  60           ld h,b
  0091  22 b3 03     ld (03b3h),hl
  0094  21 b3 03     ld hl,03b3h
  0097  7e           ld a,(hl)
  0098  23           inc hl
  0099  b6           or (hl)
  009a  ca 1d 00     jp z,001dh
  009d  2a b3 03     ld hl,(03b3h)
  00a0  e5           push hl
  00a1  cd 00 00     call 0000h
  00a4  f1           pop af
  00a5  79           ld a,c
  00a6  32 ba 03     ld (03bah),a
  00a9  2a b3 03     ld hl,(03b3h)
  00ac  e5           push hl
  00ad  cd 2d 01     call 012dh
  00b0  f1           pop af
  00b1  69           ld l,c
  00b2  60           ld h,b
  00b3  22 b3 03     ld (03b3h),hl
  00b6  2a b3 03     ld hl,(03b3h)
  00b9  22 bb 03     ld (03bbh),hl
  00bc  2a b3 03     ld hl,(03b3h)
  00bf  e5           push hl
  00c0  cd 2d 01     call 012dh
  00c3  f1           pop af
  00c4  69           ld l,c
  00c5  60           ld h,b
  00c6  22 b3 03     ld (03b3h),hl
  00c9  2a b3 03     ld hl,(03b3h)
  00cc  22 bd 03     ld (03bdh),hl
  00cf  2a b3 03     ld hl,(03b3h)
  00d2  e5           push hl
  00d3  cd 2d 01     call 012dh
  00d6  f1           pop af
  00d7  69           ld l,c
  00d8  60           ld h,b
  00d9  22 b3 03     ld (03b3h),hl
  00dc  2a b3 03     ld hl,(03b3h)
  00df  22 bf 03     ld (03bfh),hl
  00e2  21 b3 03     ld hl,03b3h
  00e5  7e           ld a,(hl)
  00e6  23           inc hl
  00e7  b6           or (hl)
  00e8  ca 1d 00     jp z,001dh
  00eb  2a b3 03     ld hl,(03b3h)
  00ee  7e           ld a,(hl)
  00ef  b7           or a
  00f0  ca 14 01     jp z,0114h
  00f3  21 00 00     ld hl,0000h
  00f6  e5           push hl
  00f7  2a b3 03     ld hl,(03b3h)
  00fa  7e           ld a,(hl)
  00fb  4f           ld c,a
  00fc  87           add a,a
  00fd  9f           sbc a,a
  00fe  47           ld b,a
  00ff  c5           push bc
  0100  cd 00 00     call 0000h
  0103  f1           pop af
  0104  f1           pop af
  0105  79           ld a,c
  0106  b0           or b
  0107  c2 14 01     jp nz,0114h
  010a  2a b3 03     ld hl,(03b3h)
  010d  23           inc hl
  010e  22 b3 03     ld (03b3h),hl
  0111  c3 eb 00     jp 00ebh
  0114  2a b3 03     ld hl,(03b3h)
  0117  7e           ld a,(hl)
  0118  b7           or a
  0119  ca 1d 00     jp z,001dh
  011c  2a b3 03     ld hl,(03b3h)
  011f  36 00        ld (hl),00h
  0121  21 b5 03     ld hl,03b5h
  0124  4d           ld c,l
  0125  44           ld b,h
  0126  c3 00 00     jp 0000h
  0129  3a 0a 0d     ld a,(0d0ah)
  012c  00           nop
  012d  cd 00 00     call 0000h
  0130  21 04 00     ld hl,0004h
  0133  19           add hl,de
  0134  7e           ld a,(hl)
  0135  23           inc hl
  0136  b6           or (hl)
  0137  c2 40 01     jp nz,0140h
  013a  01 00 00     ld bc,0000h
  013d  c3 00 00     jp 0000h
  0140  21 04 00     ld hl,0004h
  0143  19           add hl,de
  0144  7e           ld a,(hl)
  0145  23           inc hl
  0146  66           ld h,(hl)
  0147  6f           ld l,a
  0148  7e           ld a,(hl)
  0149  b7           or a
  014a  ca 79 01     jp z,0179h
  014d  21 29 01     ld hl,0129h
  0150  e5           push hl
  0151  21 04 00     ld hl,0004h
  0154  19           add hl,de
  0155  7e           ld a,(hl)
  0156  23           inc hl
  0157  66           ld h,(hl)
  0158  6f           ld l,a
  0159  7e           ld a,(hl)
  015a  4f           ld c,a
  015b  87           add a,a
  015c  9f           sbc a,a
  015d  47           ld b,a
  015e  c5           push bc
  015f  cd 00 00     call 0000h
  0162  f1           pop af
  0163  f1           pop af
  0164  79           ld a,c
  0165  b0           or b
  0166  c2 79 01     jp nz,0179h
  0169  21 04 00     ld hl,0004h
  016c  19           add hl,de
  016d  7e           ld a,(hl)
  016e  c6 01        add a,01h
  0170  77           ld (hl),a
  0171  23           inc hl
  0172  7e           ld a,(hl)
  0173  ce 00        adc a,00h
  0175  77           ld (hl),a
  0176  c3 40 01     jp 0140h
  0179  21 04 00     ld hl,0004h
  017c  19           add hl,de
  017d  7e           ld a,(hl)
  017e  23           inc hl
  017f  66           ld h,(hl)
  0180  6f           ld l,a
  0181  7e           ld a,(hl)
  0182  b7           or a
  0183  c2 8c 01     jp nz,018ch
  0186  01 00 00     ld bc,0000h
  0189  c3 00 00     jp 0000h
  018c  21 04 00     ld hl,0004h
  018f  19           add hl,de
  0190  4e           ld c,(hl)
  0191  23           inc hl
  0192  46           ld b,(hl)
  0193  c5           push bc
  0194  21 04 00     ld hl,0004h
  0197  19           add hl,de
  0198  7e           ld a,(hl)
  0199  c6 01        add a,01h
  019b  77           ld (hl),a
  019c  23           inc hl
  019d  7e           ld a,(hl)
  019e  ce 00        adc a,00h
  01a0  77           ld (hl),a
  01a1  e1           pop hl
  01a2  36 00        ld (hl),00h
  01a4  21 04 00     ld hl,0004h
  01a7  19           add hl,de
  01a8  7e           ld a,(hl)
  01a9  23           inc hl
  01aa  66           ld h,(hl)
  01ab  6f           ld l,a
  01ac  4d           ld c,l
  01ad  44           ld b,h
  01ae  c3 00 00     jp 0000h
_getpwui:
  01b1  cd 00 00     call 0000h
  01b4  cd 55 02     call _setpwen
  01b7  79           ld a,c
  01b8  b0           or b
  01b9  c2 c2 01     jp nz,01c2h
  01bc  01 00 00     ld bc,0000h
  01bf  c3 00 00     jp 0000h
  01c2  cd 03 00     call _getpwen
  01c5  69           ld l,c
  01c6  60           ld h,b
  01c7  22 c1 03     ld (03c1h),hl
  01ca  21 c1 03     ld hl,03c1h
  01cd  7e           ld a,(hl)
  01ce  23           inc hl
  01cf  b6           or (hl)
  01d0  c2 d9 01     jp nz,01d9h
  01d3  01 00 00     ld bc,0000h
  01d6  c3 00 00     jp 0000h
  01d9  2a c1 03     ld hl,(03c1h)
  01dc  23           inc hl
  01dd  23           inc hl
  01de  23           inc hl
  01df  23           inc hl
  01e0  7e           ld a,(hl)
  01e1  4f           ld c,a
  01e2  97           sub a
  01e3  47           ld b,a
  01e4  21 04 00     ld hl,0004h
  01e7  19           add hl,de
  01e8  79           ld a,c
  01e9  be           cp (hl)
  01ea  c2 f0 01     jp nz,01f0h
  01ed  78           ld a,b
  01ee  23           inc hl
  01ef  be           cp (hl)
  01f0  c2 c2 01     jp nz,01c2h
  01f3  2a c1 03     ld hl,(03c1h)
  01f6  4d           ld c,l
  01f7  44           ld b,h
  01f8  c3 00 00     jp 0000h
_getpwna:
  01fb  cd 00 00     call 0000h
  01fe  cd 55 02     call _setpwen
  0201  79           ld a,c
  0202  b0           or b
  0203  c2 0c 02     jp nz,020ch
  0206  01 00 00     ld bc,0000h
  0209  c3 00 00     jp 0000h
  020c  cd 03 00     call _getpwen
  020f  69           ld l,c
  0210  60           ld h,b
  0211  22 c3 03     ld (03c3h),hl
  0214  21 c3 03     ld hl,03c3h
  0217  7e           ld a,(hl)
  0218  23           inc hl
  0219  b6           or (hl)
  021a  c2 23 02     jp nz,0223h
  021d  01 00 00     ld bc,0000h
  0220  c3 00 00     jp 0000h
  0223  21 04 00     ld hl,0004h
  0226  19           add hl,de
  0227  4e           ld c,(hl)
  0228  23           inc hl
  0229  46           ld b,(hl)
  022a  c5           push bc
  022b  2a c3 03     ld hl,(03c3h)
  022e  4e           ld c,(hl)
  022f  23           inc hl
  0230  46           ld b,(hl)
  0231  c5           push bc
  0232  cd 00 00     call 0000h
  0235  f1           pop af
  0236  f1           pop af
  0237  79           ld a,c
  0238  b0           or b
  0239  ca 0c 02     jp z,020ch
  023c  2a c3 03     ld hl,(03c3h)
  023f  4d           ld c,l
  0240  44           ld b,h
  0241  c3 00 00     jp 0000h
  0244  72           ld (hl),d
  0245  65           ld h,l
  0246  61           ld h,c
  0247  64           ld h,h
  0248  00           nop
  0249  2f           cpl
  024a  65           ld h,l
  024b  74           ld (hl),h
  024c  63           ld h,e
  024d  2f           cpl
  024e  70           ld (hl),b
  024f  61           ld h,c
  0250  73           ld (hl),e
  0251  73           ld (hl),e
  0252  77           ld (hl),a
  0253  64           ld h,h
  0254  00           nop
_setpwen:
  0255  cd 00 00     call 0000h
  0258  21 b1 02     ld hl,02b1h
  025b  7e           ld a,(hl)
  025c  23           inc hl
  025d  b6           or (hl)
  025e  ca 6c 02     jp z,026ch
  0261  2a b1 02     ld hl,(02b1h)
  0264  e5           push hl
  0265  cd 00 00     call 0000h
  0268  f1           pop af
  0269  c3 8d 02     jp 028dh
  026c  21 44 02     ld hl,0244h
  026f  e5           push hl
  0270  21 49 02     ld hl,0249h
  0273  e5           push hl
  0274  cd 00 00     call 0000h
  0277  f1           pop af
  0278  f1           pop af
  0279  69           ld l,c
  027a  60           ld h,b
  027b  22 b1 02     ld (02b1h),hl
  027e  21 b1 02     ld hl,02b1h
  0281  7e           ld a,(hl)
  0282  23           inc hl
  0283  b6           or (hl)
  0284  c2 8d 02     jp nz,028dh
  0287  01 00 00     ld bc,0000h
  028a  c3 00 00     jp 0000h
  028d  01 01 00     ld bc,0001h
  0290  c3 00 00     jp 0000h
_endpwen:
  0293  cd 00 00     call 0000h
  0296  21 b1 02     ld hl,02b1h
  0299  7e           ld a,(hl)
  029a  23           inc hl
  029b  b6           or (hl)
  029c  ca ae 02     jp z,02aeh
  029f  2a b1 02     ld hl,(02b1h)
  02a2  e5           push hl
  02a3  cd 00 00     call 0000h
  02a6  f1           pop af
  02a7  97           sub a
  02a8  32 b1 02     ld (02b1h),a
  02ab  32 b2 02     ld (02b2h),a
  02ae  c3 00 00     jp 0000h

Data segment: 276 bytes
  0000: 00 00 00 00 00 00 00 00  00 00 00 00 00 00 00 00  |................|
  0010: 00 00 00 00 00 00 00 00  00 00 00 00 00 00 00 00  |................|
  0020: 00 00 00 00 00 00 00 00  00 00 00 00 00 00 00 00  |................|
  0030: 00 00 00 00 00 00 00 00  00 00 00 00 00 00 00 00  |................|
  0040: 00 00 00 00 00 00 00 00  00 00 00 00 00 00 00 00  |................|
  0050: 00 00 00 00 00 00 00 00  00 00 00 00 00 00 00 00  |................|
  0060: 00 00 00 00 00 00 00 00  00 00 00 00 00 00 00 00  |................|
  0070: 00 00 00 00 00 00 00 00  00 00 00 00 00 00 00 00  |................|
  0080: 00 00 00 00 00 00 00 00  00 00 00 00 00 00 00 00  |................|
  0090: 00 00 00 00 00 00 00 00  00 00 00 00 00 00 00 00  |................|
  00a0: 00 00 00 00 00 00 00 00  00 00 00 00 00 00 00 00  |................|
  00b0: 00 00 00 00 00 00 00 00  00 00 00 00 00 00 00 00  |................|
  00c0: 00 00 00 00 00 00 00 00  00 00 00 00 00 00 00 00  |................|
  00d0: 00 00 00 00 00 00 00 00  00 00 00 00 00 00 00 00  |................|
  00e0: 00 00 00 00 00 00 00 00  00 00 00 00 00 00 00 00  |................|
  00f0: 00 00 00 00 00 00 00 00  00 00 00 00 00 00 00 00  |................|
  0100: 00 00 00 00 00 00 00 00  00 00 00 00 00 00 00 00  |................|
  0110: 00 00 00 00                                       |....|

Symbol table: 17 symbols (9-char names)
  Index  Value  Type Seg    Global  Name
  -----  -----  ---- -----  ------  ----
  [  0]  0000   08   ext    yes      __iob
  [  1]  0000   08   ext    yes      __exit
  [  2]  0000   08   ext    yes      _fgets
  [  3]  0000   08   ext    yes      _fopen
  [  4]  0000   08   ext    yes      _equal
  [  5]  0000   08   ext    yes      _rewind
  [  6]  0000   08   ext    yes      c.ret
  [  7]  0000   08   ext    yes      _fclose
  [  8]  0000   08   ext    yes      _exit
  [  9]  0000   08   ext    yes      c.ent
  [ 10]  0000   08   ext    yes      _atoi
  [ 11]  0000   08   ext    yes      _element
  [ 12]  0255   0d   text   yes      _setpwen
  [ 13]  01b1   0d   text   yes      _getpwui
  [ 14]  0003   0d   text   yes      _getpwen
  [ 15]  01fb   0d   text   yes      _getpwna
  [ 16]  0293   0d   text   yes      _endpwen

Text relocations:
  Offset  Type        Target
  ------  ----        ------
  0004    word        symbol[9]
  0007    word        data segment
  000d    word        text segment
  0010    word        text segment
  0015    word        text segment
  001b    word        symbol[6]
  001e    word        data segment
  0026    word        data segment
  002a    word        symbol[2]
  0030    word        data segment
  003e    word        text segment
  0044    word        symbol[6]
  0047    word        data segment
  004a    word        data segment
  004d    word        data segment
  0050    word        data segment
  0053    word        data segment
  0057    word        text segment
  005d    word        data segment
  0060    word        data segment
  0063    word        data segment
  0066    word        data segment
  006a    word        text segment
  0070    word        data segment
  0073    word        data segment
  0079    word        text segment
  007c    word        data segment
  0080    word        symbol[10]
  0085    word        data segment
  0088    word        data segment
  008c    word        text segment
  0092    word        data segment
  0095    word        data segment
  009b    word        text segment
  009e    word        data segment
  00a2    word        symbol[10]
  00a7    word        data segment
  00aa    word        data segment
  00ae    word        text segment
  00b4    word        data segment
  00b7    word        data segment
  00ba    word        data segment
  00bd    word        data segment
  00c1    word        text segment
  00c7    word        data segment
  00ca    word        data segment
  00cd    word        data segment
  00d0    word        data segment
  00d4    word        text segment
  00da    word        data segment
  00dd    word        data segment
  00e0    word        data segment
  00e3    word        data segment
  00e9    word        text segment
  00ec    word        data segment
  00f1    word        text segment
  00f4    word        text segment
  00f8    word        data segment
  0101    word        symbol[11]
  0108    word        text segment
  010b    word        data segment
  010f    word        data segment
  0112    word        text segment
  0115    word        data segment
  011a    word        text segment
  011d    word        data segment
  0122    word        data segment
  0127    word        symbol[6]
  012e    word        symbol[9]
  0138    word        text segment
  013e    word        symbol[6]
  014b    word        text segment
  014e    word        text segment
  0160    word        symbol[11]
  0167    word        text segment
  0177    word        text segment
  0184    word        text segment
  018a    word        symbol[6]
  01af    word        symbol[6]
  01b2    word        symbol[9]
  01b5    word        text segment
  01ba    word        text segment
  01c0    word        symbol[6]
  01c3    word        text segment
  01c8    word        data segment
  01cb    word        data segment
  01d1    word        text segment
  01d7    word        symbol[6]
  01da    word        data segment
  01eb    word        text segment
  01f1    word        text segment
  01f4    word        data segment
  01f9    word        symbol[6]
  01fc    word        symbol[9]
  01ff    word        text segment
  0204    word        text segment
  020a    word        symbol[6]
  020d    word        text segment
  0212    word        data segment
  0215    word        data segment
  021b    word        text segment
  0221    word        symbol[6]
  022c    word        data segment
  0233    word        symbol[4]
  023a    word        text segment
  023d    word        data segment
  0242    word        symbol[6]
  0256    word        symbol[9]
  0259    word        data segment
  025f    word        text segment
  0262    word        data segment
  0266    word        symbol[5]
  026a    word        text segment
  026d    word        text segment
  0271    word        text segment
  0275    word        symbol[3]
  027c    word        data segment
  027f    word        data segment
  0285    word        text segment
  028b    word        symbol[6]
  0291    word        symbol[6]
  0294    word        symbol[9]
  0297    word        data segment
  029d    word        text segment
  02a0    word        data segment
  02a4    word        symbol[7]
  02a9    word        data segment
  02ac    word        data segment
  02af    word        symbol[6]

Data relocations:
  Offset  Type        Target
  ------  ----        ------
  (none)

