=== lib/libS/printf.o ===

Header:
  Magic:       0x99
  Config:      0x14 little-endian
  Symlen:      9 chars
  Symtab:      276 bytes (23 symbols)
  Text:        1876 bytes
  Data:        19 bytes
  BSS:         0 bytes
  Heap:        0 bytes
  Text offset: 0x0000
  Data offset: 0x0754

Disassembly: 1876 bytes
_printf:
  0000  cd 00 00     call _printf
  0003  21 06 00     ld hl,0006h
  0006  19           add hl,de
  0007  e5           push hl
  0008  21 04 00     ld hl,0004h
  000b  19           add hl,de
  000c  4e           ld c,(hl)
  000d  23           inc hl
  000e  46           ld b,(hl)
  000f  c5           push bc
  0010  21 10 00     ld hl,0010h
  0013  e5           push hl
  0014  21 00 00     ld hl,_printf
  0017  e5           push hl
  0018  cd 1a 01     call _cprint
  001b  f1           pop af
  001c  f1           pop af
  001d  f1           pop af
  001e  f1           pop af
  001f  c3 00 00     jp _printf
_fprintf:
  0022  cd 00 00     call _printf
  0025  21 08 00     ld hl,0008h
  0028  19           add hl,de
  0029  e5           push hl
  002a  21 06 00     ld hl,0006h
  002d  19           add hl,de
  002e  4e           ld c,(hl)
  002f  23           inc hl
  0030  46           ld b,(hl)
  0031  c5           push bc
  0032  21 04 00     ld hl,0004h
  0035  19           add hl,de
  0036  4e           ld c,(hl)
  0037  23           inc hl
  0038  46           ld b,(hl)
  0039  c5           push bc
  003a  21 00 00     ld hl,_printf
  003d  e5           push hl
  003e  cd 1a 01     call _cprint
  0041  f1           pop af
  0042  f1           pop af
  0043  f1           pop af
  0044  f1           pop af
  0045  c3 00 00     jp _printf
_sprintf:
  0048  cd 00 00     call _printf
  004b  21 04 00     ld hl,0004h
  004e  19           add hl,de
  004f  7e           ld a,(hl)
  0050  23           inc hl
  0051  66           ld h,(hl)
  0052  6f           ld l,a
  0053  22 54 07     ld (0754h),hl
  0056  21 08 00     ld hl,0008h
  0059  19           add hl,de
  005a  e5           push hl
  005b  21 06 00     ld hl,0006h
  005e  19           add hl,de
  005f  4e           ld c,(hl)
  0060  23           inc hl
  0061  46           ld b,(hl)
  0062  c5           push bc
  0063  21 54 07     ld hl,0754h
  0066  e5           push hl
  0067  21 7f 00     ld hl,__cache
  006a  e5           push hl
  006b  cd 1a 01     call _cprint
  006e  f1           pop af
  006f  f1           pop af
  0070  f1           pop af
  0071  f1           pop af
  0072  21 04 00     ld hl,0004h
  0075  19           add hl,de
  0076  7e           ld a,(hl)
  0077  23           inc hl
  0078  66           ld h,(hl)
  0079  6f           ld l,a
  007a  4d           ld c,l
  007b  44           ld b,h
  007c  c3 00 00     jp _printf
__cache:
  007f  cd 00 00     call _printf
  0082  21 04 00     ld hl,0004h
  0085  19           add hl,de
  0086  7e           ld a,(hl)
  0087  23           inc hl
  0088  66           ld h,(hl)
  0089  6f           ld l,a
  008a  22 00 00     ld (_printf),hl
  008d  21 08 00     ld hl,0008h
  0090  19           add hl,de
  0091  7e           ld a,(hl)
  0092  23           inc hl
  0093  66           ld h,(hl)
  0094  6f           ld l,a
  0095  22 00 00     ld (_printf),hl
  0098  21 0a 00     ld hl,000ah
  009b  19           add hl,de
  009c  7e           ld a,(hl)
  009d  23           inc hl
  009e  66           ld h,(hl)
  009f  6f           ld l,a
  00a0  22 00 00     ld (_printf),hl
  00a3  2a 00 00     ld hl,(_printf)
  00a6  e5           push hl
  00a7  3a 00 00     ld a,(_printf)
  00aa  d6 01        sub 01h
  00ac  32 00 00     ld (_printf),a
  00af  3a 01 00     ld a,(0001h)
  00b2  de 00        sbc a,00h
  00b4  32 01 00     ld (0001h),a
  00b7  e1           pop hl
  00b8  97           sub a
  00b9  95           sub l
  00ba  3e 00        ld a,00h
  00bc  9c           sbc a,h
  00bd  f2 e6 00     jp p,00e6h
  00c0  2a 00 00     ld hl,(_printf)
  00c3  7e           ld a,(hl)
  00c4  23           inc hl
  00c5  66           ld h,(hl)
  00c6  6f           ld l,a
  00c7  e5           push hl
  00c8  2a 00 00     ld hl,(_printf)
  00cb  e5           push hl
  00cc  2a 00 00     ld hl,(_printf)
  00cf  23           inc hl
  00d0  22 00 00     ld (_printf),hl
  00d3  e1           pop hl
  00d4  c1           pop bc
  00d5  7e           ld a,(hl)
  00d6  02           ld (bc),a
  00d7  2a 00 00     ld hl,(_printf)
  00da  7e           ld a,(hl)
  00db  c6 01        add a,01h
  00dd  77           ld (hl),a
  00de  23           inc hl
  00df  7e           ld a,(hl)
  00e0  ce 00        adc a,00h
  00e2  77           ld (hl),a
  00e3  c3 a3 00     jp 00a3h
  00e6  2a 00 00     ld hl,(_printf)
  00e9  7e           ld a,(hl)
  00ea  23           inc hl
  00eb  66           ld h,(hl)
  00ec  6f           ld l,a
  00ed  36 00        ld (hl),00h
  00ef  c3 00 00     jp _printf
  00f2  8f           adc a,a
  00f3  05           dec b
  00f4  67           ld h,a
  00f5  00           nop
  00f6  44           ld b,h
  00f7  05           dec b
  00f8  66           ld h,(hl)
  00f9  00           nop
  00fa  f9           ld sp,hl
  00fb  04           inc b
  00fc  65           ld h,l
  00fd  00           nop
  00fe  b5           or l
  00ff  04           inc b
  0100  73           ld (hl),e
  0101  00           nop
  0102  a2           and d
  0103  04           inc b
  0104  63           ld h,e
  0105  00           nop
  0106  40           ld b,b
  0107  04           inc b
  0108  78           ld a,b
  0109  00           nop
  010a  de 03        sbc a,03h
  010c  6f           ld l,a
  010d  00           nop
  010e  7c           ld a,h
  010f  03           inc bc
  0110  75           ld (hl),l
  0111  00           nop
  0112  09           add hl,bc
  0113  03           inc bc
  0114  64           ld h,h
  0115  00           nop
  0116  00           nop
  0117  00           nop
  0118  37           scf
  0119  06 cd        ld b,cdh
  011b  00           nop
  011c  00           nop
  011d  21 cf ff     ld hl,ffcfh
  0120  39           add hl,sp
  0121  f9           ld sp,hl
  0122  21 08 00     ld hl,0008h
  0125  19           add hl,de
  0126  7e           ld a,(hl)
  0127  23           inc hl
  0128  66           ld h,(hl)
  0129  6f           ld l,a
  012a  22 00 00     ld (_printf),hl
  012d  21 0a 00     ld hl,000ah
  0130  19           add hl,de
  0131  7e           ld a,(hl)
  0132  23           inc hl
  0133  66           ld h,(hl)
  0134  6f           ld l,a
  0135  22 00 00     ld (_printf),hl
  0138  97           sub a
  0139  32 63 07     ld (0763h),a
  013c  32 64 07     ld (0764h),a
  013f  3e 01        ld a,01h
  0141  32 5a 07     ld (075ah),a
  0144  2a 00 00     ld hl,(_printf)
  0147  22 56 07     ld (0756h),hl
  014a  2a 56 07     ld hl,(0756h)
  014d  7e           ld a,(hl)
  014e  b7           or a
  014f  ca 6f 01     jp z,016fh
  0152  2a 56 07     ld hl,(0756h)
  0155  7e           ld a,(hl)
  0156  fe 25        cp 25h
  0158  ca 6f 01     jp z,016fh
  015b  2a 56 07     ld hl,(0756h)
  015e  23           inc hl
  015f  22 56 07     ld (0756h),hl
  0162  c3 4a 01     jp 014ah
  0165  2a 56 07     ld hl,(0756h)
  0168  23           inc hl
  0169  22 00 00     ld (_printf),hl
  016c  c3 38 01     jp 0138h
  016f  21 56 07     ld hl,0756h
  0172  3a 00 00     ld a,(_printf)
  0175  96           sub (hl)
  0176  3a 01 00     ld a,(0001h)
  0179  23           inc hl
  017a  9e           sbc a,(hl)
  017b  d2 ad 01     jp nc,01adh
  017e  21 06 00     ld hl,0006h
  0181  19           add hl,de
  0182  4e           ld c,(hl)
  0183  23           inc hl
  0184  46           ld b,(hl)
  0185  c5           push bc
  0186  2a 56 07     ld hl,(0756h)
  0189  e5           push hl
  018a  21 00 00     ld hl,_printf
  018d  c1           pop bc
  018e  79           ld a,c
  018f  96           sub (hl)
  0190  4f           ld c,a
  0191  78           ld a,b
  0192  23           inc hl
  0193  9e           sbc a,(hl)
  0194  47           ld b,a
  0195  c5           push bc
  0196  21 01 00     ld hl,0001h
  0199  e5           push hl
  019a  2a 00 00     ld hl,(_printf)
  019d  e5           push hl
  019e  21 04 00     ld hl,0004h
  01a1  19           add hl,de
  01a2  7e           ld a,(hl)
  01a3  23           inc hl
  01a4  66           ld h,(hl)
  01a5  6f           ld l,a
  01a6  cd 00 00     call _printf
  01a9  f1           pop af
  01aa  f1           pop af
  01ab  f1           pop af
  01ac  f1           pop af
  01ad  2a 56 07     ld hl,(0756h)
  01b0  e5           push hl
  01b1  2a 56 07     ld hl,(0756h)
  01b4  23           inc hl
  01b5  22 56 07     ld (0756h),hl
  01b8  e1           pop hl
  01b9  7e           ld a,(hl)
  01ba  b7           or a
  01bb  c2 c1 01     jp nz,01c1h
  01be  c3 00 00     jp _printf
  01c1  2a 56 07     ld hl,(0756h)
  01c4  7e           ld a,(hl)
  01c5  fe 2d        cp 2dh
  01c7  c2 d6 01     jp nz,01d6h
  01ca  3e 00        ld a,00h
  01cc  32 5a 07     ld (075ah),a
  01cf  2a 56 07     ld hl,(0756h)
  01d2  23           inc hl
  01d3  22 56 07     ld (0756h),hl
  01d6  2a 56 07     ld hl,(0756h)
  01d9  7e           ld a,(hl)
  01da  fe 30        cp 30h
  01dc  c2 e8 01     jp nz,01e8h
  01df  21 c9 ff     ld hl,ffc9h
  01e2  19           add hl,de
  01e3  36 30        ld (hl),30h
  01e5  c3 ee 01     jp 01eeh
  01e8  21 c9 ff     ld hl,ffc9h
  01eb  19           add hl,de
  01ec  36 20        ld (hl),20h
  01ee  97           sub a
  01ef  32 65 07     ld (0765h),a
  01f2  32 66 07     ld (0766h),a
  01f5  2a 56 07     ld hl,(0756h)
  01f8  7e           ld a,(hl)
  01f9  fe 30        cp 30h
  01fb  fa 2c 02     jp m,022ch
  01fe  2a 56 07     ld hl,(0756h)
  0201  3e 39        ld a,39h
  0203  be           cp (hl)
  0204  fa 2c 02     jp m,022ch
  0207  2a 56 07     ld hl,(0756h)
  020a  7e           ld a,(hl)
  020b  4f           ld c,a
  020c  87           add a,a
  020d  9f           sbc a,a
  020e  47           ld b,a
  020f  2a 65 07     ld hl,(0765h)
  0212  c5           push bc
  0213  4d           ld c,l
  0214  44           ld b,h
  0215  29           add hl,hl
  0216  29           add hl,hl
  0217  09           add hl,bc
  0218  29           add hl,hl
  0219  c1           pop bc
  021a  09           add hl,bc
  021b  01 d0 ff     ld bc,ffd0h
  021e  09           add hl,bc
  021f  22 65 07     ld (0765h),hl
  0222  2a 56 07     ld hl,(0756h)
  0225  23           inc hl
  0226  22 56 07     ld (0756h),hl
  0229  c3 f5 01     jp 01f5h
  022c  97           sub a
  022d  32 61 07     ld (0761h),a
  0230  32 62 07     ld (0762h),a
  0233  2a 56 07     ld hl,(0756h)
  0236  7e           ld a,(hl)
  0237  fe 2e        cp 2eh
  0239  c2 7f 02     jp nz,027fh
  023c  3e 01        ld a,01h
  023e  32 5b 07     ld (075bh),a
  0241  2a 56 07     ld hl,(0756h)
  0244  23           inc hl
  0245  22 56 07     ld (0756h),hl
  0248  2a 56 07     ld hl,(0756h)
  024b  7e           ld a,(hl)
  024c  fe 30        cp 30h
  024e  fa 84 02     jp m,0284h
  0251  2a 56 07     ld hl,(0756h)
  0254  3e 39        ld a,39h
  0256  be           cp (hl)
  0257  fa 84 02     jp m,0284h
  025a  2a 56 07     ld hl,(0756h)
  025d  7e           ld a,(hl)
  025e  4f           ld c,a
  025f  87           add a,a
  0260  9f           sbc a,a
  0261  47           ld b,a
  0262  2a 61 07     ld hl,(0761h)
  0265  c5           push bc
  0266  4d           ld c,l
  0267  44           ld b,h
  0268  29           add hl,hl
  0269  29           add hl,hl
  026a  09           add hl,bc
  026b  29           add hl,hl
  026c  c1           pop bc
  026d  09           add hl,bc
  026e  01 d0 ff     ld bc,ffd0h
  0271  09           add hl,bc
  0272  22 61 07     ld (0761h),hl
  0275  2a 56 07     ld hl,(0756h)
  0278  23           inc hl
  0279  22 56 07     ld (0756h),hl
  027c  c3 48 02     jp 0248h
  027f  3e 00        ld a,00h
  0281  32 5b 07     ld (075bh),a
  0284  2a 56 07     ld hl,(0756h)
  0287  7e           ld a,(hl)
  0288  fe 6c        cp 6ch
  028a  c2 9e 02     jp nz,029eh
  028d  3e 01        ld a,01h
  028f  32 63 07     ld (0763h),a
  0292  87           add a,a
  0293  9f           sbc a,a
  0294  32 64 07     ld (0764h),a
  0297  2a 56 07     ld hl,(0756h)
  029a  23           inc hl
  029b  22 56 07     ld (0756h),hl
  029e  2a 56 07     ld hl,(0756h)
  02a1  7e           ld a,(hl)
  02a2  fe 41        cp 41h
  02a4  fa c7 02     jp m,02c7h
  02a7  2a 56 07     ld hl,(0756h)
  02aa  3e 5a        ld a,5ah
  02ac  be           cp (hl)
  02ad  fa c7 02     jp m,02c7h
  02b0  2a 56 07     ld hl,(0756h)
  02b3  7e           ld a,(hl)
  02b4  4f           ld c,a
  02b5  87           add a,a
  02b6  9f           sbc a,a
  02b7  47           ld b,a
  02b8  21 61 00     ld hl,0061h
  02bb  09           add hl,bc
  02bc  4d           ld c,l
  02bd  44           ld b,h
  02be  21 bf ff     ld hl,ffbfh
  02c1  09           add hl,bc
  02c2  4d           ld c,l
  02c3  44           ld b,h
  02c4  c3 cf 02     jp 02cfh
  02c7  2a 56 07     ld hl,(0756h)
  02ca  7e           ld a,(hl)
  02cb  4f           ld c,a
  02cc  87           add a,a
  02cd  9f           sbc a,a
  02ce  47           ld b,a
  02cf  79           ld a,c
  02d0  32 5c 07     ld (075ch),a
  02d3  3a 5c 07     ld a,(075ch)
  02d6  fe 65        cp 65h
  02d8  ca eb 02     jp z,02ebh
  02db  3a 5c 07     ld a,(075ch)
  02de  fe 66        cp 66h
  02e0  ca eb 02     jp z,02ebh
  02e3  3a 5c 07     ld a,(075ch)
  02e6  fe 67        cp 67h
  02e8  c2 fc 02     jp nz,02fch
  02eb  3a 5b 07     ld a,(075bh)
  02ee  b7           or a
  02ef  c2 fc 02     jp nz,02fch
  02f2  3e 06        ld a,06h
  02f4  32 61 07     ld (0761h),a
  02f7  87           add a,a
  02f8  9f           sbc a,a
  02f9  32 62 07     ld (0762h),a
  02fc  3a 5c 07     ld a,(075ch)
  02ff  4f           ld c,a
  0300  87           add a,a
  0301  9f           sbc a,a
  0302  47           ld b,a
  0303  21 f2 00     ld hl,00f2h
  0306  c3 00 00     jp _printf
  0309  3a 63 07     ld a,(0763h)
  030c  fe 01        cp 01h
  030e  c2 16 03     jp nz,0316h
  0311  3a 64 07     ld a,(0764h)
  0314  fe 00        cp 00h
  0316  c2 47 03     jp nz,0347h
  0319  21 f6 ff     ld hl,fff6h
  031c  e5           push hl
  031d  2a 00 00     ld hl,(_printf)
  0320  23           inc hl
  0321  23           inc hl
  0322  4e           ld c,(hl)
  0323  23           inc hl
  0324  46           ld b,(hl)
  0325  c5           push bc
  0326  2b           dec hl
  0327  2b           dec hl
  0328  2b           dec hl
  0329  4e           ld c,(hl)
  032a  23           inc hl
  032b  46           ld b,(hl)
  032c  c5           push bc
  032d  21 e2 ff     ld hl,ffe2h
  0330  19           add hl,de
  0331  22 58 07     ld (0758h),hl
  0334  2a 58 07     ld hl,(0758h)
  0337  e5           push hl
  0338  cd 00 00     call _printf
  033b  f1           pop af
  033c  f1           pop af
  033d  f1           pop af
  033e  f1           pop af
  033f  69           ld l,c
  0340  60           ld h,b
  0341  22 5d 07     ld (075dh),hl
  0344  c3 68 03     jp 0368h
  0347  21 f6 ff     ld hl,fff6h
  034a  e5           push hl
  034b  2a 00 00     ld hl,(_printf)
  034e  4e           ld c,(hl)
  034f  23           inc hl
  0350  46           ld b,(hl)
  0351  c5           push bc
  0352  21 e2 ff     ld hl,ffe2h
  0355  19           add hl,de
  0356  22 58 07     ld (0758h),hl
  0359  2a 58 07     ld hl,(0758h)
  035c  e5           push hl
  035d  cd 00 00     call _printf
  0360  f1           pop af
  0361  f1           pop af
  0362  f1           pop af
  0363  69           ld l,c
  0364  60           ld h,b
  0365  22 5d 07     ld (075dh),hl
  0368  21 63 07     ld hl,0763h
  036b  7e           ld a,(hl)
  036c  23           inc hl
  036d  b6           or (hl)
  036e  c2 54 06     jp nz,0654h
  0371  2a 00 00     ld hl,(_printf)
  0374  23           inc hl
  0375  23           inc hl
  0376  22 00 00     ld (_printf),hl
  0379  c3 6e 06     jp 066eh
  037c  3a 63 07     ld a,(0763h)
  037f  fe 01        cp 01h
  0381  c2 89 03     jp nz,0389h
  0384  3a 64 07     ld a,(0764h)
  0387  fe 00        cp 00h
  0389  c2 ba 03     jp nz,03bah
  038c  21 0a 00     ld hl,000ah
  038f  e5           push hl
  0390  2a 00 00     ld hl,(_printf)
  0393  23           inc hl
  0394  23           inc hl
  0395  4e           ld c,(hl)
  0396  23           inc hl
  0397  46           ld b,(hl)
  0398  c5           push bc
  0399  2b           dec hl
  039a  2b           dec hl
  039b  2b           dec hl
  039c  4e           ld c,(hl)
  039d  23           inc hl
  039e  46           ld b,(hl)
  039f  c5           push bc
  03a0  21 e2 ff     ld hl,ffe2h
  03a3  19           add hl,de
  03a4  22 58 07     ld (0758h),hl
  03a7  2a 58 07     ld hl,(0758h)
  03aa  e5           push hl
  03ab  cd 00 00     call _printf
  03ae  f1           pop af
  03af  f1           pop af
  03b0  f1           pop af
  03b1  f1           pop af
  03b2  69           ld l,c
  03b3  60           ld h,b
  03b4  22 5d 07     ld (075dh),hl
  03b7  c3 68 03     jp 0368h
  03ba  21 0a 00     ld hl,000ah
  03bd  e5           push hl
  03be  2a 00 00     ld hl,(_printf)
  03c1  4e           ld c,(hl)
  03c2  23           inc hl
  03c3  46           ld b,(hl)
  03c4  c5           push bc
  03c5  21 e2 ff     ld hl,ffe2h
  03c8  19           add hl,de
  03c9  22 58 07     ld (0758h),hl
  03cc  2a 58 07     ld hl,(0758h)
  03cf  e5           push hl
  03d0  cd 00 00     call _printf
  03d3  f1           pop af
  03d4  f1           pop af
  03d5  f1           pop af
  03d6  69           ld l,c
  03d7  60           ld h,b
  03d8  22 5d 07     ld (075dh),hl
  03db  c3 68 03     jp 0368h
  03de  3a 63 07     ld a,(0763h)
  03e1  fe 01        cp 01h
  03e3  c2 eb 03     jp nz,03ebh
  03e6  3a 64 07     ld a,(0764h)
  03e9  fe 00        cp 00h
  03eb  c2 1c 04     jp nz,041ch
  03ee  21 08 00     ld hl,0008h
  03f1  e5           push hl
  03f2  2a 00 00     ld hl,(_printf)
  03f5  23           inc hl
  03f6  23           inc hl
  03f7  4e           ld c,(hl)
  03f8  23           inc hl
  03f9  46           ld b,(hl)
  03fa  c5           push bc
  03fb  2b           dec hl
  03fc  2b           dec hl
  03fd  2b           dec hl
  03fe  4e           ld c,(hl)
  03ff  23           inc hl
  0400  46           ld b,(hl)
  0401  c5           push bc
  0402  21 e2 ff     ld hl,ffe2h
  0405  19           add hl,de
  0406  22 58 07     ld (0758h),hl
  0409  2a 58 07     ld hl,(0758h)
  040c  e5           push hl
  040d  cd 00 00     call _printf
  0410  f1           pop af
  0411  f1           pop af
  0412  f1           pop af
  0413  f1           pop af
  0414  69           ld l,c
  0415  60           ld h,b
  0416  22 5d 07     ld (075dh),hl
  0419  c3 68 03     jp 0368h
  041c  21 08 00     ld hl,0008h
  041f  e5           push hl
  0420  2a 00 00     ld hl,(_printf)
  0423  4e           ld c,(hl)
  0424  23           inc hl
  0425  46           ld b,(hl)
  0426  c5           push bc
  0427  21 e2 ff     ld hl,ffe2h
  042a  19           add hl,de
  042b  22 58 07     ld (0758h),hl
  042e  2a 58 07     ld hl,(0758h)
  0431  e5           push hl
  0432  cd 00 00     call _printf
  0435  f1           pop af
  0436  f1           pop af
  0437  f1           pop af
  0438  69           ld l,c
  0439  60           ld h,b
  043a  22 5d 07     ld (075dh),hl
  043d  c3 68 03     jp 0368h
  0440  3a 63 07     ld a,(0763h)
  0443  fe 01        cp 01h
  0445  c2 4d 04     jp nz,044dh
  0448  3a 64 07     ld a,(0764h)
  044b  fe 00        cp 00h
  044d  c2 7e 04     jp nz,047eh
  0450  21 10 00     ld hl,0010h
  0453  e5           push hl
  0454  2a 00 00     ld hl,(_printf)
  0457  23           inc hl
  0458  23           inc hl
  0459  4e           ld c,(hl)
  045a  23           inc hl
  045b  46           ld b,(hl)
  045c  c5           push bc
  045d  2b           dec hl
  045e  2b           dec hl
  045f  2b           dec hl
  0460  4e           ld c,(hl)
  0461  23           inc hl
  0462  46           ld b,(hl)
  0463  c5           push bc
  0464  21 e2 ff     ld hl,ffe2h
  0467  19           add hl,de
  0468  22 58 07     ld (0758h),hl
  046b  2a 58 07     ld hl,(0758h)
  046e  e5           push hl
  046f  cd 00 00     call _printf
  0472  f1           pop af
  0473  f1           pop af
  0474  f1           pop af
  0475  f1           pop af
  0476  69           ld l,c
  0477  60           ld h,b
  0478  22 5d 07     ld (075dh),hl
  047b  c3 68 03     jp 0368h
  047e  21 10 00     ld hl,0010h
  0481  e5           push hl
  0482  2a 00 00     ld hl,(_printf)
  0485  4e           ld c,(hl)
  0486  23           inc hl
  0487  46           ld b,(hl)
  0488  c5           push bc
  0489  21 e2 ff     ld hl,ffe2h
  048c  19           add hl,de
  048d  22 58 07     ld (0758h),hl
  0490  2a 58 07     ld hl,(0758h)
  0493  e5           push hl
  0494  cd 00 00     call _printf
  0497  f1           pop af
  0498  f1           pop af
  0499  f1           pop af
  049a  69           ld l,c
  049b  60           ld h,b
  049c  22 5d 07     ld (075dh),hl
  049f  c3 68 03     jp 0368h
  04a2  2a 00 00     ld hl,(_printf)
  04a5  22 58 07     ld (0758h),hl
  04a8  3e 01        ld a,01h
  04aa  32 5d 07     ld (075dh),a
  04ad  87           add a,a
  04ae  9f           sbc a,a
  04af  32 5e 07     ld (075eh),a
  04b2  c3 68 03     jp 0368h
  04b5  2a 00 00     ld hl,(_printf)
  04b8  7e           ld a,(hl)
  04b9  23           inc hl
  04ba  66           ld h,(hl)
  04bb  6f           ld l,a
  04bc  22 58 07     ld (0758h),hl
  04bf  2a 58 07     ld hl,(0758h)
  04c2  e5           push hl
  04c3  cd 00 00     call _printf
  04c6  f1           pop af
  04c7  69           ld l,c
  04c8  60           ld h,b
  04c9  22 5d 07     ld (075dh),hl
  04cc  21 61 07     ld hl,0761h
  04cf  7e           ld a,(hl)
  04d0  23           inc hl
  04d1  b6           or (hl)
  04d2  ca 68 03     jp z,0368h
  04d5  21 61 07     ld hl,0761h
  04d8  3a 5d 07     ld a,(075dh)
  04db  96           sub (hl)
  04dc  3a 5e 07     ld a,(075eh)
  04df  23           inc hl
  04e0  9e           sbc a,(hl)
  04e1  f2 ec 04     jp p,04ech
  04e4  2a 5d 07     ld hl,(075dh)
  04e7  4d           ld c,l
  04e8  44           ld b,h
  04e9  c3 f1 04     jp 04f1h
  04ec  2a 61 07     ld hl,(0761h)
  04ef  4d           ld c,l
  04f0  44           ld b,h
  04f1  69           ld l,c
  04f2  60           ld h,b
  04f3  22 5d 07     ld (075dh),hl
  04f6  c3 68 03     jp 0368h
  04f9  2a 61 07     ld hl,(0761h)
  04fc  e5           push hl
  04fd  21 16 00     ld hl,0016h
  0500  e5           push hl
  0501  21 61 07     ld hl,0761h
  0504  c1           pop bc
  0505  79           ld a,c
  0506  96           sub (hl)
  0507  4f           ld c,a
  0508  78           ld a,b
  0509  23           inc hl
  050a  9e           sbc a,(hl)
  050b  47           ld b,a
  050c  c5           push bc
  050d  2a 00 00     ld hl,(_printf)
  0510  01 08 00     ld bc,0008h
  0513  09           add hl,bc
  0514  3e 04        ld a,04h
  0516  2b           dec hl
  0517  46           ld b,(hl)
  0518  2b           dec hl
  0519  4e           ld c,(hl)
  051a  c5           push bc
  051b  3d           dec a
  051c  c2 16 05     jp nz,0516h
  051f  21 e2 ff     ld hl,ffe2h
  0522  19           add hl,de
  0523  22 58 07     ld (0758h),hl
  0526  2a 58 07     ld hl,(0758h)
  0529  e5           push hl
  052a  cd 00 00     call _printf
  052d  21 0e 00     ld hl,000eh
  0530  39           add hl,sp
  0531  f9           ld sp,hl
  0532  69           ld l,c
  0533  60           ld h,b
  0534  22 5d 07     ld (075dh),hl
  0537  3e 02        ld a,02h
  0539  32 63 07     ld (0763h),a
  053c  87           add a,a
  053d  9f           sbc a,a
  053e  32 64 07     ld (0764h),a
  0541  c3 68 03     jp 0368h
  0544  2a 61 07     ld hl,(0761h)
  0547  e5           push hl
  0548  21 16 00     ld hl,0016h
  054b  e5           push hl
  054c  21 61 07     ld hl,0761h
  054f  c1           pop bc
  0550  79           ld a,c
  0551  96           sub (hl)
  0552  4f           ld c,a
  0553  78           ld a,b
  0554  23           inc hl
  0555  9e           sbc a,(hl)
  0556  47           ld b,a
  0557  c5           push bc
  0558  2a 00 00     ld hl,(_printf)
  055b  01 08 00     ld bc,0008h
  055e  09           add hl,bc
  055f  3e 04        ld a,04h
  0561  2b           dec hl
  0562  46           ld b,(hl)
  0563  2b           dec hl
  0564  4e           ld c,(hl)
  0565  c5           push bc
  0566  3d           dec a
  0567  c2 61 05     jp nz,0561h
  056a  21 e2 ff     ld hl,ffe2h
  056d  19           add hl,de
  056e  22 58 07     ld (0758h),hl
  0571  2a 58 07     ld hl,(0758h)
  0574  e5           push hl
  0575  cd 00 00     call _printf
  0578  21 0e 00     ld hl,000eh
  057b  39           add hl,sp
  057c  f9           ld sp,hl
  057d  69           ld l,c
  057e  60           ld h,b
  057f  22 5d 07     ld (075dh),hl
  0582  3e 02        ld a,02h
  0584  32 63 07     ld (0763h),a
  0587  87           add a,a
  0588  9f           sbc a,a
  0589  32 64 07     ld (0764h),a
  058c  c3 68 03     jp 0368h
  058f  21 61 07     ld hl,0761h
  0592  3e 11        ld a,11h
  0594  96           sub (hl)
  0595  3e 00        ld a,00h
  0597  23           inc hl
  0598  9e           sbc a,(hl)
  0599  f2 a2 05     jp p,05a2h
  059c  01 11 00     ld bc,0011h
  059f  c3 a7 05     jp 05a7h
  05a2  2a 61 07     ld hl,(0761h)
  05a5  4d           ld c,l
  05a6  44           ld b,h
  05a7  c5           push bc
  05a8  21 01 00     ld hl,0001h
  05ab  e5           push hl
  05ac  2a 00 00     ld hl,(_printf)
  05af  01 08 00     ld bc,0008h
  05b2  09           add hl,bc
  05b3  3e 04        ld a,04h
  05b5  2b           dec hl
  05b6  46           ld b,(hl)
  05b7  2b           dec hl
  05b8  4e           ld c,(hl)
  05b9  c5           push bc
  05ba  3d           dec a
  05bb  c2 b5 05     jp nz,05b5h
  05be  21 e2 ff     ld hl,ffe2h
  05c1  19           add hl,de
  05c2  22 58 07     ld (0758h),hl
  05c5  2a 58 07     ld hl,(0758h)
  05c8  e5           push hl
  05c9  cd 00 00     call _printf
  05cc  21 0e 00     ld hl,000eh
  05cf  39           add hl,sp
  05d0  f9           ld sp,hl
  05d1  69           ld l,c
  05d2  60           ld h,b
  05d3  22 5d 07     ld (075dh),hl
  05d6  2a 61 07     ld hl,(0761h)
  05d9  e5           push hl
  05da  21 16 00     ld hl,0016h
  05dd  e5           push hl
  05de  21 61 07     ld hl,0761h
  05e1  c1           pop bc
  05e2  79           ld a,c
  05e3  96           sub (hl)
  05e4  4f           ld c,a
  05e5  78           ld a,b
  05e6  23           inc hl
  05e7  9e           sbc a,(hl)
  05e8  47           ld b,a
  05e9  c5           push bc
  05ea  2a 00 00     ld hl,(_printf)
  05ed  01 08 00     ld bc,0008h
  05f0  09           add hl,bc
  05f1  3e 04        ld a,04h
  05f3  2b           dec hl
  05f4  46           ld b,(hl)
  05f5  2b           dec hl
  05f6  4e           ld c,(hl)
  05f7  c5           push bc
  05f8  3d           dec a
  05f9  c2 f3 05     jp nz,05f3h
  05fc  21 ca ff     ld hl,ffcah
  05ff  19           add hl,de
  0600  e5           push hl
  0601  cd 00 00     call _printf
  0604  21 0e 00     ld hl,000eh
  0607  39           add hl,sp
  0608  f9           ld sp,hl
  0609  69           ld l,c
  060a  60           ld h,b
  060b  22 5f 07     ld (075fh),hl
  060e  21 5f 07     ld hl,075fh
  0611  3a 5d 07     ld a,(075dh)
  0614  96           sub (hl)
  0615  3a 5e 07     ld a,(075eh)
  0618  23           inc hl
  0619  9e           sbc a,(hl)
  061a  fa 2a 06     jp m,062ah
  061d  2a 5f 07     ld hl,(075fh)
  0620  22 5d 07     ld (075dh),hl
  0623  21 ca ff     ld hl,ffcah
  0626  19           add hl,de
  0627  22 58 07     ld (0758h),hl
  062a  3e 02        ld a,02h
  062c  32 63 07     ld (0763h),a
  062f  87           add a,a
  0630  9f           sbc a,a
  0631  32 64 07     ld (0764h),a
  0634  c3 68 03     jp 0368h
  0637  2a 56 07     ld hl,(0756h)
  063a  22 58 07     ld (0758h),hl
  063d  3e 01        ld a,01h
  063f  32 5d 07     ld (075dh),a
  0642  87           add a,a
  0643  9f           sbc a,a
  0644  32 5e 07     ld (075eh),a
  0647  3e 03        ld a,03h
  0649  32 63 07     ld (0763h),a
  064c  87           add a,a
  064d  9f           sbc a,a
  064e  32 64 07     ld (0764h),a
  0651  c3 68 03     jp 0368h
  0654  3a 63 07     ld a,(0763h)
  0657  fe 01        cp 01h
  0659  c2 61 06     jp nz,0661h
  065c  3a 64 07     ld a,(0764h)
  065f  fe 00        cp 00h
  0661  c2 bb 06     jp nz,06bbh
  0664  2a 00 00     ld hl,(_printf)
  0667  23           inc hl
  0668  23           inc hl
  0669  23           inc hl
  066a  23           inc hl
  066b  22 00 00     ld (_printf),hl
  066e  3a 5a 07     ld a,(075ah)
  0671  b7           or a
  0672  ca d8 06     jp z,06d8h
  0675  21 65 07     ld hl,0765h
  0678  3a 5d 07     ld a,(075dh)
  067b  96           sub (hl)
  067c  3a 5e 07     ld a,(075eh)
  067f  23           inc hl
  0680  9e           sbc a,(hl)
  0681  f2 d8 06     jp p,06d8h
  0684  21 06 00     ld hl,0006h
  0687  19           add hl,de
  0688  4e           ld c,(hl)
  0689  23           inc hl
  068a  46           ld b,(hl)
  068b  c5           push bc
  068c  21 01 00     ld hl,0001h
  068f  e5           push hl
  0690  21 01 00     ld hl,0001h
  0693  e5           push hl
  0694  21 c9 ff     ld hl,ffc9h
  0697  19           add hl,de
  0698  e5           push hl
  0699  21 04 00     ld hl,0004h
  069c  19           add hl,de
  069d  7e           ld a,(hl)
  069e  23           inc hl
  069f  66           ld h,(hl)
  06a0  6f           ld l,a
  06a1  cd 00 00     call _printf
  06a4  f1           pop af
  06a5  f1           pop af
  06a6  f1           pop af
  06a7  f1           pop af
  06a8  3a 65 07     ld a,(0765h)
  06ab  d6 01        sub 01h
  06ad  32 65 07     ld (0765h),a
  06b0  3a 66 07     ld a,(0766h)
  06b3  de 00        sbc a,00h
  06b5  32 66 07     ld (0766h),a
  06b8  c3 75 06     jp 0675h
  06bb  3a 63 07     ld a,(0763h)
  06be  fe 02        cp 02h
  06c0  c2 c8 06     jp nz,06c8h
  06c3  3a 64 07     ld a,(0764h)
  06c6  fe 00        cp 00h
  06c8  c2 6e 06     jp nz,066eh
  06cb  2a 00 00     ld hl,(_printf)
  06ce  01 08 00     ld bc,0008h
  06d1  09           add hl,bc
  06d2  22 00 00     ld (_printf),hl
  06d5  c3 6e 06     jp 066eh
  06d8  21 5d 07     ld hl,075dh
  06db  97           sub a
  06dc  96           sub (hl)
  06dd  3e 00        ld a,00h
  06df  23           inc hl
  06e0  9e           sbc a,(hl)
  06e1  f2 07 07     jp p,0707h
  06e4  21 06 00     ld hl,0006h
  06e7  19           add hl,de
  06e8  4e           ld c,(hl)
  06e9  23           inc hl
  06ea  46           ld b,(hl)
  06eb  c5           push bc
  06ec  2a 5d 07     ld hl,(075dh)
  06ef  e5           push hl
  06f0  21 01 00     ld hl,0001h
  06f3  e5           push hl
  06f4  2a 58 07     ld hl,(0758h)
  06f7  e5           push hl
  06f8  21 04 00     ld hl,0004h
  06fb  19           add hl,de
  06fc  7e           ld a,(hl)
  06fd  23           inc hl
  06fe  66           ld h,(hl)
  06ff  6f           ld l,a
  0700  cd 00 00     call _printf
  0703  f1           pop af
  0704  f1           pop af
  0705  f1           pop af
  0706  f1           pop af
  0707  3a 5a 07     ld a,(075ah)
  070a  b7           or a
  070b  c2 65 01     jp nz,0165h
  070e  21 65 07     ld hl,0765h
  0711  3a 5d 07     ld a,(075dh)
  0714  96           sub (hl)
  0715  3a 5e 07     ld a,(075eh)
  0718  23           inc hl
  0719  9e           sbc a,(hl)
  071a  f2 65 01     jp p,0165h
  071d  21 06 00     ld hl,0006h
  0720  19           add hl,de
  0721  4e           ld c,(hl)
  0722  23           inc hl
  0723  46           ld b,(hl)
  0724  c5           push bc
  0725  21 01 00     ld hl,0001h
  0728  e5           push hl
  0729  21 01 00     ld hl,0001h
  072c  e5           push hl
  072d  21 c9 ff     ld hl,ffc9h
  0730  19           add hl,de
  0731  e5           push hl
  0732  21 04 00     ld hl,0004h
  0735  19           add hl,de
  0736  7e           ld a,(hl)
  0737  23           inc hl
  0738  66           ld h,(hl)
  0739  6f           ld l,a
  073a  cd 00 00     call _printf
  073d  f1           pop af
  073e  f1           pop af
  073f  f1           pop af
  0740  f1           pop af
  0741  3a 65 07     ld a,(0765h)
  0744  d6 01        sub 01h
  0746  32 65 07     ld (0765h),a
  0749  3a 66 07     ld a,(0766h)
  074c  de 00        sbc a,00h
  074e  32 66 07     ld (0766h),a
  0751  c3 0e 07     jp 070eh

Data segment: 19 bytes
  0000: 00 00 00 00 00 00 00 00  00 00 00 00 00 00 00 00  |................|
  0010: 00 00 00                                          |...|

Symbol table: 23 symbols (9-char names)
  Index  Value  Type Seg    Global  Name
  -----  -----  ---- -----  ------  ----
  [  0]  0000   08   ext    yes      __exit
  [  1]  0000   08   ext    yes      __iob
  [  2]  0000   08   ext    yes      _strlen
  [  3]  0000   08   ext    yes      c.r4
  [  4]  0000   08   ext    yes      c.r3
  [  5]  0000   08   ext    yes      c.r2
  [  6]  0000   08   ext    yes      _fwrite
  [  7]  0000   08   ext    yes      c.switch
  [  8]  0000   08   ext    yes      c.ret
  [  9]  0000   08   ext    yes      _exit
  [ 10]  0000   08   ext    yes      c.ent
  [ 11]  0000   08   ext    yes      _ltob
  [ 12]  0000   08   ext    yes      c.rets
  [ 13]  0000   08   ext    yes      c.ihl
  [ 14]  0000   08   ext    yes      _itob
  [ 15]  0000   08   ext    yes      _dtof
  [ 16]  0000   08   ext    yes      _dtoe
  [ 17]  0000   08   ext    yes      c.ents
  [ 18]  007f   0d   text   yes      __cache
  [ 19]  0000   0d   text   yes      _printf
  [ 20]  011a   0d   text   yes      _cprint
  [ 21]  0048   0d   text   yes      _sprintf
  [ 22]  0022   0d   text   yes      _fprintf

Text relocations:
  Offset  Type        Target
  ------  ----        ------
  0001    word        symbol[10]
  0011    word        symbol[1]
  0015    word        symbol[6]
  0019    word        text segment
  0020    word        symbol[8]
  0023    word        symbol[10]
  003b    word        symbol[6]
  003f    word        text segment
  0046    word        symbol[8]
  0049    word        symbol[10]
  0054    word        data segment
  0064    word        data segment
  0068    word        text segment
  006c    word        text segment
  007d    word        symbol[8]
  0080    word        symbol[17]
  008b    word        symbol[3]
  0096    word        symbol[5]
  00a1    word        symbol[4]
  00a4    word        symbol[5]
  00a8    word        symbol[5]
  00ad    word        symbol[5]
  00b0    word        symbol[5]
  00b5    word        symbol[5]
  00be    word        text segment
  00c1    word        symbol[4]
  00c9    word        symbol[3]
  00cd    word        symbol[3]
  00d1    word        symbol[3]
  00d8    word        symbol[4]
  00e4    word        text segment
  00e7    word        symbol[4]
  00f0    word        symbol[12]
  00f2    word        text segment
  00f6    word        text segment
  00fa    word        text segment
  00fe    word        text segment
  0102    word        text segment
  0106    word        text segment
  010a    word        text segment
  010e    word        text segment
  0112    word        text segment
  0118    word        text segment
  011b    word        symbol[17]
  012b    word        symbol[3]
  0136    word        symbol[5]
  013a    word        data segment
  013d    word        data segment
  0142    word        data segment
  0145    word        symbol[3]
  0148    word        data segment
  014b    word        data segment
  0150    word        text segment
  0153    word        data segment
  0159    word        text segment
  015c    word        data segment
  0160    word        data segment
  0163    word        text segment
  0166    word        data segment
  016a    word        symbol[3]
  016d    word        text segment
  0170    word        data segment
  0173    word        symbol[3]
  0177    word        symbol[3]
  017c    word        text segment
  0187    word        data segment
  018b    word        symbol[3]
  019b    word        symbol[3]
  01a7    word        symbol[13]
  01ae    word        data segment
  01b2    word        data segment
  01b6    word        data segment
  01bc    word        text segment
  01bf    word        symbol[12]
  01c2    word        data segment
  01c8    word        text segment
  01cd    word        data segment
  01d0    word        data segment
  01d4    word        data segment
  01d7    word        data segment
  01dd    word        text segment
  01e6    word        text segment
  01f0    word        data segment
  01f3    word        data segment
  01f6    word        data segment
  01fc    word        text segment
  01ff    word        data segment
  0205    word        text segment
  0208    word        data segment
  0210    word        data segment
  0220    word        data segment
  0223    word        data segment
  0227    word        data segment
  022a    word        text segment
  022e    word        data segment
  0231    word        data segment
  0234    word        data segment
  023a    word        text segment
  023f    word        data segment
  0242    word        data segment
  0246    word        data segment
  0249    word        data segment
  024f    word        text segment
  0252    word        data segment
  0258    word        text segment
  025b    word        data segment
  0263    word        data segment
  0273    word        data segment
  0276    word        data segment
  027a    word        data segment
  027d    word        text segment
  0282    word        data segment
  0285    word        data segment
  028b    word        text segment
  0290    word        data segment
  0295    word        data segment
  0298    word        data segment
  029c    word        data segment
  029f    word        data segment
  02a5    word        text segment
  02a8    word        data segment
  02ae    word        text segment
  02b1    word        data segment
  02c5    word        text segment
  02c8    word        data segment
  02d1    word        data segment
  02d4    word        data segment
  02d9    word        text segment
  02dc    word        data segment
  02e1    word        text segment
  02e4    word        data segment
  02e9    word        text segment
  02ec    word        data segment
  02f0    word        text segment
  02f5    word        data segment
  02fa    word        data segment
  02fd    word        data segment
  0304    word        text segment
  0307    word        symbol[7]
  030a    word        data segment
  030f    word        text segment
  0312    word        data segment
  0317    word        text segment
  031e    word        symbol[5]
  0332    word        data segment
  0335    word        data segment
  0339    word        symbol[11]
  0342    word        data segment
  0345    word        text segment
  034c    word        symbol[5]
  0357    word        data segment
  035a    word        data segment
  035e    word        symbol[14]
  0366    word        data segment
  0369    word        data segment
  036f    word        text segment
  0372    word        symbol[5]
  0377    word        symbol[5]
  037a    word        text segment
  037d    word        data segment
  0382    word        text segment
  0385    word        data segment
  038a    word        text segment
  0391    word        symbol[5]
  03a5    word        data segment
  03a8    word        data segment
  03ac    word        symbol[11]
  03b5    word        data segment
  03b8    word        text segment
  03bf    word        symbol[5]
  03ca    word        data segment
  03cd    word        data segment
  03d1    word        symbol[14]
  03d9    word        data segment
  03dc    word        text segment
  03df    word        data segment
  03e4    word        text segment
  03e7    word        data segment
  03ec    word        text segment
  03f3    word        symbol[5]
  0407    word        data segment
  040a    word        data segment
  040e    word        symbol[11]
  0417    word        data segment
  041a    word        text segment
  0421    word        symbol[5]
  042c    word        data segment
  042f    word        data segment
  0433    word        symbol[14]
  043b    word        data segment
  043e    word        text segment
  0441    word        data segment
  0446    word        text segment
  0449    word        data segment
  044e    word        text segment
  0455    word        symbol[5]
  0469    word        data segment
  046c    word        data segment
  0470    word        symbol[11]
  0479    word        data segment
  047c    word        text segment
  0483    word        symbol[5]
  048e    word        data segment
  0491    word        data segment
  0495    word        symbol[14]
  049d    word        data segment
  04a0    word        text segment
  04a3    word        symbol[5]
  04a6    word        data segment
  04ab    word        data segment
  04b0    word        data segment
  04b3    word        text segment
  04b6    word        symbol[5]
  04bd    word        data segment
  04c0    word        data segment
  04c4    word        symbol[2]
  04ca    word        data segment
  04cd    word        data segment
  04d3    word        text segment
  04d6    word        data segment
  04d9    word        data segment
  04dd    word        data segment
  04e2    word        text segment
  04e5    word        data segment
  04ea    word        text segment
  04ed    word        data segment
  04f4    word        data segment
  04f7    word        text segment
  04fa    word        data segment
  0502    word        data segment
  050e    word        symbol[5]
  051d    word        text segment
  0524    word        data segment
  0527    word        data segment
  052b    word        symbol[16]
  0535    word        data segment
  053a    word        data segment
  053f    word        data segment
  0542    word        text segment
  0545    word        data segment
  054d    word        data segment
  0559    word        symbol[5]
  0568    word        text segment
  056f    word        data segment
  0572    word        data segment
  0576    word        symbol[15]
  0580    word        data segment
  0585    word        data segment
  058a    word        data segment
  058d    word        text segment
  0590    word        data segment
  059a    word        text segment
  05a0    word        text segment
  05a3    word        data segment
  05ad    word        symbol[5]
  05bc    word        text segment
  05c3    word        data segment
  05c6    word        data segment
  05ca    word        symbol[16]
  05d4    word        data segment
  05d7    word        data segment
  05df    word        data segment
  05eb    word        symbol[5]
  05fa    word        text segment
  0602    word        symbol[15]
  060c    word        data segment
  060f    word        data segment
  0612    word        data segment
  0616    word        data segment
  061b    word        text segment
  061e    word        data segment
  0621    word        data segment
  0628    word        data segment
  062d    word        data segment
  0632    word        data segment
  0635    word        text segment
  0638    word        data segment
  063b    word        data segment
  0640    word        data segment
  0645    word        data segment
  064a    word        data segment
  064f    word        data segment
  0652    word        text segment
  0655    word        data segment
  065a    word        text segment
  065d    word        data segment
  0662    word        text segment
  0665    word        symbol[5]
  066c    word        symbol[5]
  066f    word        data segment
  0673    word        text segment
  0676    word        data segment
  0679    word        data segment
  067d    word        data segment
  0682    word        text segment
  06a2    word        symbol[13]
  06a9    word        data segment
  06ae    word        data segment
  06b1    word        data segment
  06b6    word        data segment
  06b9    word        text segment
  06bc    word        data segment
  06c1    word        text segment
  06c4    word        data segment
  06c9    word        text segment
  06cc    word        symbol[5]
  06d3    word        symbol[5]
  06d6    word        text segment
  06d9    word        data segment
  06e2    word        text segment
  06ed    word        data segment
  06f5    word        data segment
  0701    word        symbol[13]
  0708    word        data segment
  070c    word        text segment
  070f    word        data segment
  0712    word        data segment
  0716    word        data segment
  071b    word        text segment
  073b    word        symbol[13]
  0742    word        data segment
  0747    word        data segment
  074a    word        data segment
  074f    word        data segment
  0752    word        text segment

Data relocations:
  Offset  Type        Target
  ------  ----        ------
  (none)

