=== lib/libS/realloc.o ===

Header:
  Magic:       0x99
  Config:      0x14 little-endian
  Symlen:      9 chars
  Symtab:      180 bytes (15 symbols)
  Text:        731 bytes
  Data:        18 bytes
  BSS:         0 bytes
  Heap:        0 bytes
  Text offset: 0x0000
  Data offset: 0x02db

Disassembly: 731 bytes
_realloc:
  0000  cd 00 00     call _realloc
  0003  21 04 00     ld hl,0004h
  0006  19           add hl,de
  0007  7e           ld a,(hl)
  0008  23           inc hl
  0009  66           ld h,(hl)
  000a  6f           ld l,a
  000b  22 00 00     ld (_realloc),hl
  000e  21 06 00     ld hl,0006h
  0011  19           add hl,de
  0012  7e           ld a,(hl)
  0013  23           inc hl
  0014  66           ld h,(hl)
  0015  6f           ld l,a
  0016  22 00 00     ld (_realloc),hl
  0019  21 00 00     ld hl,_realloc
  001c  7e           ld a,(hl)
  001d  23           inc hl
  001e  b6           or (hl)
  001f  c2 2d 00     jp nz,002dh
  0022  2a 00 00     ld hl,(_realloc)
  0025  e5           push hl
  0026  cd 00 00     call _realloc
  0029  f1           pop af
  002a  c3 00 00     jp _realloc
  002d  3a 00 00     ld a,(_realloc)
  0030  d6 04        sub 04h
  0032  32 00 00     ld (_realloc),a
  0035  3a 01 00     ld a,(0001h)
  0038  de 00        sbc a,00h
  003a  32 01 00     ld (0001h),a
  003d  2a 00 00     ld hl,(_realloc)
  0040  e5           push hl
  0041  cd 00 00     call _realloc
  0044  f1           pop af
  0045  69           ld l,c
  0046  60           ld h,b
  0047  22 e7 02     ld (02e7h),hl
  004a  2a 00 00     ld hl,(_realloc)
  004d  3a e7 02     ld a,(02e7h)
  0050  be           cp (hl)
  0051  c2 59 00     jp nz,0059h
  0054  3a e8 02     ld a,(02e8h)
  0057  23           inc hl
  0058  be           cp (hl)
  0059  c2 68 00     jp nz,0068h
  005c  2a 00 00     ld hl,(_realloc)
  005f  01 04 00     ld bc,0004h
  0062  09           add hl,bc
  0063  4d           ld c,l
  0064  44           ld b,h
  0065  c3 00 00     jp _realloc
  0068  2a 00 00     ld hl,(_realloc)
  006b  3a e7 02     ld a,(02e7h)
  006e  96           sub (hl)
  006f  3a e8 02     ld a,(02e8h)
  0072  23           inc hl
  0073  9e           sbc a,(hl)
  0074  da 73 02     jp c,0273h
  0077  cd 00 00     call _realloc
  007a  69           ld l,c
  007b  60           ld h,b
  007c  22 dd 02     ld (02ddh),hl
  007f  97           sub a
  0080  32 df 02     ld (02dfh),a
  0083  32 e0 02     ld (02e0h),a
  0086  2a df 02     ld hl,(02dfh)
  0089  22 e1 02     ld (02e1h),hl
  008c  2a 00 00     ld hl,(_realloc)
  008f  7e           ld a,(hl)
  0090  23           inc hl
  0091  66           ld h,(hl)
  0092  6f           ld l,a
  0093  22 e9 02     ld (02e9h),hl
  0096  2a dd 02     ld hl,(02ddh)
  0099  23           inc hl
  009a  23           inc hl
  009b  7e           ld a,(hl)
  009c  23           inc hl
  009d  66           ld h,(hl)
  009e  6f           ld l,a
  009f  22 db 02     ld (02dbh),hl
  00a2  2a db 02     ld hl,(02dbh)
  00a5  7e           ld a,(hl)
  00a6  23           inc hl
  00a7  66           ld h,(hl)
  00a8  6f           ld l,a
  00a9  29           add hl,hl
  00aa  29           add hl,hl
  00ab  e5           push hl
  00ac  2a db 02     ld hl,(02dbh)
  00af  e3           ex (sp),hl
  00b0  c1           pop bc
  00b1  09           add hl,bc
  00b2  e5           push hl
  00b3  21 00 00     ld hl,_realloc
  00b6  c1           pop bc
  00b7  79           ld a,c
  00b8  be           cp (hl)
  00b9  c2 bf 00     jp nz,00bfh
  00bc  78           ld a,b
  00bd  23           inc hl
  00be  be           cp (hl)
  00bf  c2 f7 00     jp nz,00f7h
  00c2  2a db 02     ld hl,(02dbh)
  00c5  22 e1 02     ld (02e1h),hl
  00c8  2a dd 02     ld hl,(02ddh)
  00cb  22 e5 02     ld (02e5h),hl
  00ce  2a e9 02     ld hl,(02e9h)
  00d1  e5           push hl
  00d2  2a db 02     ld hl,(02dbh)
  00d5  7e           ld a,(hl)
  00d6  23           inc hl
  00d7  66           ld h,(hl)
  00d8  6f           ld l,a
  00d9  e3           ex (sp),hl
  00da  c1           pop bc
  00db  09           add hl,bc
  00dc  22 e9 02     ld (02e9h),hl
  00df  c3 34 01     jp 0134h
  00e2  2a db 02     ld hl,(02dbh)
  00e5  22 dd 02     ld (02ddh),hl
  00e8  2a db 02     ld hl,(02dbh)
  00eb  23           inc hl
  00ec  23           inc hl
  00ed  7e           ld a,(hl)
  00ee  23           inc hl
  00ef  66           ld h,(hl)
  00f0  6f           ld l,a
  00f1  22 db 02     ld (02dbh),hl
  00f4  c3 a2 00     jp 00a2h
  00f7  2a 00 00     ld hl,(_realloc)
  00fa  7e           ld a,(hl)
  00fb  23           inc hl
  00fc  66           ld h,(hl)
  00fd  6f           ld l,a
  00fe  29           add hl,hl
  00ff  29           add hl,hl
  0100  e5           push hl
  0101  2a 00 00     ld hl,(_realloc)
  0104  e3           ex (sp),hl
  0105  c1           pop bc
  0106  09           add hl,bc
  0107  e5           push hl
  0108  21 db 02     ld hl,02dbh
  010b  c1           pop bc
  010c  79           ld a,c
  010d  be           cp (hl)
  010e  c2 14 01     jp nz,0114h
  0111  78           ld a,b
  0112  23           inc hl
  0113  be           cp (hl)
  0114  c2 34 01     jp nz,0134h
  0117  2a db 02     ld hl,(02dbh)
  011a  22 df 02     ld (02dfh),hl
  011d  2a dd 02     ld hl,(02ddh)
  0120  22 e3 02     ld (02e3h),hl
  0123  2a e9 02     ld hl,(02e9h)
  0126  e5           push hl
  0127  2a db 02     ld hl,(02dbh)
  012a  7e           ld a,(hl)
  012b  23           inc hl
  012c  66           ld h,(hl)
  012d  6f           ld l,a
  012e  e3           ex (sp),hl
  012f  c1           pop bc
  0130  09           add hl,bc
  0131  22 e9 02     ld (02e9h),hl
  0134  21 00 00     ld hl,_realloc
  0137  3a db 02     ld a,(02dbh)
  013a  be           cp (hl)
  013b  c2 43 01     jp nz,0143h
  013e  3a dc 02     ld a,(02dch)
  0141  23           inc hl
  0142  be           cp (hl)
  0143  c2 e2 00     jp nz,00e2h
  0146  21 e7 02     ld hl,02e7h
  0149  3a e9 02     ld a,(02e9h)
  014c  96           sub (hl)
  014d  3a ea 02     ld a,(02eah)
  0150  23           inc hl
  0151  9e           sbc a,(hl)
  0152  d2 71 01     jp nc,0171h
  0155  2a 00 00     ld hl,(_realloc)
  0158  e5           push hl
  0159  cd 00 00     call _realloc
  015c  f1           pop af
  015d  69           ld l,c
  015e  60           ld h,b
  015f  22 eb 02     ld (02ebh),hl
  0162  21 eb 02     ld hl,02ebh
  0165  7e           ld a,(hl)
  0166  23           inc hl
  0167  b6           or (hl)
  0168  c2 a9 01     jp nz,01a9h
  016b  01 00 00     ld bc,_realloc
  016e  c3 00 00     jp _realloc
  0171  21 df 02     ld hl,02dfh
  0174  7e           ld a,(hl)
  0175  23           inc hl
  0176  b6           or (hl)
  0177  ca ea 01     jp z,01eah
  017a  2a e3 02     ld hl,(02e3h)
  017d  23           inc hl
  017e  23           inc hl
  017f  e5           push hl
  0180  2a df 02     ld hl,(02dfh)
  0183  23           inc hl
  0184  23           inc hl
  0185  c1           pop bc
  0186  7e           ld a,(hl)
  0187  02           ld (bc),a
  0188  23           inc hl
  0189  7e           ld a,(hl)
  018a  03           inc bc
  018b  02           ld (bc),a
  018c  0b           dec bc
  018d  69           ld l,c
  018e  60           ld h,b
  018f  7e           ld a,(hl)
  0190  23           inc hl
  0191  66           ld h,(hl)
  0192  6f           ld l,a
  0193  22 00 00     ld (_realloc),hl
  0196  2a 00 00     ld hl,(_realloc)
  0199  e5           push hl
  019a  2a df 02     ld hl,(02dfh)
  019d  c1           pop bc
  019e  0a           ld a,(bc)
  019f  86           add a,(hl)
  01a0  02           ld (bc),a
  01a1  03           inc bc
  01a2  0a           ld a,(bc)
  01a3  23           inc hl
  01a4  8e           adc a,(hl)
  01a5  02           ld (bc),a
  01a6  c3 ea 01     jp 01eah
  01a9  2a 00 00     ld hl,(_realloc)
  01ac  3e 01        ld a,01h
  01ae  96           sub (hl)
  01af  3e 00        ld a,00h
  01b1  23           inc hl
  01b2  9e           sbc a,(hl)
  01b3  d2 d6 01     jp nc,01d6h
  01b6  2a 00 00     ld hl,(_realloc)
  01b9  7e           ld a,(hl)
  01ba  23           inc hl
  01bb  66           ld h,(hl)
  01bc  6f           ld l,a
  01bd  29           add hl,hl
  01be  29           add hl,hl
  01bf  01 fc ff     ld bc,fffch
  01c2  09           add hl,bc
  01c3  e5           push hl
  01c4  2a 00 00     ld hl,(_realloc)
  01c7  01 04 00     ld bc,0004h
  01ca  09           add hl,bc
  01cb  e5           push hl
  01cc  2a eb 02     ld hl,(02ebh)
  01cf  e5           push hl
  01d0  cd 00 00     call _realloc
  01d3  f1           pop af
  01d4  f1           pop af
  01d5  f1           pop af
  01d6  2a 00 00     ld hl,(_realloc)
  01d9  01 04 00     ld bc,0004h
  01dc  09           add hl,bc
  01dd  e5           push hl
  01de  cd 00 00     call _realloc
  01e1  f1           pop af
  01e2  2a eb 02     ld hl,(02ebh)
  01e5  4d           ld c,l
  01e6  44           ld b,h
  01e7  c3 00 00     jp _realloc
  01ea  21 e1 02     ld hl,02e1h
  01ed  7e           ld a,(hl)
  01ee  23           inc hl
  01ef  b6           or (hl)
  01f0  ca 64 02     jp z,0264h
  01f3  2a 00 00     ld hl,(_realloc)
  01f6  e5           push hl
  01f7  21 e7 02     ld hl,02e7h
  01fa  c1           pop bc
  01fb  0a           ld a,(bc)
  01fc  96           sub (hl)
  01fd  03           inc bc
  01fe  0a           ld a,(bc)
  01ff  23           inc hl
  0200  9e           sbc a,(hl)
  0201  d2 64 02     jp nc,0264h
  0204  2a e5 02     ld hl,(02e5h)
  0207  23           inc hl
  0208  23           inc hl
  0209  e5           push hl
  020a  2a e1 02     ld hl,(02e1h)
  020d  23           inc hl
  020e  23           inc hl
  020f  c1           pop bc
  0210  7e           ld a,(hl)
  0211  02           ld (bc),a
  0212  23           inc hl
  0213  7e           ld a,(hl)
  0214  03           inc bc
  0215  02           ld (bc),a
  0216  0b           dec bc
  0217  69           ld l,c
  0218  60           ld h,b
  0219  7e           ld a,(hl)
  021a  23           inc hl
  021b  66           ld h,(hl)
  021c  6f           ld l,a
  021d  22 00 00     ld (_realloc),hl
  0220  2a e1 02     ld hl,(02e1h)
  0223  e5           push hl
  0224  2a 00 00     ld hl,(_realloc)
  0227  c1           pop bc
  0228  0a           ld a,(bc)
  0229  86           add a,(hl)
  022a  02           ld (bc),a
  022b  03           inc bc
  022c  0a           ld a,(bc)
  022d  23           inc hl
  022e  8e           adc a,(hl)
  022f  02           ld (bc),a
  0230  2a 00 00     ld hl,(_realloc)
  0233  3e 01        ld a,01h
  0235  96           sub (hl)
  0236  3e 00        ld a,00h
  0238  23           inc hl
  0239  9e           sbc a,(hl)
  023a  d2 c6 02     jp nc,02c6h
  023d  2a 00 00     ld hl,(_realloc)
  0240  7e           ld a,(hl)
  0241  23           inc hl
  0242  66           ld h,(hl)
  0243  6f           ld l,a
  0244  29           add hl,hl
  0245  29           add hl,hl
  0246  01 fc ff     ld bc,fffch
  0249  09           add hl,bc
  024a  e5           push hl
  024b  2a 00 00     ld hl,(_realloc)
  024e  01 04 00     ld bc,0004h
  0251  09           add hl,bc
  0252  e5           push hl
  0253  2a e1 02     ld hl,(02e1h)
  0256  23           inc hl
  0257  23           inc hl
  0258  23           inc hl
  0259  23           inc hl
  025a  e5           push hl
  025b  cd 00 00     call _realloc
  025e  f1           pop af
  025f  f1           pop af
  0260  f1           pop af
  0261  c3 c6 02     jp 02c6h
  0264  2a 00 00     ld hl,(_realloc)
  0267  3a e7 02     ld a,(02e7h)
  026a  96           sub (hl)
  026b  3a e8 02     ld a,(02e8h)
  026e  23           inc hl
  026f  9e           sbc a,(hl)
  0270  d2 cf 02     jp nc,02cfh
  0273  2a e7 02     ld hl,(02e7h)
  0276  29           add hl,hl
  0277  29           add hl,hl
  0278  e5           push hl
  0279  2a 00 00     ld hl,(_realloc)
  027c  e3           ex (sp),hl
  027d  c1           pop bc
  027e  09           add hl,bc
  027f  e5           push hl
  0280  2a 00 00     ld hl,(_realloc)
  0283  7e           ld a,(hl)
  0284  23           inc hl
  0285  66           ld h,(hl)
  0286  6f           ld l,a
  0287  e5           push hl
  0288  21 e7 02     ld hl,02e7h
  028b  c1           pop bc
  028c  79           ld a,c
  028d  96           sub (hl)
  028e  4f           ld c,a
  028f  78           ld a,b
  0290  23           inc hl
  0291  9e           sbc a,(hl)
  0292  47           ld b,a
  0293  e1           pop hl
  0294  79           ld a,c
  0295  77           ld (hl),a
  0296  78           ld a,b
  0297  23           inc hl
  0298  77           ld (hl),a
  0299  2a 00 00     ld hl,(_realloc)
  029c  3a e7 02     ld a,(02e7h)
  029f  77           ld (hl),a
  02a0  3a e8 02     ld a,(02e8h)
  02a3  23           inc hl
  02a4  77           ld (hl),a
  02a5  2a e7 02     ld hl,(02e7h)
  02a8  29           add hl,hl
  02a9  29           add hl,hl
  02aa  e5           push hl
  02ab  2a 00 00     ld hl,(_realloc)
  02ae  01 04 00     ld bc,0004h
  02b1  09           add hl,bc
  02b2  e3           ex (sp),hl
  02b3  c1           pop bc
  02b4  09           add hl,bc
  02b5  e5           push hl
  02b6  cd 00 00     call _realloc
  02b9  f1           pop af
  02ba  2a 00 00     ld hl,(_realloc)
  02bd  01 04 00     ld bc,0004h
  02c0  09           add hl,bc
  02c1  4d           ld c,l
  02c2  44           ld b,h
  02c3  c3 00 00     jp _realloc
  02c6  2a e1 02     ld hl,(02e1h)
  02c9  22 00 00     ld (_realloc),hl
  02cc  c3 64 02     jp 0264h
  02cf  2a 00 00     ld hl,(_realloc)
  02d2  01 04 00     ld bc,0004h
  02d5  09           add hl,bc
  02d6  4d           ld c,l
  02d7  44           ld b,h
  02d8  c3 00 00     jp _realloc

Data segment: 18 bytes
  0000: 00 00 00 00 00 00 00 00  00 00 00 00 00 00 00 00  |................|
  0010: 00 00                                             |..|

Symbol table: 15 symbols (9-char names)
  Index  Value  Type Seg    Global  Name
  -----  -----  ---- -----  ------  ----
  [  0]  0000   08   ext    yes      __allocp
  [  1]  0000   08   ext    yes      __iob
  [  2]  0000   08   ext    yes      __exit
  [  3]  0000   08   ext    yes      c.r4
  [  4]  0000   08   ext    yes      c.r2
  [  5]  0000   08   ext    yes      _alloc
  [  6]  0000   08   ext    yes      _cpybuf
  [  7]  0000   08   ext    yes      __albase
  [  8]  0000   08   ext    yes      _exit
  [  9]  0000   08   ext    yes      c.rets
  [ 10]  0000   08   ext    yes      c.ents
  [ 11]  0000   08   ext    yes      __sizeal
  [ 12]  0000   08   ext    yes      __setall
  [ 13]  0000   08   ext    yes      _free
  [ 14]  0000   0d   text   yes      _realloc

Text relocations:
  Offset  Type        Target
  ------  ----        ------
  0001    word        symbol[10]
  000c    word        symbol[3]
  0017    word        symbol[4]
  001a    word        symbol[3]
  0020    word        text segment
  0023    word        symbol[4]
  0027    word        symbol[5]
  002b    word        symbol[9]
  002e    word        symbol[3]
  0033    word        symbol[3]
  0036    word        symbol[3]
  003b    word        symbol[3]
  003e    word        symbol[4]
  0042    word        symbol[11]
  0048    word        data segment
  004b    word        symbol[3]
  004e    word        data segment
  0052    word        text segment
  0055    word        data segment
  005a    word        text segment
  005d    word        symbol[3]
  0066    word        symbol[9]
  0069    word        symbol[3]
  006c    word        data segment
  0070    word        data segment
  0075    word        text segment
  0078    word        symbol[12]
  007d    word        data segment
  0081    word        data segment
  0084    word        data segment
  0087    word        data segment
  008a    word        data segment
  008d    word        symbol[3]
  0094    word        data segment
  0097    word        data segment
  00a0    word        data segment
  00a3    word        data segment
  00ad    word        data segment
  00b4    word        symbol[3]
  00ba    word        text segment
  00c0    word        text segment
  00c3    word        data segment
  00c6    word        data segment
  00c9    word        data segment
  00cc    word        data segment
  00cf    word        data segment
  00d3    word        data segment
  00dd    word        data segment
  00e0    word        text segment
  00e3    word        data segment
  00e6    word        data segment
  00e9    word        data segment
  00f2    word        data segment
  00f5    word        text segment
  00f8    word        symbol[3]
  0102    word        symbol[3]
  0109    word        data segment
  010f    word        text segment
  0115    word        text segment
  0118    word        data segment
  011b    word        data segment
  011e    word        data segment
  0121    word        data segment
  0124    word        data segment
  0128    word        data segment
  0132    word        data segment
  0135    word        symbol[0]
  0138    word        data segment
  013c    word        text segment
  013f    word        data segment
  0144    word        text segment
  0147    word        data segment
  014a    word        data segment
  014e    word        data segment
  0153    word        text segment
  0156    word        symbol[4]
  015a    word        symbol[5]
  0160    word        data segment
  0163    word        data segment
  0169    word        text segment
  016f    word        symbol[9]
  0172    word        data segment
  0178    word        text segment
  017b    word        data segment
  0181    word        data segment
  0194    word        symbol[0]
  0197    word        symbol[3]
  019b    word        data segment
  01a7    word        text segment
  01aa    word        symbol[3]
  01b4    word        text segment
  01b7    word        symbol[3]
  01c5    word        symbol[3]
  01cd    word        data segment
  01d1    word        symbol[6]
  01d7    word        symbol[3]
  01df    word        symbol[13]
  01e3    word        data segment
  01e8    word        symbol[9]
  01eb    word        data segment
  01f1    word        text segment
  01f4    word        symbol[3]
  01f8    word        data segment
  0202    word        text segment
  0205    word        data segment
  020b    word        data segment
  021e    word        symbol[0]
  0221    word        data segment
  0225    word        symbol[3]
  0231    word        symbol[3]
  023b    word        text segment
  023e    word        symbol[3]
  024c    word        symbol[3]
  0254    word        data segment
  025c    word        symbol[6]
  0262    word        text segment
  0265    word        symbol[3]
  0268    word        data segment
  026c    word        data segment
  0271    word        text segment
  0274    word        data segment
  027a    word        symbol[3]
  0281    word        symbol[3]
  0289    word        data segment
  029a    word        symbol[3]
  029d    word        data segment
  02a1    word        data segment
  02a6    word        data segment
  02ac    word        symbol[3]
  02b7    word        symbol[13]
  02bb    word        symbol[3]
  02c4    word        symbol[9]
  02c7    word        data segment
  02ca    word        symbol[3]
  02cd    word        text segment
  02d0    word        symbol[3]
  02d9    word        symbol[9]

Data relocations:
  Offset  Type        Target
  ------  ----        ------
  (none)

