=== lib/libws/btol.o ===

Header:
  Magic:       0x99
  Config:      0x14 little-endian
  Symlen:      9 chars
  Symtab:      144 bytes (12 symbols)
  Text:        780 bytes
  Data:        0 bytes
  BSS:         0 bytes
  Heap:        0 bytes
  Text offset: 0x0000
  Data offset: 0x030c

Disassembly: 780 bytes
_btol:
  0000  cd 00 00     call _btol
  0003  f5           push af
  0004  f5           push af
  0005  f5           push af
  0006  f5           push af
  0007  21 04 00     ld hl,0004h
  000a  19           add hl,de
  000b  7e           ld a,(hl)
  000c  23           inc hl
  000d  66           ld h,(hl)
  000e  6f           ld l,a
  000f  22 00 00     ld (_btol),hl
  0012  21 06 00     ld hl,0006h
  0015  19           add hl,de
  0016  7e           ld a,(hl)
  0017  23           inc hl
  0018  66           ld h,(hl)
  0019  6f           ld l,a
  001a  22 00 00     ld (_btol),hl
  001d  21 f4 ff     ld hl,fff4h
  0020  19           add hl,de
  0021  97           sub a
  0022  77           ld (hl),a
  0023  23           inc hl
  0024  77           ld (hl),a
  0025  23           inc hl
  0026  77           ld (hl),a
  0027  23           inc hl
  0028  77           ld (hl),a
  0029  21 f2 ff     ld hl,fff2h
  002c  19           add hl,de
  002d  3a 00 00     ld a,(_btol)
  0030  77           ld (hl),a
  0031  3a 01 00     ld a,(0001h)
  0034  23           inc hl
  0035  77           ld (hl),a
  0036  21 f8 ff     ld hl,fff8h
  0039  19           add hl,de
  003a  97           sub a
  003b  77           ld (hl),a
  003c  23           inc hl
  003d  77           ld (hl),a
  003e  21 00 00     ld hl,_btol
  0041  7e           ld a,(hl)
  0042  23           inc hl
  0043  b6           or (hl)
  0044  ca 59 00     jp z,0059h
  0047  2a 00 00     ld hl,(_btol)
  004a  3e 20        ld a,20h
  004c  be           cp (hl)
  004d  d2 90 00     jp nc,0090h
  0050  2a 00 00     ld hl,(_btol)
  0053  7e           ld a,(hl)
  0054  fe 7f        cp 7fh
  0056  d2 90 00     jp nc,0090h
  0059  21 00 00     ld hl,_btol
  005c  7e           ld a,(hl)
  005d  23           inc hl
  005e  b6           or (hl)
  005f  ca aa 00     jp z,00aah
  0062  2a 00 00     ld hl,(_btol)
  0065  7e           ld a,(hl)
  0066  fe 2d        cp 2dh
  0068  c2 31 01     jp nz,0131h
  006b  21 f8 ff     ld hl,fff8h
  006e  19           add hl,de
  006f  3e 01        ld a,01h
  0071  77           ld (hl),a
  0072  87           add a,a
  0073  9f           sbc a,a
  0074  23           inc hl
  0075  77           ld (hl),a
  0076  2a 00 00     ld hl,(_btol)
  0079  23           inc hl
  007a  22 00 00     ld (_btol),hl
  007d  3a 00 00     ld a,(_btol)
  0080  d6 01        sub 01h
  0082  32 00 00     ld (_btol),a
  0085  3a 01 00     ld a,(0001h)
  0088  de 00        sbc a,00h
  008a  32 01 00     ld (0001h),a
  008d  c3 aa 00     jp 00aah
  0090  3a 00 00     ld a,(_btol)
  0093  d6 01        sub 01h
  0095  32 00 00     ld (_btol),a
  0098  3a 01 00     ld a,(0001h)
  009b  de 00        sbc a,00h
  009d  32 01 00     ld (0001h),a
  00a0  2a 00 00     ld hl,(_btol)
  00a3  23           inc hl
  00a4  22 00 00     ld (_btol),hl
  00a7  c3 3e 00     jp 003eh
  00aa  21 0a 00     ld hl,000ah
  00ad  19           add hl,de
  00ae  7e           ld a,(hl)
  00af  fe 10        cp 10h
  00b1  c2 b8 00     jp nz,00b8h
  00b4  23           inc hl
  00b5  7e           ld a,(hl)
  00b6  fe 00        cp 00h
  00b8  c2 54 01     jp nz,0154h
  00bb  3a 00 00     ld a,(_btol)
  00be  d6 02        sub 02h
  00c0  3a 01 00     ld a,(0001h)
  00c3  de 00        sbc a,00h
  00c5  da 54 01     jp c,0154h
  00c8  2a 00 00     ld hl,(_btol)
  00cb  7e           ld a,(hl)
  00cc  fe 30        cp 30h
  00ce  c2 54 01     jp nz,0154h
  00d1  2a 00 00     ld hl,(_btol)
  00d4  01 01 00     ld bc,0001h
  00d7  09           add hl,bc
  00d8  7e           ld a,(hl)
  00d9  fe 41        cp 41h
  00db  da ff 00     jp c,00ffh
  00de  2a 00 00     ld hl,(_btol)
  00e1  01 01 00     ld bc,0001h
  00e4  09           add hl,bc
  00e5  3e 5a        ld a,5ah
  00e7  be           cp (hl)
  00e8  da ff 00     jp c,00ffh
  00eb  2a 00 00     ld hl,(_btol)
  00ee  01 01 00     ld bc,0001h
  00f1  09           add hl,bc
  00f2  7e           ld a,(hl)
  00f3  4f           ld c,a
  00f4  97           sub a
  00f5  47           ld b,a
  00f6  21 20 00     ld hl,0020h
  00f9  09           add hl,bc
  00fa  4d           ld c,l
  00fb  44           ld b,h
  00fc  c3 0a 01     jp 010ah
  00ff  2a 00 00     ld hl,(_btol)
  0102  01 01 00     ld bc,0001h
  0105  09           add hl,bc
  0106  7e           ld a,(hl)
  0107  4f           ld c,a
  0108  97           sub a
  0109  47           ld b,a
  010a  79           ld a,c
  010b  fe 78        cp 78h
  010d  c2 13 01     jp nz,0113h
  0110  78           ld a,b
  0111  fe 00        cp 00h
  0113  c2 54 01     jp nz,0154h
  0116  2a 00 00     ld hl,(_btol)
  0119  23           inc hl
  011a  23           inc hl
  011b  22 00 00     ld (_btol),hl
  011e  3a 00 00     ld a,(_btol)
  0121  d6 02        sub 02h
  0123  32 00 00     ld (_btol),a
  0126  3a 01 00     ld a,(0001h)
  0129  de 00        sbc a,00h
  012b  32 01 00     ld (0001h),a
  012e  c3 54 01     jp 0154h
  0131  2a 00 00     ld hl,(_btol)
  0134  7e           ld a,(hl)
  0135  fe 2b        cp 2bh
  0137  c2 aa 00     jp nz,00aah
  013a  2a 00 00     ld hl,(_btol)
  013d  23           inc hl
  013e  22 00 00     ld (_btol),hl
  0141  3a 00 00     ld a,(_btol)
  0144  d6 01        sub 01h
  0146  32 00 00     ld (_btol),a
  0149  3a 01 00     ld a,(0001h)
  014c  de 00        sbc a,00h
  014e  32 01 00     ld (0001h),a
  0151  c3 aa 00     jp 00aah
  0154  21 00 00     ld hl,_btol
  0157  7e           ld a,(hl)
  0158  23           inc hl
  0159  b6           or (hl)
  015a  ca 82 01     jp z,0182h
  015d  2a 00 00     ld hl,(_btol)
  0160  7e           ld a,(hl)
  0161  fe 30        cp 30h
  0163  da 12 02     jp c,0212h
  0166  2a 00 00     ld hl,(_btol)
  0169  3e 39        ld a,39h
  016b  be           cp (hl)
  016c  da 12 02     jp c,0212h
  016f  2a 00 00     ld hl,(_btol)
  0172  7e           ld a,(hl)
  0173  4f           ld c,a
  0174  97           sub a
  0175  47           ld b,a
  0176  69           ld l,c
  0177  60           ld h,b
  0178  01 d0 ff     ld bc,ffd0h
  017b  09           add hl,bc
  017c  22 00 00     ld (_btol),hl
  017f  c3 27 02     jp 0227h
  0182  21 08 00     ld hl,0008h
  0185  19           add hl,de
  0186  7e           ld a,(hl)
  0187  23           inc hl
  0188  66           ld h,(hl)
  0189  6f           ld l,a
  018a  e5           push hl
  018b  21 f8 ff     ld hl,fff8h
  018e  19           add hl,de
  018f  7e           ld a,(hl)
  0190  23           inc hl
  0191  b6           or (hl)
  0192  ca ac 01     jp z,01ach
  0195  21 f4 ff     ld hl,fff4h
  0198  19           add hl,de
  0199  e5           push hl
  019a  e1           pop hl
  019b  01 00 00     ld bc,_btol
  019e  cd 00 00     call _btol
  01a1  21 00 00     ld hl,_btol
  01a4  e5           push hl
  01a5  cd 00 00     call _btol
  01a8  f1           pop af
  01a9  c3 b6 01     jp 01b6h
  01ac  21 f4 ff     ld hl,fff4h
  01af  19           add hl,de
  01b0  01 00 00     ld bc,_btol
  01b3  cd 00 00     call _btol
  01b6  e1           pop hl
  01b7  3a 00 00     ld a,(_btol)
  01ba  77           ld (hl),a
  01bb  3a 01 00     ld a,(0001h)
  01be  23           inc hl
  01bf  77           ld (hl),a
  01c0  3a 02 00     ld a,(0002h)
  01c3  23           inc hl
  01c4  77           ld (hl),a
  01c5  3a 03 00     ld a,(0003h)
  01c8  23           inc hl
  01c9  77           ld (hl),a
  01ca  21 00 00     ld hl,_btol
  01cd  7e           ld a,(hl)
  01ce  23           inc hl
  01cf  b6           or (hl)
  01d0  ca f9 02     jp z,02f9h
  01d3  2a 00 00     ld hl,(_btol)
  01d6  7e           ld a,(hl)
  01d7  fe 41        cp 41h
  01d9  da f5 01     jp c,01f5h
  01dc  2a 00 00     ld hl,(_btol)
  01df  3e 5a        ld a,5ah
  01e1  be           cp (hl)
  01e2  da f5 01     jp c,01f5h
  01e5  2a 00 00     ld hl,(_btol)
  01e8  7e           ld a,(hl)
  01e9  4f           ld c,a
  01ea  97           sub a
  01eb  47           ld b,a
  01ec  21 20 00     ld hl,0020h
  01ef  09           add hl,bc
  01f0  4d           ld c,l
  01f1  44           ld b,h
  01f2  c3 fc 01     jp 01fch
  01f5  2a 00 00     ld hl,(_btol)
  01f8  7e           ld a,(hl)
  01f9  4f           ld c,a
  01fa  97           sub a
  01fb  47           ld b,a
  01fc  79           ld a,c
  01fd  fe 6c        cp 6ch
  01ff  c2 05 02     jp nz,0205h
  0202  78           ld a,b
  0203  fe 00        cp 00h
  0205  c2 f9 02     jp nz,02f9h
  0208  2a 00 00     ld hl,(_btol)
  020b  23           inc hl
  020c  22 00 00     ld (_btol),hl
  020f  c3 f9 02     jp 02f9h
  0212  2a 00 00     ld hl,(_btol)
  0215  7e           ld a,(hl)
  0216  fe 61        cp 61h
  0218  da a2 02     jp c,02a2h
  021b  2a 00 00     ld hl,(_btol)
  021e  3e 7a        ld a,7ah
  0220  be           cp (hl)
  0221  d2 b4 02     jp nc,02b4h
  0224  c3 a2 02     jp 02a2h
  0227  21 f4 ff     ld hl,fff4h
  022a  19           add hl,de
  022b  e5           push hl
  022c  21 f4 ff     ld hl,fff4h
  022f  19           add hl,de
  0230  e5           push hl
  0231  e1           pop hl
  0232  01 00 00     ld bc,_btol
  0235  cd 00 00     call _btol
  0238  21 00 00     ld hl,_btol
  023b  e5           push hl
  023c  21 0a 00     ld hl,000ah
  023f  19           add hl,de
  0240  23           inc hl
  0241  7e           ld a,(hl)
  0242  87           add a,a
  0243  9f           sbc a,a
  0244  32 00 00     ld (_btol),a
  0247  32 01 00     ld (0001h),a
  024a  7e           ld a,(hl)
  024b  32 03 00     ld (0003h),a
  024e  2b           dec hl
  024f  7e           ld a,(hl)
  0250  32 02 00     ld (0002h),a
  0253  21 00 00     ld hl,_btol
  0256  e5           push hl
  0257  cd 00 00     call _btol
  025a  3a 01 00     ld a,(0001h)
  025d  87           add a,a
  025e  9f           sbc a,a
  025f  32 00 00     ld (_btol),a
  0262  32 01 00     ld (0001h),a
  0265  3a 01 00     ld a,(0001h)
  0268  32 03 00     ld (0003h),a
  026b  3a 00 00     ld a,(_btol)
  026e  32 02 00     ld (0002h),a
  0271  21 00 00     ld hl,_btol
  0274  e5           push hl
  0275  cd 00 00     call _btol
  0278  e1           pop hl
  0279  c1           pop bc
  027a  7e           ld a,(hl)
  027b  02           ld (bc),a
  027c  23           inc hl
  027d  7e           ld a,(hl)
  027e  03           inc bc
  027f  02           ld (bc),a
  0280  23           inc hl
  0281  7e           ld a,(hl)
  0282  03           inc bc
  0283  02           ld (bc),a
  0284  23           inc hl
  0285  7e           ld a,(hl)
  0286  03           inc bc
  0287  02           ld (bc),a
  0288  3a 00 00     ld a,(_btol)
  028b  d6 01        sub 01h
  028d  32 00 00     ld (_btol),a
  0290  3a 01 00     ld a,(0001h)
  0293  de 00        sbc a,00h
  0295  32 01 00     ld (0001h),a
  0298  2a 00 00     ld hl,(_btol)
  029b  23           inc hl
  029c  22 00 00     ld (_btol),hl
  029f  c3 54 01     jp 0154h
  02a2  2a 00 00     ld hl,(_btol)
  02a5  7e           ld a,(hl)
  02a6  fe 41        cp 41h
  02a8  da 82 01     jp c,0182h
  02ab  2a 00 00     ld hl,(_btol)
  02ae  3e 5a        ld a,5ah
  02b0  be           cp (hl)
  02b1  da 82 01     jp c,0182h
  02b4  2a 00 00     ld hl,(_btol)
  02b7  7e           ld a,(hl)
  02b8  fe 41        cp 41h
  02ba  da d6 02     jp c,02d6h
  02bd  2a 00 00     ld hl,(_btol)
  02c0  3e 5a        ld a,5ah
  02c2  be           cp (hl)
  02c3  da d6 02     jp c,02d6h
  02c6  2a 00 00     ld hl,(_btol)
  02c9  7e           ld a,(hl)
  02ca  4f           ld c,a
  02cb  97           sub a
  02cc  47           ld b,a
  02cd  21 20 00     ld hl,0020h
  02d0  09           add hl,bc
  02d1  4d           ld c,l
  02d2  44           ld b,h
  02d3  c3 dd 02     jp 02ddh
  02d6  2a 00 00     ld hl,(_btol)
  02d9  7e           ld a,(hl)
  02da  4f           ld c,a
  02db  97           sub a
  02dc  47           ld b,a
  02dd  69           ld l,c
  02de  60           ld h,b
  02df  01 a9 ff     ld bc,ffa9h
  02e2  09           add hl,bc
  02e3  22 00 00     ld (_btol),hl
  02e6  21 0a 00     ld hl,000ah
  02e9  19           add hl,de
  02ea  3a 00 00     ld a,(_btol)
  02ed  96           sub (hl)
  02ee  3a 01 00     ld a,(0001h)
  02f1  23           inc hl
  02f2  9e           sbc a,(hl)
  02f3  fa 27 02     jp m,0227h
  02f6  c3 82 01     jp 0182h
  02f9  2a 00 00     ld hl,(_btol)
  02fc  e5           push hl
  02fd  21 f2 ff     ld hl,fff2h
  0300  19           add hl,de
  0301  c1           pop bc
  0302  79           ld a,c
  0303  96           sub (hl)
  0304  4f           ld c,a
  0305  78           ld a,b
  0306  23           inc hl
  0307  9e           sbc a,(hl)
  0308  47           ld b,a
  0309  c3 00 00     jp _btol

Data segment: (empty)

Symbol table: 12 symbols (9-char names)
  Index  Value  Type Seg    Global  Name
  -----  -----  ---- -----  ------  ----
  [  0]  0000   08   ext    yes      c.lneg
  [  1]  0000   08   ext    yes      c.r4
  [  2]  0000   08   ext    yes      c.r3
  [  3]  0000   08   ext    yes      c.r2
  [  4]  0000   08   ext    yes      c.r1
  [  5]  0000   08   ext    yes      c.r0
  [  6]  0000   08   ext    yes      c.ladd
  [  7]  0000   08   ext    yes      c.rets
  [  8]  0000   08   ext    yes      c.lmul
  [  9]  0000   08   ext    yes      c.ents
  [ 10]  0000   08   ext    yes      c.lcpy
  [ 11]  0000   0d   text   yes      _btol

Text relocations:
  Offset  Type        Target
  ------  ----        ------
  0001    word        symbol[9]
  0010    word        symbol[1]
  001b    word        symbol[3]
  002e    word        symbol[1]
  0032    word        symbol[1]
  003f    word        symbol[3]
  0045    word        text segment
  0048    word        symbol[1]
  004e    word        text segment
  0051    word        symbol[1]
  0057    word        text segment
  005a    word        symbol[3]
  0060    word        text segment
  0063    word        symbol[1]
  0069    word        text segment
  0077    word        symbol[1]
  007b    word        symbol[1]
  007e    word        symbol[3]
  0083    word        symbol[3]
  0086    word        symbol[3]
  008b    word        symbol[3]
  008e    word        text segment
  0091    word        symbol[3]
  0096    word        symbol[3]
  0099    word        symbol[3]
  009e    word        symbol[3]
  00a1    word        symbol[1]
  00a5    word        symbol[1]
  00a8    word        text segment
  00b2    word        text segment
  00b9    word        text segment
  00bc    word        symbol[3]
  00c1    word        symbol[3]
  00c6    word        text segment
  00c9    word        symbol[1]
  00cf    word        text segment
  00d2    word        symbol[1]
  00dc    word        text segment
  00df    word        symbol[1]
  00e9    word        text segment
  00ec    word        symbol[1]
  00fd    word        text segment
  0100    word        symbol[1]
  010e    word        text segment
  0114    word        text segment
  0117    word        symbol[1]
  011c    word        symbol[1]
  011f    word        symbol[3]
  0124    word        symbol[3]
  0127    word        symbol[3]
  012c    word        symbol[3]
  012f    word        text segment
  0132    word        symbol[1]
  0138    word        text segment
  013b    word        symbol[1]
  013f    word        symbol[1]
  0142    word        symbol[3]
  0147    word        symbol[3]
  014a    word        symbol[3]
  014f    word        symbol[3]
  0152    word        text segment
  0155    word        symbol[3]
  015b    word        text segment
  015e    word        symbol[1]
  0164    word        text segment
  0167    word        symbol[1]
  016d    word        text segment
  0170    word        symbol[1]
  017d    word        symbol[2]
  0180    word        text segment
  0193    word        text segment
  019c    word        symbol[5]
  019f    word        symbol[10]
  01a2    word        symbol[5]
  01a6    word        symbol[0]
  01aa    word        text segment
  01b1    word        symbol[5]
  01b4    word        symbol[10]
  01b8    word        symbol[5]
  01bc    word        symbol[5]
  01c1    word        symbol[5]
  01c6    word        symbol[5]
  01cb    word        symbol[3]
  01d1    word        text segment
  01d4    word        symbol[1]
  01da    word        text segment
  01dd    word        symbol[1]
  01e3    word        text segment
  01e6    word        symbol[1]
  01f3    word        text segment
  01f6    word        symbol[1]
  0200    word        text segment
  0206    word        text segment
  0209    word        symbol[1]
  020d    word        symbol[1]
  0210    word        text segment
  0213    word        symbol[1]
  0219    word        text segment
  021c    word        symbol[1]
  0222    word        text segment
  0225    word        text segment
  0233    word        symbol[5]
  0236    word        symbol[10]
  0239    word        symbol[5]
  0245    word        symbol[4]
  0248    word        symbol[4]
  024c    word        symbol[4]
  0251    word        symbol[4]
  0254    word        symbol[4]
  0258    word        symbol[8]
  025b    word        symbol[2]
  0260    word        symbol[4]
  0263    word        symbol[4]
  0266    word        symbol[2]
  0269    word        symbol[4]
  026c    word        symbol[2]
  026f    word        symbol[4]
  0272    word        symbol[4]
  0276    word        symbol[6]
  0289    word        symbol[3]
  028e    word        symbol[3]
  0291    word        symbol[3]
  0296    word        symbol[3]
  0299    word        symbol[1]
  029d    word        symbol[1]
  02a0    word        text segment
  02a3    word        symbol[1]
  02a9    word        text segment
  02ac    word        symbol[1]
  02b2    word        text segment
  02b5    word        symbol[1]
  02bb    word        text segment
  02be    word        symbol[1]
  02c4    word        text segment
  02c7    word        symbol[1]
  02d4    word        text segment
  02d7    word        symbol[1]
  02e4    word        symbol[2]
  02eb    word        symbol[2]
  02ef    word        symbol[2]
  02f4    word        text segment
  02f7    word        text segment
  02fa    word        symbol[1]
  030a    word        symbol[7]

Data relocations:
  Offset  Type        Target
  ------  ----        ------
  (none)

