=== lib/libws/cnorm.o ===

Header:
  Magic:       0x99
  Config:      0x14 little-endian
  Symlen:      9 chars
  Symtab:      240 bytes (20 symbols)
  Text:        654 bytes
  Data:        0 bytes
  BSS:         0 bytes
  Heap:        0 bytes
  Text offset: 0x0000
  Data offset: 0x028e

Disassembly: 654 bytes
__norm:
  0000  cd 00 00     call __norm
  0003  21 f6 ff     ld hl,fff6h
  0006  39           add hl,sp
  0007  f9           ld sp,hl
  0008  21 04 00     ld hl,0004h
  000b  19           add hl,de
  000c  7e           ld a,(hl)
  000d  23           inc hl
  000e  66           ld h,(hl)
  000f  6f           ld l,a
  0010  22 00 00     ld (__norm),hl
  0013  97           sub a
  0014  32 00 00     ld (__norm),a
  0017  32 01 00     ld (0001h),a
  001a  21 06 00     ld hl,0006h
  001d  19           add hl,de
  001e  23           inc hl
  001f  7e           ld a,(hl)
  0020  b7           or a
  0021  f2 40 00     jp p,0040h
  0024  21 06 00     ld hl,0006h
  0027  19           add hl,de
  0028  e5           push hl
  0029  21 06 00     ld hl,0006h
  002c  19           add hl,de
  002d  e5           push hl
  002e  e1           pop hl
  002f  01 00 00     ld bc,__norm
  0032  cd 00 00     call __norm
  0035  21 00 00     ld hl,__norm
  0038  e5           push hl
  0039  cd 00 00     call __norm
  003c  cd 00 00     call __norm
  003f  f1           pop af
  0040  21 06 00     ld hl,0006h
  0043  19           add hl,de
  0044  7e           ld a,(hl)
  0045  23           inc hl
  0046  b6           or (hl)
  0047  ca c9 00     jp z,00c9h
  004a  21 06 00     ld hl,0006h
  004d  19           add hl,de
  004e  e5           push hl
  004f  21 00 00     ld hl,__norm
  0052  e5           push hl
  0053  cd 00 00     call __norm
  0056  fa 69 01     jp m,0169h
  0059  2a 00 00     ld hl,(__norm)
  005c  01 ff ff     ld bc,ffffh
  005f  09           add hl,bc
  0060  22 00 00     ld (__norm),hl
  0063  21 00 00     ld hl,__norm
  0066  97           sub a
  0067  96           sub (hl)
  0068  3e 00        ld a,00h
  006a  23           inc hl
  006b  9e           sbc a,(hl)
  006c  f2 ff 01     jp p,01ffh
  006f  21 06 00     ld hl,0006h
  0072  19           add hl,de
  0073  e5           push hl
  0074  2a 00 00     ld hl,(__norm)
  0077  29           add hl,hl
  0078  29           add hl,hl
  0079  29           add hl,hl
  007a  01 00 00     ld bc,__norm
  007d  09           add hl,bc
  007e  e5           push hl
  007f  cd 00 00     call __norm
  0082  fa 38 02     jp m,0238h
  0085  21 06 00     ld hl,0006h
  0088  19           add hl,de
  0089  e5           push hl
  008a  21 06 00     ld hl,0006h
  008d  19           add hl,de
  008e  e5           push hl
  008f  e1           pop hl
  0090  01 00 00     ld bc,__norm
  0093  cd 00 00     call __norm
  0096  21 00 00     ld hl,__norm
  0099  e5           push hl
  009a  2a 00 00     ld hl,(__norm)
  009d  29           add hl,hl
  009e  29           add hl,hl
  009f  29           add hl,hl
  00a0  01 00 00     ld bc,__norm
  00a3  09           add hl,bc
  00a4  e5           push hl
  00a5  cd 00 00     call __norm
  00a8  cd 00 00     call __norm
  00ab  f1           pop af
  00ac  2a 00 00     ld hl,(__norm)
  00af  e5           push hl
  00b0  21 01 00     ld hl,0001h
  00b3  e5           push hl
  00b4  2a 00 00     ld hl,(__norm)
  00b7  01 ff ff     ld bc,ffffh
  00ba  09           add hl,bc
  00bb  e5           push hl
  00bc  cd 00 00     call __norm
  00bf  e1           pop hl
  00c0  e3           ex (sp),hl
  00c1  c1           pop bc
  00c2  09           add hl,bc
  00c3  22 00 00     ld (__norm),hl
  00c6  c3 38 02     jp 0238h
  00c9  97           sub a
  00ca  32 00 00     ld (__norm),a
  00cd  32 01 00     ld (0001h),a
  00d0  21 0e 00     ld hl,000eh
  00d3  19           add hl,de
  00d4  3a 00 00     ld a,(__norm)
  00d7  96           sub (hl)
  00d8  3a 01 00     ld a,(0001h)
  00db  23           inc hl
  00dc  9e           sbc a,(hl)
  00dd  d2 5e 02     jp nc,025eh
  00e0  21 06 00     ld hl,0006h
  00e3  19           add hl,de
  00e4  7e           ld a,(hl)
  00e5  23           inc hl
  00e6  b6           or (hl)
  00e7  ca 5e 02     jp z,025eh
  00ea  21 f0 ff     ld hl,fff0h
  00ed  19           add hl,de
  00ee  e5           push hl
  00ef  21 06 00     ld hl,0006h
  00f2  19           add hl,de
  00f3  e5           push hl
  00f4  e1           pop hl
  00f5  01 00 00     ld bc,__norm
  00f8  cd 00 00     call __norm
  00fb  21 00 00     ld hl,__norm
  00fe  e5           push hl
  00ff  21 08 00     ld hl,0008h
  0102  e5           push hl
  0103  cd 00 00     call __norm
  0106  cd 00 00     call __norm
  0109  f1           pop af
  010a  21 f8 ff     ld hl,fff8h
  010d  19           add hl,de
  010e  e5           push hl
  010f  21 f0 ff     ld hl,fff0h
  0112  19           add hl,de
  0113  e5           push hl
  0114  cd 00 00     call __norm
  0117  f1           pop af
  0118  21 06 00     ld hl,0006h
  011b  19           add hl,de
  011c  e5           push hl
  011d  21 f0 ff     ld hl,fff0h
  0120  19           add hl,de
  0121  e5           push hl
  0122  e1           pop hl
  0123  01 00 00     ld bc,__norm
  0126  cd 00 00     call __norm
  0129  21 00 00     ld hl,__norm
  012c  e5           push hl
  012d  21 00 00     ld hl,__norm
  0130  e5           push hl
  0131  21 f8 ff     ld hl,fff8h
  0134  19           add hl,de
  0135  4e           ld c,(hl)
  0136  23           inc hl
  0137  46           ld b,(hl)
  0138  c5           push bc
  0139  cd 00 00     call __norm
  013c  cd 00 00     call __norm
  013f  cd 00 00     call __norm
  0142  f1           pop af
  0143  2a 00 00     ld hl,(__norm)
  0146  e5           push hl
  0147  2a 00 00     ld hl,(__norm)
  014a  23           inc hl
  014b  22 00 00     ld (__norm),hl
  014e  e1           pop hl
  014f  e5           push hl
  0150  21 f8 ff     ld hl,fff8h
  0153  19           add hl,de
  0154  7e           ld a,(hl)
  0155  23           inc hl
  0156  66           ld h,(hl)
  0157  6f           ld l,a
  0158  01 30 00     ld bc,0030h
  015b  09           add hl,bc
  015c  c1           pop bc
  015d  7d           ld a,l
  015e  02           ld (bc),a
  015f  2a 00 00     ld hl,(__norm)
  0162  23           inc hl
  0163  22 00 00     ld (__norm),hl
  0166  c3 d0 00     jp 00d0h
  0169  21 06 00     ld hl,0006h
  016c  19           add hl,de
  016d  e5           push hl
  016e  e1           pop hl
  016f  01 00 00     ld bc,__norm
  0172  cd 00 00     call __norm
  0175  21 00 00     ld hl,__norm
  0178  e5           push hl
  0179  21 08 00     ld hl,0008h
  017c  e5           push hl
  017d  cd 00 00     call __norm
  0180  21 00 00     ld hl,__norm
  0183  e5           push hl
  0184  cd 00 00     call __norm
  0187  f2 c9 00     jp p,00c9h
  018a  2a 00 00     ld hl,(__norm)
  018d  01 ff ff     ld bc,ffffh
  0190  09           add hl,bc
  0191  22 00 00     ld (__norm),hl
  0194  21 00 00     ld hl,__norm
  0197  97           sub a
  0198  96           sub (hl)
  0199  3e 00        ld a,00h
  019b  23           inc hl
  019c  9e           sbc a,(hl)
  019d  f2 c9 00     jp p,00c9h
  01a0  21 f0 ff     ld hl,fff0h
  01a3  19           add hl,de
  01a4  e5           push hl
  01a5  2a 00 00     ld hl,(__norm)
  01a8  29           add hl,hl
  01a9  29           add hl,hl
  01aa  29           add hl,hl
  01ab  01 00 00     ld bc,__norm
  01ae  09           add hl,bc
  01af  e5           push hl
  01b0  e1           pop hl
  01b1  01 00 00     ld bc,__norm
  01b4  cd 00 00     call __norm
  01b7  21 00 00     ld hl,__norm
  01ba  e5           push hl
  01bb  21 06 00     ld hl,0006h
  01be  19           add hl,de
  01bf  e5           push hl
  01c0  cd 00 00     call __norm
  01c3  cd 00 00     call __norm
  01c6  21 00 00     ld hl,__norm
  01c9  e5           push hl
  01ca  cd 00 00     call __norm
  01cd  f2 4b 02     jp p,024bh
  01d0  21 06 00     ld hl,0006h
  01d3  19           add hl,de
  01d4  e5           push hl
  01d5  21 f0 ff     ld hl,fff0h
  01d8  19           add hl,de
  01d9  e5           push hl
  01da  cd 00 00     call __norm
  01dd  f1           pop af
  01de  21 01 00     ld hl,0001h
  01e1  e5           push hl
  01e2  2a 00 00     ld hl,(__norm)
  01e5  01 ff ff     ld bc,ffffh
  01e8  09           add hl,bc
  01e9  e5           push hl
  01ea  cd 00 00     call __norm
  01ed  e1           pop hl
  01ee  3a 00 00     ld a,(__norm)
  01f1  95           sub l
  01f2  32 00 00     ld (__norm),a
  01f5  3a 01 00     ld a,(0001h)
  01f8  9c           sbc a,h
  01f9  32 01 00     ld (0001h),a
  01fc  c3 4b 02     jp 024bh
  01ff  21 06 00     ld hl,0006h
  0202  19           add hl,de
  0203  e5           push hl
  0204  21 00 00     ld hl,__norm
  0207  e5           push hl
  0208  cd 00 00     call __norm
  020b  fa c9 00     jp m,00c9h
  020e  21 06 00     ld hl,0006h
  0211  19           add hl,de
  0212  e5           push hl
  0213  21 06 00     ld hl,0006h
  0216  19           add hl,de
  0217  e5           push hl
  0218  e1           pop hl
  0219  01 00 00     ld bc,__norm
  021c  cd 00 00     call __norm
  021f  21 00 00     ld hl,__norm
  0222  e5           push hl
  0223  21 08 00     ld hl,0008h
  0226  e5           push hl
  0227  cd 00 00     call __norm
  022a  cd 00 00     call __norm
  022d  f1           pop af
  022e  2a 00 00     ld hl,(__norm)
  0231  23           inc hl
  0232  22 00 00     ld (__norm),hl
  0235  c3 c9 00     jp 00c9h
  0238  3a 00 00     ld a,(__norm)
  023b  d6 01        sub 01h
  023d  32 00 00     ld (__norm),a
  0240  3a 01 00     ld a,(0001h)
  0243  de 00        sbc a,00h
  0245  32 01 00     ld (0001h),a
  0248  c3 63 00     jp 0063h
  024b  3a 00 00     ld a,(__norm)
  024e  d6 01        sub 01h
  0250  32 00 00     ld (__norm),a
  0253  3a 01 00     ld a,(0001h)
  0256  de 00        sbc a,00h
  0258  32 01 00     ld (0001h),a
  025b  c3 94 01     jp 0194h
  025e  21 0e 00     ld hl,000eh
  0261  19           add hl,de
  0262  3a 00 00     ld a,(__norm)
  0265  96           sub (hl)
  0266  3a 01 00     ld a,(0001h)
  0269  23           inc hl
  026a  9e           sbc a,(hl)
  026b  d2 86 02     jp nc,0286h
  026e  2a 00 00     ld hl,(__norm)
  0271  e5           push hl
  0272  2a 00 00     ld hl,(__norm)
  0275  23           inc hl
  0276  22 00 00     ld (__norm),hl
  0279  e1           pop hl
  027a  36 30        ld (hl),30h
  027c  2a 00 00     ld hl,(__norm)
  027f  23           inc hl
  0280  22 00 00     ld (__norm),hl
  0283  c3 5e 02     jp 025eh
  0286  2a 00 00     ld hl,(__norm)
  0289  4d           ld c,l
  028a  44           ld b,h
  028b  c3 00 00     jp __norm

Data segment: (empty)

Symbol table: 20 symbols (9-char names)
  Index  Value  Type Seg    Global  Name
  -----  -----  ---- -----  ------  ----
  [  0]  0000   08   ext    yes      c.dsub
  [  1]  0000   08   ext    yes      c.ddiv
  [  2]  0000   08   ext    yes      c.r4
  [  3]  0000   08   ext    yes      c.r3
  [  4]  0000   08   ext    yes      c.dcmp
  [  5]  0000   08   ext    yes      c.r2
  [  6]  0000   08   ext    yes      c.r1
  [  7]  0000   08   ext    yes      c.r0
  [  8]  0000   08   ext    yes      c.dneg
  [  9]  0000   08   ext    yes      __ntens
  [ 10]  0000   08   ext    yes      __dtens
  [ 11]  0000   08   ext    yes      c.itd
  [ 12]  0000   08   ext    yes      c.dti
  [ 13]  0000   08   ext    yes      c.rets
  [ 14]  0000   08   ext    yes      c.dtd
  [ 15]  0000   08   ext    yes      c.ents
  [ 16]  0000   08   ext    yes      c.dmul
  [ 17]  0000   08   ext    yes      c.ilsh
  [ 18]  0000   08   ext    yes      c.dcpy
  [ 19]  0000   0d   text   yes      __norm

Text relocations:
  Offset  Type        Target
  ------  ----        ------
  0001    word        symbol[15]
  0011    word        symbol[2]
  0015    word        symbol[5]
  0018    word        symbol[5]
  0022    word        text segment
  0030    word        symbol[7]
  0033    word        symbol[18]
  0036    word        symbol[7]
  003a    word        symbol[8]
  003d    word        symbol[14]
  0048    word        text segment
  0050    word        symbol[10]
  0054    word        symbol[4]
  0057    word        text segment
  005a    word        symbol[9]
  0061    word        symbol[3]
  0064    word        symbol[3]
  006d    word        text segment
  0075    word        symbol[3]
  007b    word        symbol[10]
  0080    word        symbol[4]
  0083    word        text segment
  0091    word        symbol[7]
  0094    word        symbol[18]
  0097    word        symbol[7]
  009b    word        symbol[3]
  00a1    word        symbol[10]
  00a6    word        symbol[1]
  00a9    word        symbol[14]
  00ad    word        symbol[5]
  00b5    word        symbol[3]
  00bd    word        symbol[17]
  00c4    word        symbol[5]
  00c7    word        text segment
  00cb    word        symbol[3]
  00ce    word        symbol[3]
  00d5    word        symbol[3]
  00d9    word        symbol[3]
  00de    word        text segment
  00e8    word        text segment
  00f6    word        symbol[7]
  00f9    word        symbol[18]
  00fc    word        symbol[7]
  0100    word        symbol[10]
  0104    word        symbol[16]
  0107    word        symbol[14]
  0115    word        symbol[12]
  0124    word        symbol[7]
  0127    word        symbol[18]
  012a    word        symbol[7]
  012e    word        symbol[6]
  013a    word        symbol[11]
  013d    word        symbol[0]
  0140    word        symbol[14]
  0144    word        symbol[2]
  0148    word        symbol[2]
  014c    word        symbol[2]
  0160    word        symbol[3]
  0164    word        symbol[3]
  0167    word        text segment
  0170    word        symbol[7]
  0173    word        symbol[18]
  0176    word        symbol[7]
  017a    word        symbol[10]
  017e    word        symbol[16]
  0181    word        symbol[10]
  0185    word        symbol[4]
  0188    word        text segment
  018b    word        symbol[9]
  0192    word        symbol[3]
  0195    word        symbol[3]
  019e    word        text segment
  01a6    word        symbol[3]
  01ac    word        symbol[10]
  01b2    word        symbol[7]
  01b5    word        symbol[18]
  01b8    word        symbol[7]
  01c1    word        symbol[16]
  01c4    word        symbol[14]
  01c7    word        symbol[10]
  01cb    word        symbol[4]
  01ce    word        text segment
  01db    word        symbol[14]
  01e3    word        symbol[3]
  01eb    word        symbol[17]
  01ef    word        symbol[5]
  01f3    word        symbol[5]
  01f6    word        symbol[5]
  01fa    word        symbol[5]
  01fd    word        text segment
  0205    word        symbol[10]
  0209    word        symbol[4]
  020c    word        text segment
  021a    word        symbol[7]
  021d    word        symbol[18]
  0220    word        symbol[7]
  0224    word        symbol[10]
  0228    word        symbol[1]
  022b    word        symbol[14]
  022f    word        symbol[5]
  0233    word        symbol[5]
  0236    word        text segment
  0239    word        symbol[3]
  023e    word        symbol[3]
  0241    word        symbol[3]
  0246    word        symbol[3]
  0249    word        text segment
  024c    word        symbol[3]
  0251    word        symbol[3]
  0254    word        symbol[3]
  0259    word        symbol[3]
  025c    word        text segment
  0263    word        symbol[3]
  0267    word        symbol[3]
  026c    word        text segment
  026f    word        symbol[2]
  0273    word        symbol[2]
  0277    word        symbol[2]
  027d    word        symbol[3]
  0281    word        symbol[3]
  0284    word        text segment
  0287    word        symbol[5]
  028c    word        symbol[13]

Data relocations:
  Offset  Type        Target
  ------  ----        ------
  (none)

