=== lib/libws/dtof.o ===

Header:
  Magic:       0x99
  Config:      0x14 little-endian
  Symlen:      9 chars
  Symtab:      144 bytes (12 symbols)
  Text:        612 bytes
  Data:        0 bytes
  BSS:         0 bytes
  Heap:        0 bytes
  Text offset: 0x0000
  Data offset: 0x0264

Disassembly: 612 bytes
_dtof:
  0000  cd 00 00     call _dtof
  0003  21 ea ff     ld hl,ffeah
  0006  39           add hl,sp
  0007  f9           ld sp,hl
  0008  21 10 00     ld hl,0010h
  000b  19           add hl,de
  000c  7e           ld a,(hl)
  000d  23           inc hl
  000e  66           ld h,(hl)
  000f  6f           ld l,a
  0010  22 00 00     ld (_dtof),hl
  0013  21 04 00     ld hl,0004h
  0016  19           add hl,de
  0017  7e           ld a,(hl)
  0018  23           inc hl
  0019  66           ld h,(hl)
  001a  6f           ld l,a
  001b  22 00 00     ld (_dtof),hl
  001e  21 06 00     ld hl,0006h
  0021  19           add hl,de
  0022  23           inc hl
  0023  7e           ld a,(hl)
  0024  b7           or a
  0025  f2 52 00     jp p,0052h
  0028  2a 00 00     ld hl,(_dtof)
  002b  e5           push hl
  002c  2a 00 00     ld hl,(_dtof)
  002f  23           inc hl
  0030  22 00 00     ld (_dtof),hl
  0033  e1           pop hl
  0034  36 2d        ld (hl),2dh
  0036  21 06 00     ld hl,0006h
  0039  19           add hl,de
  003a  e5           push hl
  003b  21 06 00     ld hl,0006h
  003e  19           add hl,de
  003f  e5           push hl
  0040  e1           pop hl
  0041  01 00 00     ld bc,_dtof
  0044  cd 00 00     call _dtof
  0047  21 00 00     ld hl,_dtof
  004a  e5           push hl
  004b  cd 00 00     call _dtof
  004e  cd 00 00     call _dtof
  0051  f1           pop af
  0052  21 e4 ff     ld hl,ffe4h
  0055  19           add hl,de
  0056  22 00 00     ld (_dtof),hl
  0059  21 f8 ff     ld hl,fff8h
  005c  19           add hl,de
  005d  e5           push hl
  005e  21 12 00     ld hl,0012h
  0061  e5           push hl
  0062  21 06 00     ld hl,0006h
  0065  19           add hl,de
  0066  01 08 00     ld bc,0008h
  0069  09           add hl,bc
  006a  3e 04        ld a,04h
  006c  2b           dec hl
  006d  46           ld b,(hl)
  006e  2b           dec hl
  006f  4e           ld c,(hl)
  0070  c5           push bc
  0071  3d           dec a
  0072  c2 6c 00     jp nz,006ch
  0075  2a 00 00     ld hl,(_dtof)
  0078  e5           push hl
  0079  cd 00 00     call _dtof
  007c  21 0c 00     ld hl,000ch
  007f  39           add hl,sp
  0080  f9           ld sp,hl
  0081  e1           pop hl
  0082  79           ld a,c
  0083  77           ld (hl),a
  0084  78           ld a,b
  0085  23           inc hl
  0086  77           ld (hl),a
  0087  21 f6 ff     ld hl,fff6h
  008a  19           add hl,de
  008b  e5           push hl
  008c  21 f8 ff     ld hl,fff8h
  008f  19           add hl,de
  0090  7e           ld a,(hl)
  0091  23           inc hl
  0092  66           ld h,(hl)
  0093  6f           ld l,a
  0094  e5           push hl
  0095  2a 00 00     ld hl,(_dtof)
  0098  e3           ex (sp),hl
  0099  c1           pop bc
  009a  09           add hl,bc
  009b  c1           pop bc
  009c  7d           ld a,l
  009d  02           ld (bc),a
  009e  7c           ld a,h
  009f  03           inc bc
  00a0  02           ld (bc),a
  00a1  21 f6 ff     ld hl,fff6h
  00a4  19           add hl,de
  00a5  3e 11        ld a,11h
  00a7  96           sub (hl)
  00a8  3e 00        ld a,00h
  00aa  23           inc hl
  00ab  9e           sbc a,(hl)
  00ac  f2 ba 00     jp p,00bah
  00af  21 f6 ff     ld hl,fff6h
  00b2  19           add hl,de
  00b3  3e 11        ld a,11h
  00b5  77           ld (hl),a
  00b6  87           add a,a
  00b7  9f           sbc a,a
  00b8  23           inc hl
  00b9  77           ld (hl),a
  00ba  21 f8 ff     ld hl,fff8h
  00bd  19           add hl,de
  00be  e5           push hl
  00bf  21 f6 ff     ld hl,fff6h
  00c2  19           add hl,de
  00c3  4e           ld c,(hl)
  00c4  23           inc hl
  00c5  46           ld b,(hl)
  00c6  c5           push bc
  00c7  21 12 00     ld hl,0012h
  00ca  e5           push hl
  00cb  21 e4 ff     ld hl,ffe4h
  00ce  19           add hl,de
  00cf  e5           push hl
  00d0  cd 00 00     call _dtof
  00d3  f1           pop af
  00d4  f1           pop af
  00d5  f1           pop af
  00d6  e1           pop hl
  00d7  7e           ld a,(hl)
  00d8  81           add a,c
  00d9  77           ld (hl),a
  00da  23           inc hl
  00db  7e           ld a,(hl)
  00dc  88           adc a,b
  00dd  77           ld (hl),a
  00de  21 0e 00     ld hl,000eh
  00e1  19           add hl,de
  00e2  e5           push hl
  00e3  21 f8 ff     ld hl,fff8h
  00e6  19           add hl,de
  00e7  c1           pop bc
  00e8  0a           ld a,(bc)
  00e9  96           sub (hl)
  00ea  03           inc bc
  00eb  0a           ld a,(bc)
  00ec  23           inc hl
  00ed  9e           sbc a,(hl)
  00ee  f2 1d 01     jp p,011dh
  00f1  21 f8 ff     ld hl,fff8h
  00f4  19           add hl,de
  00f5  7e           ld a,(hl)
  00f6  23           inc hl
  00f7  66           ld h,(hl)
  00f8  6f           ld l,a
  00f9  e5           push hl
  00fa  21 0e 00     ld hl,000eh
  00fd  19           add hl,de
  00fe  c1           pop bc
  00ff  79           ld a,c
  0100  96           sub (hl)
  0101  4f           ld c,a
  0102  78           ld a,b
  0103  23           inc hl
  0104  9e           sbc a,(hl)
  0105  47           ld b,a
  0106  2a 00 00     ld hl,(_dtof)
  0109  09           add hl,bc
  010a  22 00 00     ld (_dtof),hl
  010d  21 f8 ff     ld hl,fff8h
  0110  19           add hl,de
  0111  e5           push hl
  0112  21 0e 00     ld hl,000eh
  0115  19           add hl,de
  0116  c1           pop bc
  0117  7e           ld a,(hl)
  0118  02           ld (bc),a
  0119  23           inc hl
  011a  7e           ld a,(hl)
  011b  03           inc bc
  011c  02           ld (bc),a
  011d  21 f8 ff     ld hl,fff8h
  0120  19           add hl,de
  0121  97           sub a
  0122  96           sub (hl)
  0123  3e 00        ld a,00h
  0125  23           inc hl
  0126  9e           sbc a,(hl)
  0127  fa 55 01     jp m,0155h
  012a  2a 00 00     ld hl,(_dtof)
  012d  e5           push hl
  012e  2a 00 00     ld hl,(_dtof)
  0131  23           inc hl
  0132  22 00 00     ld (_dtof),hl
  0135  e1           pop hl
  0136  36 30        ld (hl),30h
  0138  21 00 00     ld hl,_dtof
  013b  97           sub a
  013c  96           sub (hl)
  013d  3e 00        ld a,00h
  013f  23           inc hl
  0140  9e           sbc a,(hl)
  0141  f2 b0 01     jp p,01b0h
  0144  2a 00 00     ld hl,(_dtof)
  0147  e5           push hl
  0148  2a 00 00     ld hl,(_dtof)
  014b  23           inc hl
  014c  22 00 00     ld (_dtof),hl
  014f  e1           pop hl
  0150  36 2e        ld (hl),2eh
  0152  c3 b0 01     jp 01b0h
  0155  21 f8 ff     ld hl,fff8h
  0158  19           add hl,de
  0159  97           sub a
  015a  96           sub (hl)
  015b  3e 00        ld a,00h
  015d  23           inc hl
  015e  9e           sbc a,(hl)
  015f  f2 38 01     jp p,0138h
  0162  2a 00 00     ld hl,(_dtof)
  0165  e5           push hl
  0166  2a 00 00     ld hl,(_dtof)
  0169  23           inc hl
  016a  22 00 00     ld (_dtof),hl
  016d  e1           pop hl
  016e  e5           push hl
  016f  2a 00 00     ld hl,(_dtof)
  0172  e5           push hl
  0173  21 e4 ff     ld hl,ffe4h
  0176  19           add hl,de
  0177  c1           pop bc
  0178  79           ld a,c
  0179  95           sub l
  017a  4f           ld c,a
  017b  78           ld a,b
  017c  9c           sbc a,h
  017d  47           ld b,a
  017e  79           ld a,c
  017f  d6 11        sub 11h
  0181  78           ld a,b
  0182  de 00        sbc a,00h
  0184  d2 9a 01     jp nc,019ah
  0187  2a 00 00     ld hl,(_dtof)
  018a  e5           push hl
  018b  2a 00 00     ld hl,(_dtof)
  018e  23           inc hl
  018f  22 00 00     ld (_dtof),hl
  0192  e1           pop hl
  0193  7e           ld a,(hl)
  0194  4f           ld c,a
  0195  97           sub a
  0196  47           ld b,a
  0197  c3 9d 01     jp 019dh
  019a  01 30 00     ld bc,0030h
  019d  e1           pop hl
  019e  79           ld a,c
  019f  77           ld (hl),a
  01a0  21 f8 ff     ld hl,fff8h
  01a3  19           add hl,de
  01a4  7e           ld a,(hl)
  01a5  d6 01        sub 01h
  01a7  77           ld (hl),a
  01a8  23           inc hl
  01a9  7e           ld a,(hl)
  01aa  de 00        sbc a,00h
  01ac  77           ld (hl),a
  01ad  c3 55 01     jp 0155h
  01b0  21 f8 ff     ld hl,fff8h
  01b3  19           add hl,de
  01b4  23           inc hl
  01b5  7e           ld a,(hl)
  01b6  b7           or a
  01b7  f2 f4 01     jp p,01f4h
  01ba  21 00 00     ld hl,_dtof
  01bd  97           sub a
  01be  96           sub (hl)
  01bf  3e 00        ld a,00h
  01c1  23           inc hl
  01c2  9e           sbc a,(hl)
  01c3  f2 f4 01     jp p,01f4h
  01c6  2a 00 00     ld hl,(_dtof)
  01c9  e5           push hl
  01ca  2a 00 00     ld hl,(_dtof)
  01cd  23           inc hl
  01ce  22 00 00     ld (_dtof),hl
  01d1  e1           pop hl
  01d2  36 30        ld (hl),30h
  01d4  21 f8 ff     ld hl,fff8h
  01d7  19           add hl,de
  01d8  7e           ld a,(hl)
  01d9  c6 01        add a,01h
  01db  77           ld (hl),a
  01dc  23           inc hl
  01dd  7e           ld a,(hl)
  01de  ce 00        adc a,00h
  01e0  77           ld (hl),a
  01e1  3a 00 00     ld a,(_dtof)
  01e4  d6 01        sub 01h
  01e6  32 00 00     ld (_dtof),a
  01e9  3a 01 00     ld a,(0001h)
  01ec  de 00        sbc a,00h
  01ee  32 01 00     ld (0001h),a
  01f1  c3 b0 01     jp 01b0h
  01f4  21 00 00     ld hl,_dtof
  01f7  97           sub a
  01f8  96           sub (hl)
  01f9  3e 00        ld a,00h
  01fb  23           inc hl
  01fc  9e           sbc a,(hl)
  01fd  f2 51 02     jp p,0251h
  0200  2a 00 00     ld hl,(_dtof)
  0203  e5           push hl
  0204  2a 00 00     ld hl,(_dtof)
  0207  23           inc hl
  0208  22 00 00     ld (_dtof),hl
  020b  e1           pop hl
  020c  e5           push hl
  020d  2a 00 00     ld hl,(_dtof)
  0210  e5           push hl
  0211  21 e4 ff     ld hl,ffe4h
  0214  19           add hl,de
  0215  c1           pop bc
  0216  79           ld a,c
  0217  95           sub l
  0218  4f           ld c,a
  0219  78           ld a,b
  021a  9c           sbc a,h
  021b  47           ld b,a
  021c  79           ld a,c
  021d  d6 11        sub 11h
  021f  78           ld a,b
  0220  de 00        sbc a,00h
  0222  d2 38 02     jp nc,0238h
  0225  2a 00 00     ld hl,(_dtof)
  0228  e5           push hl
  0229  2a 00 00     ld hl,(_dtof)
  022c  23           inc hl
  022d  22 00 00     ld (_dtof),hl
  0230  e1           pop hl
  0231  7e           ld a,(hl)
  0232  4f           ld c,a
  0233  97           sub a
  0234  47           ld b,a
  0235  c3 3b 02     jp 023bh
  0238  01 30 00     ld bc,0030h
  023b  e1           pop hl
  023c  79           ld a,c
  023d  77           ld (hl),a
  023e  3a 00 00     ld a,(_dtof)
  0241  d6 01        sub 01h
  0243  32 00 00     ld (_dtof),a
  0246  3a 01 00     ld a,(0001h)
  0249  de 00        sbc a,00h
  024b  32 01 00     ld (0001h),a
  024e  c3 f4 01     jp 01f4h
  0251  2a 00 00     ld hl,(_dtof)
  0254  e5           push hl
  0255  21 04 00     ld hl,0004h
  0258  19           add hl,de
  0259  c1           pop bc
  025a  79           ld a,c
  025b  96           sub (hl)
  025c  4f           ld c,a
  025d  78           ld a,b
  025e  23           inc hl
  025f  9e           sbc a,(hl)
  0260  47           ld b,a
  0261  c3 00 00     jp _dtof

Data segment: (empty)

Symbol table: 12 symbols (9-char names)
  Index  Value  Type Seg    Global  Name
  -----  -----  ---- -----  ------  ----
  [  0]  0000   08   ext    yes      __norm
  [  1]  0000   08   ext    yes      c.r4
  [  2]  0000   08   ext    yes      c.r3
  [  3]  0000   08   ext    yes      c.r2
  [  4]  0000   08   ext    yes      c.r0
  [  5]  0000   08   ext    yes      c.dneg
  [  6]  0000   08   ext    yes      __round
  [  7]  0000   08   ext    yes      c.rets
  [  8]  0000   08   ext    yes      c.dtd
  [  9]  0000   08   ext    yes      c.ents
  [ 10]  0000   08   ext    yes      c.dcpy
  [ 11]  0000   0d   text   yes      _dtof

Text relocations:
  Offset  Type        Target
  ------  ----        ------
  0001    word        symbol[9]
  0011    word        symbol[1]
  001c    word        symbol[2]
  0026    word        text segment
  0029    word        symbol[2]
  002d    word        symbol[2]
  0031    word        symbol[2]
  0042    word        symbol[4]
  0045    word        symbol[10]
  0048    word        symbol[4]
  004c    word        symbol[5]
  004f    word        symbol[8]
  0057    word        symbol[3]
  0073    word        text segment
  0076    word        symbol[3]
  007a    word        symbol[0]
  0096    word        symbol[1]
  00ad    word        text segment
  00d1    word        symbol[6]
  00ef    word        text segment
  0107    word        symbol[3]
  010b    word        symbol[3]
  0128    word        text segment
  012b    word        symbol[2]
  012f    word        symbol[2]
  0133    word        symbol[2]
  0139    word        symbol[1]
  0142    word        text segment
  0145    word        symbol[2]
  0149    word        symbol[2]
  014d    word        symbol[2]
  0153    word        text segment
  0160    word        text segment
  0163    word        symbol[2]
  0167    word        symbol[2]
  016b    word        symbol[2]
  0170    word        symbol[3]
  0185    word        text segment
  0188    word        symbol[3]
  018c    word        symbol[3]
  0190    word        symbol[3]
  0198    word        text segment
  01ae    word        text segment
  01b8    word        text segment
  01bb    word        symbol[1]
  01c4    word        text segment
  01c7    word        symbol[2]
  01cb    word        symbol[2]
  01cf    word        symbol[2]
  01e2    word        symbol[1]
  01e7    word        symbol[1]
  01ea    word        symbol[1]
  01ef    word        symbol[1]
  01f2    word        text segment
  01f5    word        symbol[1]
  01fe    word        text segment
  0201    word        symbol[2]
  0205    word        symbol[2]
  0209    word        symbol[2]
  020e    word        symbol[3]
  0223    word        text segment
  0226    word        symbol[3]
  022a    word        symbol[3]
  022e    word        symbol[3]
  0236    word        text segment
  023f    word        symbol[1]
  0244    word        symbol[1]
  0247    word        symbol[1]
  024c    word        symbol[1]
  024f    word        text segment
  0252    word        symbol[2]
  0262    word        symbol[7]

Data relocations:
  Offset  Type        Target
  ------  ----        ------
  (none)

