=== lib/libws/fclose.o ===

Header:
  Magic:       0x99
  Config:      0x14 little-endian
  Symlen:      9 chars
  Symtab:      120 bytes (10 symbols)
  Text:        289 bytes
  Data:        0 bytes
  BSS:         0 bytes
  Heap:        0 bytes
  Text offset: 0x0000
  Data offset: 0x0121

Disassembly: 289 bytes
  0000  77           ld (hl),a
  0001  72           ld (hl),d
  0002  69           ld l,c
  0003  74           ld (hl),h
  0004  65           ld h,l
  0005  20 65        jr nz,006ch
  0007  72           ld (hl),d
  0008  72           ld (hl),d
  0009  6f           ld l,a
  000a  72           ld (hl),d
  000b  00           nop
  000c  62           ld h,d
  000d  61           ld h,c
  000e  64           ld h,h
  000f  20 66        jr nz,0077h
  0011  63           ld h,e
  0012  6c           ld l,h
  0013  6f           ld l,a
  0014  73           ld (hl),e
  0015  65           ld h,l
  0016  20 63        jr nz,007bh
  0018  61           ld h,c
  0019  6c           ld l,h
  001a  6c           ld l,h
  001b  00           nop
_fclose:
  001c  cd 00 00     call 0000h
  001f  21 04 00     ld hl,0004h
  0022  19           add hl,de
  0023  7e           ld a,(hl)
  0024  23           inc hl
  0025  66           ld h,(hl)
  0026  6f           ld l,a
  0027  22 00 00     ld (0000h),hl
  002a  21 00 00     ld hl,0000h
  002d  7e           ld a,(hl)
  002e  23           inc hl
  002f  b6           or (hl)
  0030  c2 40 00     jp nz,0040h
  0033  21 00 00     ld hl,0000h
  0036  e5           push hl
  0037  21 0c 00     ld hl,000ch
  003a  e5           push hl
  003b  cd 00 00     call 0000h
  003e  f1           pop af
  003f  f1           pop af
  0040  21 00 00     ld hl,0000h
  0043  22 00 00     ld (0000h),hl
  0046  2a 00 00     ld hl,(0000h)
  0049  7e           ld a,(hl)
  004a  23           inc hl
  004b  66           ld h,(hl)
  004c  6f           ld l,a
  004d  22 00 00     ld (0000h),hl
  0050  21 00 00     ld hl,0000h
  0053  7e           ld a,(hl)
  0054  23           inc hl
  0055  b6           or (hl)
  0056  ca 7d 00     jp z,007dh
  0059  21 00 00     ld hl,0000h
  005c  3a 00 00     ld a,(0000h)
  005f  be           cp (hl)
  0060  c2 68 00     jp nz,0068h
  0063  3a 01 00     ld a,(0001h)
  0066  23           inc hl
  0067  be           cp (hl)
  0068  c2 a8 00     jp nz,00a8h
  006b  2a 00 00     ld hl,(0000h)
  006e  e5           push hl
  006f  2a 00 00     ld hl,(0000h)
  0072  01 06 00     ld bc,0006h
  0075  09           add hl,bc
  0076  c1           pop bc
  0077  7e           ld a,(hl)
  0078  02           ld (bc),a
  0079  23           inc hl
  007a  7e           ld a,(hl)
  007b  03           inc bc
  007c  02           ld (bc),a
  007d  2a 00 00     ld hl,(0000h)
  0080  01 04 00     ld bc,0004h
  0083  09           add hl,bc
  0084  7e           ld a,(hl)
  0085  fe 01        cp 01h
  0087  c2 8e 00     jp nz,008eh
  008a  23           inc hl
  008b  7e           ld a,(hl)
  008c  fe 00        cp 00h
  008e  ca b5 00     jp z,00b5h
  0091  2a 00 00     ld hl,(0000h)
  0094  01 04 00     ld bc,0004h
  0097  09           add hl,bc
  0098  7e           ld a,(hl)
  0099  fe ff        cp ffh
  009b  c2 a2 00     jp nz,00a2h
  009e  23           inc hl
  009f  7e           ld a,(hl)
  00a0  fe ff        cp ffh
  00a2  c2 03 01     jp nz,0103h
  00a5  c3 b5 00     jp 00b5h
  00a8  2a 00 00     ld hl,(0000h)
  00ab  01 06 00     ld bc,0006h
  00ae  09           add hl,bc
  00af  22 00 00     ld (0000h),hl
  00b2  c3 46 00     jp 0046h
  00b5  2a 00 00     ld hl,(0000h)
  00b8  01 02 00     ld bc,0002h
  00bb  09           add hl,bc
  00bc  7e           ld a,(hl)
  00bd  23           inc hl
  00be  b6           or (hl)
  00bf  ca 03 01     jp z,0103h
  00c2  2a 00 00     ld hl,(0000h)
  00c5  01 02 00     ld bc,0002h
  00c8  09           add hl,bc
  00c9  4e           ld c,(hl)
  00ca  23           inc hl
  00cb  46           ld b,(hl)
  00cc  c5           push bc
  00cd  2a 00 00     ld hl,(0000h)
  00d0  01 08 00     ld bc,0008h
  00d3  09           add hl,bc
  00d4  e5           push hl
  00d5  2a 00 00     ld hl,(0000h)
  00d8  4e           ld c,(hl)
  00d9  23           inc hl
  00da  46           ld b,(hl)
  00db  c5           push bc
  00dc  cd 00 00     call 0000h
  00df  f1           pop af
  00e0  f1           pop af
  00e1  f1           pop af
  00e2  c5           push bc
  00e3  2a 00 00     ld hl,(0000h)
  00e6  01 02 00     ld bc,0002h
  00e9  09           add hl,bc
  00ea  c1           pop bc
  00eb  79           ld a,c
  00ec  be           cp (hl)
  00ed  c2 f3 00     jp nz,00f3h
  00f0  78           ld a,b
  00f1  23           inc hl
  00f2  be           cp (hl)
  00f3  ca 03 01     jp z,0103h
  00f6  21 00 00     ld hl,0000h
  00f9  e5           push hl
  00fa  21 00 00     ld hl,0000h
  00fd  e5           push hl
  00fe  cd 00 00     call 0000h
  0101  f1           pop af
  0102  f1           pop af
  0103  2a 00 00     ld hl,(0000h)
  0106  4e           ld c,(hl)
  0107  23           inc hl
  0108  46           ld b,(hl)
  0109  c5           push bc
  010a  cd 00 00     call 0000h
  010d  f1           pop af
  010e  78           ld a,b
  010f  b7           or a
  0110  fa 1b 01     jp m,011bh
  0113  2a 00 00     ld hl,(0000h)
  0116  4d           ld c,l
  0117  44           ld b,h
  0118  c3 00 00     jp 0000h
  011b  01 00 00     ld bc,0000h
  011e  c3 00 00     jp 0000h

Data segment: (empty)

Symbol table: 10 symbols (9-char names)
  Index  Value  Type Seg    Global  Name
  -----  -----  ---- -----  ------  ----
  [  0]  0000   08   ext    yes      c.r4
  [  1]  0000   08   ext    yes      c.r3
  [  2]  0000   08   ext    yes      c.r2
  [  3]  0000   08   ext    yes      _close
  [  4]  0000   08   ext    yes      __pfio
  [  5]  0000   08   ext    yes      c.rets
  [  6]  0000   08   ext    yes      c.ents
  [  7]  0000   08   ext    yes      _write
  [  8]  0000   08   ext    yes      _error
  [  9]  001c   0d   text   yes      _fclose

Text relocations:
  Offset  Type        Target
  ------  ----        ------
  001d    word        symbol[6]
  0028    word        symbol[0]
  002b    word        symbol[0]
  0031    word        text segment
  0038    word        text segment
  003c    word        symbol[8]
  0041    word        symbol[4]
  0044    word        symbol[1]
  0047    word        symbol[1]
  004e    word        symbol[2]
  0051    word        symbol[2]
  0057    word        text segment
  005a    word        symbol[0]
  005d    word        symbol[2]
  0061    word        text segment
  0064    word        symbol[2]
  0069    word        text segment
  006c    word        symbol[1]
  0070    word        symbol[2]
  007e    word        symbol[0]
  0088    word        text segment
  008f    word        text segment
  0092    word        symbol[0]
  009c    word        text segment
  00a3    word        text segment
  00a6    word        text segment
  00a9    word        symbol[2]
  00b0    word        symbol[1]
  00b3    word        text segment
  00b6    word        symbol[0]
  00c0    word        text segment
  00c3    word        symbol[0]
  00ce    word        symbol[0]
  00d6    word        symbol[0]
  00dd    word        symbol[7]
  00e4    word        symbol[0]
  00ee    word        text segment
  00f4    word        text segment
  00fb    word        text segment
  00ff    word        symbol[8]
  0104    word        symbol[0]
  010b    word        symbol[3]
  0111    word        text segment
  0114    word        symbol[0]
  0119    word        symbol[5]
  011f    word        symbol[5]

Data relocations:
  Offset  Type        Target
  ------  ----        ------
  (none)

